

Microchip MPLAB XC8 Assembler V2.30 build 20200825195618 
                                                                                               Sat May 15 10:14:59 2021

Microchip MPLAB XC8 C Compiler v2.30 (Free license) build 20200825195618 Og1 
     1                           	processor	16F877A
     2                           	pagewidth 120
     3                           	opt	flic
     4                           	psect	idataBANK1,global,class=CODE,delta=2,noexec
     5                           	psect	idataBANK3,global,class=CODE,delta=2,noexec
     6                           	psect	strings,global,class=STRING,delta=2,noexec
     7                           	psect	cinit,global,class=CODE,merge=1,delta=2
     8                           	psect	bssBANK0,global,class=BANK0,space=1,delta=1,noexec
     9                           	psect	bssBANK1,global,class=BANK1,space=1,delta=1,noexec
    10                           	psect	dataBANK1,global,class=BANK1,space=1,delta=1,noexec
    11                           	psect	bssBANK3,global,class=BANK3,space=1,delta=1,noexec
    12                           	psect	dataBANK3,global,class=BANK3,space=1,delta=1,noexec
    13                           	psect	cstackBANK3,global,class=BANK3,space=1,delta=1,noexec
    14                           	psect	cstackBANK1,global,class=BANK1,space=1,delta=1,noexec
    15                           	psect	cstackCOMMON,global,class=COMMON,space=1,delta=1,noexec
    16                           	psect	cstackBANK0,global,class=BANK0,space=1,delta=1,noexec
    17                           	psect	maintext,global,class=CODE,split=1,delta=2
    18                           	psect	text1,local,class=CODE,merge=1,delta=2
    19                           	psect	text2,local,class=CODE,merge=1,delta=2,group=1
    20                           	psect	text3,local,class=CODE,merge=1,delta=2,group=1
    21                           	psect	text4,local,class=CODE,merge=1,delta=2,group=1
    22                           	psect	text5,local,class=CODE,merge=1,delta=2,group=1
    23                           	psect	text6,local,class=CODE,merge=1,delta=2,group=1
    24                           	psect	text7,local,class=CODE,merge=1,delta=2
    25                           	psect	text8,local,class=CODE,merge=1,delta=2
    26                           	psect	text9,local,class=CODE,merge=1,delta=2
    27                           	psect	text10,local,class=CODE,merge=1,delta=2
    28                           	psect	text11,local,class=CODE,merge=1,delta=2
    29                           	psect	text12,local,class=CODE,merge=1,delta=2
    30                           	psect	text13,local,class=CODE,merge=1,delta=2
    31                           	psect	text14,local,class=CODE,merge=1,delta=2
    32                           	psect	text15,local,class=CODE,merge=1,delta=2
    33                           	psect	text16,local,class=CODE,merge=1,delta=2
    34                           	psect	text17,local,class=CODE,merge=1,delta=2
    35                           	psect	text18,local,class=CODE,merge=1,delta=2
    36                           	psect	text19,local,class=CODE,merge=1,delta=2
    37                           	psect	text20,local,class=CODE,merge=1,delta=2
    38                           	psect	intentry,global,class=CODE,delta=2
    39                           	psect	text21,local,class=CODE,merge=1,delta=2
    40                           	psect	text22,local,class=CODE,merge=1,delta=2
    41                           	psect	text23,local,class=CODE,merge=1,delta=2
    42                           	psect	text24,local,class=CODE,merge=1,delta=2
    43                           	psect	text25,local,class=CODE,merge=1,delta=2
    44                           	psect	text26,local,class=CODE,merge=1,delta=2
    45                           	psect	text27,local,class=CODE,merge=1,delta=2
    46                           	psect	text28,local,class=CODE,merge=1,delta=2
    47                           	psect	text29,local,class=CODE,merge=1,delta=2
    48                           	psect	text30,local,class=CODE,merge=1,delta=2,group=1
    49                           	psect	text31,local,class=CODE,merge=1,delta=2,group=1
    50                           	psect	config,global,abs,ovrld,class=CONFIG,space=4,delta=2,noexec
    51                           	dabs	1,0x7E,2
    52  0000                     
    53                           ; Version 2.20
    54                           ; Generated 12/02/2020 GMT
    55                           ; 
    56                           ; Copyright © 2020, Microchip Technology Inc. and its subsidiaries ("Microchip")
    57                           ; All rights reserved.
    58                           ; 
    59                           ; This software is developed by Microchip Technology Inc. and its subsidiaries ("Microch
      +                          ip").
    60                           ; 
    61                           ; Redistribution and use in source and binary forms, with or without modification, are
    62                           ; permitted provided that the following conditions are met:
    63                           ; 
    64                           ;     1. Redistributions of source code must retain the above copyright notice, this lis
      +                          t of
    65                           ;        conditions and the following disclaimer.
    66                           ; 
    67                           ;     2. Redistributions in binary form must reproduce the above copyright notice, this 
      +                          list
    68                           ;        of conditions and the following disclaimer in the documentation and/or other
    69                           ;        materials provided with the distribution.
    70                           ; 
    71                           ;     3. Microchip's name may not be used to endorse or promote products derived from th
      +                          is
    72                           ;        software without specific prior written permission.
    73                           ; 
    74                           ; THIS SOFTWARE IS PROVIDED BY MICROCHIP "AS IS" AND ANY EXPRESS OR IMPLIED WARRANTIES,
    75                           ; INCLUDING, BUT NOT LIMITED TO, THE IMPLIED WARRANTIES OF MERCHANTABILITY AND FITNESS F
      +                          OR
    76                           ; PURPOSE ARE DISCLAIMED.  IN NO EVENT SHALL MICROCHIP BE LIABLE FOR ANY DIRECT, INDIREC
      +                          T,
    77                           ; INCIDENTAL, SPECIAL, EXEMPLARY, OR CONSEQUENTIAL DAMAGES (INCLUDING BUT NOT LIMITED TO
    78                           ; PROCUREMENT OF SUBSTITUTE GOODS OR SERVICES; LOSS OF USE, DATA OR PROFITS; OR BUSINESS
    79                           ; INTERRUPTION) HOWSOEVER CAUSED AND ON ANY THEORY OF LIABILITY, WHETHER IN CONTRACT, ST
      +                          RICT
    80                           ; LIABILITY, OR TORT (INCLUDING NEGLIGENCE OR OTHERWISE) ARISING IN ANY WAY OUT OF THE U
      +                          SE OF
    81                           ; THIS SOFTWARE, EVEN IF ADVISED OF THE POSSIBILITY OF SUCH DAMAGE.
    82                           ; 
    83                           ; 
    84                           ; Code-generator required, PIC16F877A Definitions
    85                           ; 
    86                           ; SFR Addresses
    87  0000                     	;# 
    88  0001                     	;# 
    89  0002                     	;# 
    90  0003                     	;# 
    91  0004                     	;# 
    92  0005                     	;# 
    93  0006                     	;# 
    94  0007                     	;# 
    95  0008                     	;# 
    96  0009                     	;# 
    97  000A                     	;# 
    98  000B                     	;# 
    99  000C                     	;# 
   100  000D                     	;# 
   101  000E                     	;# 
   102  000E                     	;# 
   103  000F                     	;# 
   104  0010                     	;# 
   105  0011                     	;# 
   106  0012                     	;# 
   107  0013                     	;# 
   108  0014                     	;# 
   109  0015                     	;# 
   110  0015                     	;# 
   111  0016                     	;# 
   112  0017                     	;# 
   113  0018                     	;# 
   114  0019                     	;# 
   115  001A                     	;# 
   116  001B                     	;# 
   117  001B                     	;# 
   118  001C                     	;# 
   119  001D                     	;# 
   120  001E                     	;# 
   121  001F                     	;# 
   122  0081                     	;# 
   123  0085                     	;# 
   124  0086                     	;# 
   125  0087                     	;# 
   126  0088                     	;# 
   127  0089                     	;# 
   128  008C                     	;# 
   129  008D                     	;# 
   130  008E                     	;# 
   131  0091                     	;# 
   132  0092                     	;# 
   133  0093                     	;# 
   134  0094                     	;# 
   135  0098                     	;# 
   136  0099                     	;# 
   137  009C                     	;# 
   138  009D                     	;# 
   139  009E                     	;# 
   140  009F                     	;# 
   141  010C                     	;# 
   142  010D                     	;# 
   143  010E                     	;# 
   144  010F                     	;# 
   145  018C                     	;# 
   146  018D                     	;# 
   147  0000                     	;# 
   148  0001                     	;# 
   149  0002                     	;# 
   150  0003                     	;# 
   151  0004                     	;# 
   152  0005                     	;# 
   153  0006                     	;# 
   154  0007                     	;# 
   155  0008                     	;# 
   156  0009                     	;# 
   157  000A                     	;# 
   158  000B                     	;# 
   159  000C                     	;# 
   160  000D                     	;# 
   161  000E                     	;# 
   162  000E                     	;# 
   163  000F                     	;# 
   164  0010                     	;# 
   165  0011                     	;# 
   166  0012                     	;# 
   167  0013                     	;# 
   168  0014                     	;# 
   169  0015                     	;# 
   170  0015                     	;# 
   171  0016                     	;# 
   172  0017                     	;# 
   173  0018                     	;# 
   174  0019                     	;# 
   175  001A                     	;# 
   176  001B                     	;# 
   177  001B                     	;# 
   178  001C                     	;# 
   179  001D                     	;# 
   180  001E                     	;# 
   181  001F                     	;# 
   182  0081                     	;# 
   183  0085                     	;# 
   184  0086                     	;# 
   185  0087                     	;# 
   186  0088                     	;# 
   187  0089                     	;# 
   188  008C                     	;# 
   189  008D                     	;# 
   190  008E                     	;# 
   191  0091                     	;# 
   192  0092                     	;# 
   193  0093                     	;# 
   194  0094                     	;# 
   195  0098                     	;# 
   196  0099                     	;# 
   197  009C                     	;# 
   198  009D                     	;# 
   199  009E                     	;# 
   200  009F                     	;# 
   201  010C                     	;# 
   202  010D                     	;# 
   203  010E                     	;# 
   204  010F                     	;# 
   205  018C                     	;# 
   206  018D                     	;# 
   207                           
   208                           	psect	idataBANK1
   209  0003                     __pidataBANK1:
   210                           
   211                           ;initializer for _ps
   212  0003  3404               	retlw	4
   213                           
   214                           	psect	idataBANK3
   215  0800                     __pidataBANK3:
   216                           
   217                           ;initializer for _Fpwm
   218  0800  34D0               	retlw	208
   219  0801  3407               	retlw	7
   220  0802  3400               	retlw	0
   221  0803  3400               	retlw	0
   222  0005                     _PORTA	set	5
   223  0008                     _PORTD	set	8
   224  0015                     _CCPR1L	set	21
   225  0007                     _PORTC	set	7
   226  0006                     _PORTB	set	6
   227  0028                     _RA0	set	40
   228  0037                     _RB7	set	55
   229  0036                     _RB6	set	54
   230  0035                     _RB5	set	53
   231  0034                     _RB4	set	52
   232  0058                     _RBIF	set	88
   233  005B                     _RBIE	set	91
   234  0038                     _RC0	set	56
   235  0039                     _RC1	set	57
   236  00BD                     _CCP1X	set	189
   237  00BC                     _CCP1Y	set	188
   238  0092                     _TMR2ON	set	146
   239  0091                     _T2CKPS1	set	145
   240  0090                     _T2CKPS0	set	144
   241  00BB                     _CCP1M3	set	187
   242  00BA                     _CCP1M2	set	186
   243  0040                     _RD0	set	64
   244  0041                     _RD1	set	65
   245  0033                     _RB3	set	51
   246  0032                     _RB2	set	50
   247  0031                     _RB1	set	49
   248  0030                     _RB0	set	48
   249  003F                     _RC7	set	63
   250  003E                     _RC6	set	62
   251  003D                     _RC5	set	61
   252  003C                     _RC4	set	60
   253  005F                     _GIE	set	95
   254  0043                     _RD3	set	67
   255  0042                     _RD2	set	66
   256  0047                     _RD7	set	71
   257  0046                     _RD6	set	70
   258  0045                     _RD5	set	69
   259  0044                     _RD4	set	68
   260  0085                     _TRISA	set	133
   261  0088                     _TRISD	set	136
   262  0092                     _PR2	set	146
   263  0081                     _OPTION_REG	set	129
   264  0087                     _TRISC	set	135
   265  0086                     _TRISB	set	134
   266  040E                     _INTEDG	set	1038
   267  043A                     _TRISC2	set	1082
   268  010C                     _EEDATA	set	268
   269  010D                     _EEADR	set	269
   270  018D                     _EECON2	set	397
   271  018C                     _EECON1bits	set	396
   272  0C61                     _WR	set	3169
   273  0C67                     _EEPGD	set	3175
   274                           
   275                           	psect	strings
   276  1800                     __pstrings:
   277  1800                     stringtab:
   278  1800                     __stringtab:
   279  1800                     stringcode:	
   280                           ;	String table - string pointers are 1 byte each
   281                           
   282  1800                     stringdir:
   283  1800  3018               	movlw	high stringdir
   284  1801  008A               	movwf	10
   285  1802  0804               	movf	4,w
   286  1803  0A84               	incf	4,f
   287  1804  0782               	addwf	2,f
   288  1805                     __stringbase:
   289  1805  3400               	retlw	0
   290  1806                     __end_of__stringtab:
   291  1806                     STR_10:
   292  1806  3443               	retlw	67	;'C'
   293  1807  343A               	retlw	58	;':'
   294  1808  3420               	retlw	32	;' '
   295  1809  3443               	retlw	67	;'C'
   296  180A  3448               	retlw	72	;'H'
   297  180B  344F               	retlw	79	;'O'
   298  180C  3453               	retlw	83	;'S'
   299  180D  3445               	retlw	69	;'E'
   300  180E  3420               	retlw	32	;' '
   301  180F  3450               	retlw	80	;'P'
   302  1810  3441               	retlw	65	;'A'
   303  1811  3453               	retlw	83	;'S'
   304  1812  3453               	retlw	83	;'S'
   305  1813  3457               	retlw	87	;'W'
   306  1814  344F               	retlw	79	;'O'
   307  1815  3452               	retlw	82	;'R'
   308  1816  3444               	retlw	68	;'D'
   309  1817  3400               	retlw	0
   310  1818                     STR_28:
   311  1818  3441               	retlw	65	;'A'
   312  1819  3420               	retlw	32	;' '
   313  181A  3454               	retlw	84	;'T'
   314  181B  3448               	retlw	72	;'H'
   315  181C  3441               	retlw	65	;'A'
   316  181D  3459               	retlw	89	;'Y'
   317  181E  3420               	retlw	32	;' '
   318  181F  3450               	retlw	80	;'P'
   319  1820  3441               	retlw	65	;'A'
   320  1821  3453               	retlw	83	;'S'
   321  1822  3453               	retlw	83	;'S'
   322  1823  3457               	retlw	87	;'W'
   323  1824  344F               	retlw	79	;'O'
   324  1825  3452               	retlw	82	;'R'
   325  1826  3444               	retlw	68	;'D'
   326  1827  3420               	retlw	32	;' '
   327  1828  3400               	retlw	0
   328  1829                     STR_34:
   329  1829  3445               	retlw	69	;'E'
   330  182A  3452               	retlw	82	;'R'
   331  182B  3452               	retlw	82	;'R'
   332  182C  344F               	retlw	79	;'O'
   333  182D  3452               	retlw	82	;'R'
   334  182E  3420               	retlw	32	;' '
   335  182F  3420               	retlw	32	;' '
   336  1830  3420               	retlw	32	;' '
   337  1831  3420               	retlw	32	;' '
   338  1832  3445               	retlw	69	;'E'
   339  1833  3452               	retlw	82	;'R'
   340  1834  3452               	retlw	82	;'R'
   341  1835  344F               	retlw	79	;'O'
   342  1836  3452               	retlw	82	;'R'
   343  1837  3400               	retlw	0
   344  1838                     STR_12:
   345  1838  3457               	retlw	87	;'W'
   346  1839  3445               	retlw	69	;'E'
   347  183A  344C               	retlw	76	;'L'
   348  183B  344C               	retlw	76	;'L'
   349  183C  3443               	retlw	67	;'C'
   350  183D  344F               	retlw	79	;'O'
   351  183E  344D               	retlw	77	;'M'
   352  183F  3445               	retlw	69	;'E'
   353  1840  3420               	retlw	32	;' '
   354  1841  3448               	retlw	72	;'H'
   355  1842  344F               	retlw	79	;'O'
   356  1843  344D               	retlw	77	;'M'
   357  1844  3445               	retlw	69	;'E'
   358  1845  3400               	retlw	0
   359  1846                     STR_20:
   360  1846  344E               	retlw	78	;'N'
   361  1847  3445               	retlw	69	;'E'
   362  1848  3457               	retlw	87	;'W'
   363  1849  3420               	retlw	32	;' '
   364  184A  3450               	retlw	80	;'P'
   365  184B  3441               	retlw	65	;'A'
   366  184C  3453               	retlw	83	;'S'
   367  184D  3453               	retlw	83	;'S'
   368  184E  3457               	retlw	87	;'W'
   369  184F  344F               	retlw	79	;'O'
   370  1850  3452               	retlw	82	;'R'
   371  1851  3444               	retlw	68	;'D'
   372  1852  3400               	retlw	0
   373  1853                     STR_29:
   374  1853  3442               	retlw	66	;'B'
   375  1854  3420               	retlw	32	;' '
   376  1855  344B               	retlw	75	;'K'
   377  1856  3448               	retlw	72	;'H'
   378  1857  344F               	retlw	79	;'O'
   379  1858  3441               	retlw	65	;'A'
   380  1859  3420               	retlw	32	;' '
   381  185A  3443               	retlw	67	;'C'
   382  185B  3455               	retlw	85	;'U'
   383  185C  3441               	retlw	65	;'A'
   384  185D  3400               	retlw	0
   385  185E                     STR_4:
   386  185E  3443               	retlw	67	;'C'
   387  185F  344C               	retlw	76	;'L'
   388  1860  344F               	retlw	79	;'O'
   389  1861  3453               	retlw	83	;'S'
   390  1862  3445               	retlw	69	;'E'
   391  1863  3420               	retlw	32	;' '
   392  1864  3444               	retlw	68	;'D'
   393  1865  344F               	retlw	79	;'O'
   394  1866  344F               	retlw	79	;'O'
   395  1867  3452               	retlw	82	;'R'
   396  1868  3400               	retlw	0
   397  1869                     STR_1:
   398  1869  3457               	retlw	87	;'W'
   399  186A  3445               	retlw	69	;'E'
   400  186B  344C               	retlw	76	;'L'
   401  186C  344C               	retlw	76	;'L'
   402  186D  3443               	retlw	67	;'C'
   403  186E  344F               	retlw	79	;'O'
   404  186F  344D               	retlw	77	;'M'
   405  1870  3445               	retlw	69	;'E'
   406  1871  3400               	retlw	0
   407  1872                     STR_11:
   408  1872  3443               	retlw	67	;'C'
   409  1873  344F               	retlw	79	;'O'
   410  1874  344D               	retlw	77	;'M'
   411  1875  3450               	retlw	80	;'P'
   412  1876  344C               	retlw	76	;'L'
   413  1877  3445               	retlw	69	;'E'
   414  1878  3454               	retlw	84	;'T'
   415  1879  3445               	retlw	69	;'E'
   416  187A  3400               	retlw	0
   417  187B                     STR_30:
   418  187B  344E               	retlw	78	;'N'
   419  187C  344F               	retlw	79	;'O'
   420  187D  3454               	retlw	84	;'T'
   421  187E  3420               	retlw	32	;' '
   422  187F  344F               	retlw	79	;'O'
   423  1880  3450               	retlw	80	;'P'
   424  1881  3445               	retlw	69	;'E'
   425  1882  344E               	retlw	78	;'N'
   426  1883  3400               	retlw	0
   427  1884                     STR_8:
   428  1884  3444               	retlw	68	;'D'
   429  1885  344F               	retlw	79	;'O'
   430  1886  3457               	retlw	87	;'W'
   431  1887  344E               	retlw	78	;'N'
   432  1888  343A               	retlw	58	;':'
   433  1889  3420               	retlw	32	;' '
   434  188A  3433               	retlw	51	;'3'
   435  188B  3400               	retlw	0
   436  188C                     STR_14:
   437  188C  3444               	retlw	68	;'D'
   438  188D  344F               	retlw	79	;'O'
   439  188E  3457               	retlw	87	;'W'
   440  188F  344E               	retlw	78	;'N'
   441  1890  3420               	retlw	32	;' '
   442  1891  343A               	retlw	58	;':'
   443  1892  3400               	retlw	0
   444  1828                     
   445                           	psect	cinit
   446  0013                     start_initialization:	
   447                           ; #config settings
   448                           
   449  0013                     __initialization:
   450                           
   451                           ; Initialize objects allocated to BANK3
   452  0013  1683               	bsf	3,5	;RP0=1, select bank3
   453  0014  1703               	bsf	3,6	;RP1=1, select bank3
   454  0015  120A  158A  2000  120A  118A  	fcall	__pidataBANK3	;fetch initializer
   455  001A  00C5               	movwf	__pdataBANK3& (0+127)
   456  001B  120A  158A  2001  120A  118A  	fcall	__pidataBANK3+1	;fetch initializer
   457  0020  00C6               	movwf	(__pdataBANK3+1)& (0+127)
   458  0021  120A  158A  2002  120A  118A  	fcall	__pidataBANK3+2	;fetch initializer
   459  0026  00C7               	movwf	(__pdataBANK3+2)& (0+127)
   460  0027  120A  158A  2003  120A  118A  	fcall	__pidataBANK3+3	;fetch initializer
   461  002C  00C8               	movwf	(__pdataBANK3+3)& (0+127)
   462                           
   463                           ; Initialize objects allocated to BANK1
   464  002D  1683               	bsf	3,5	;RP0=1, select bank1
   465  002E  1303               	bcf	3,6	;RP1=0, select bank1
   466  002F  120A  118A  2003  120A  118A  	fcall	__pidataBANK1	;fetch initializer
   467  0034  00EE               	movwf	__pdataBANK1& (0+127)
   468                           
   469                           ; Clear objects allocated to BANK3
   470  0035  1683               	bsf	3,5	;RP0=1, select bank3
   471  0036  1703               	bsf	3,6	;RP1=1, select bank3
   472  0037  01C9               	clrf	__pbssBANK3& (0+127)
   473  0038  01CA               	clrf	(__pbssBANK3+1)& (0+127)
   474                           
   475                           ; Clear objects allocated to BANK1
   476  0039  1683               	bsf	3,5	;RP0=1, select bank1
   477  003A  1303               	bcf	3,6	;RP1=0, select bank1
   478  003B  01EA               	clrf	__pbssBANK1& (0+127)
   479  003C  01EB               	clrf	(__pbssBANK1+1)& (0+127)
   480  003D  01EC               	clrf	(__pbssBANK1+2)& (0+127)
   481  003E  01ED               	clrf	(__pbssBANK1+3)& (0+127)
   482                           
   483                           ; Clear objects allocated to BANK0
   484  003F  1283               	bcf	3,5	;RP0=0, select bank0
   485  0040  1303               	bcf	3,6	;RP1=0, select bank0
   486  0041  01E8               	clrf	__pbssBANK0& (0+127)
   487  0042  01E9               	clrf	(__pbssBANK0+1)& (0+127)
   488  0043                     end_of_initialization:	
   489                           ;End of C runtime variable initialization code
   490                           
   491  0043                     __end_of__initialization:
   492  0043  0183               	clrf	3
   493  0044  120A  118A  2847   	ljmp	_main	;jump to C main() function
   494                           
   495                           	psect	bssBANK0
   496  0068                     __pbssBANK0:
   497  0068                     _trangthai:
   498  0068                     	ds	2
   499                           
   500                           	psect	bssBANK1
   501  00EA                     __pbssBANK1:
   502  00EA                     _counter1:
   503  00EA                     	ds	2
   504  00EC                     _tt:
   505  00EC                     	ds	2
   506                           
   507                           	psect	dataBANK1
   508  00EE                     __pdataBANK1:
   509  00EE                     _ps:
   510  00EE                     	ds	1
   511                           
   512                           	psect	bssBANK3
   513  01C9                     __pbssBANK3:
   514  01C9                     _counter:
   515  01C9                     	ds	2
   516  01CB                     _pass:
   517  01CB                     	ds	0
   518                           
   519                           	psect	dataBANK3
   520  01C5                     __pdataBANK3:
   521  01C5                     _Fpwm:
   522  01C5                     	ds	4
   523                           
   524                           	psect	cstackBANK3
   525  0190                     __pcstackBANK3:
   526  0190                     ?___fltol:
   527  0190                     ___fltol@f1:	
   528                           ; 4 bytes @ 0x0
   529                           
   530                           
   531                           ; 4 bytes @ 0x0
   532  0190                     	ds	4
   533  0194                     ??___fltol:
   534                           
   535                           ; 1 bytes @ 0x4
   536  0194                     	ds	5
   537  0199                     ___fltol@sign1:
   538                           
   539                           ; 1 bytes @ 0x9
   540  0199                     	ds	1
   541  019A                     ___fltol@exp1:
   542                           
   543                           ; 1 bytes @ 0xA
   544  019A                     	ds	1
   545  019B                     ??_set_Tpwm:
   546                           
   547                           ; 1 bytes @ 0xB
   548  019B                     	ds	2
   549  019D                     ??_main:
   550                           
   551                           ; 1 bytes @ 0xD
   552  019D                     	ds	3
   553  01A0                     main@down1_211:
   554                           
   555                           ; 1 bytes @ 0x10
   556  01A0                     	ds	1
   557  01A1                     main@c2:
   558                           
   559                           ; 2 bytes @ 0x11
   560  01A1                     	ds	2
   561  01A3                     main@c2_213:
   562                           
   563                           ; 2 bytes @ 0x13
   564  01A3                     	ds	2
   565  01A5                     main@down1:
   566                           
   567                           ; 1 bytes @ 0x15
   568  01A5                     	ds	1
   569  01A6                     main@c1:
   570                           
   571                           ; 1 bytes @ 0x16
   572  01A6                     	ds	1
   573  01A7                     main@x:
   574                           
   575                           ; 1 bytes @ 0x17
   576  01A7                     	ds	1
   577  01A8                     main@down1_201:
   578                           
   579                           ; 1 bytes @ 0x18
   580  01A8                     	ds	1
   581  01A9                     main@c1_214:
   582                           
   583                           ; 1 bytes @ 0x19
   584  01A9                     	ds	1
   585  01AA                     main@x_216:
   586                           
   587                           ; 1 bytes @ 0x1A
   588  01AA                     	ds	1
   589  01AB                     main@x_219:
   590                           
   591                           ; 1 bytes @ 0x1B
   592  01AB                     	ds	1
   593  01AC                     main@data:
   594                           
   595                           ; 1 bytes @ 0x1C
   596  01AC                     	ds	1
   597  01AD                     main@down1_226:
   598                           
   599                           ; 1 bytes @ 0x1D
   600  01AD                     	ds	1
   601  01AE                     main@check:
   602                           
   603                           ; 2 bytes @ 0x1E
   604  01AE                     	ds	2
   605  01B0                     main@check6:
   606                           
   607                           ; 2 bytes @ 0x20
   608  01B0                     	ds	2
   609  01B2                     main@x2:
   610                           
   611                           ; 2 bytes @ 0x22
   612  01B2                     	ds	2
   613  01B4                     main@check4:
   614                           
   615                           ; 1 bytes @ 0x24
   616  01B4                     	ds	1
   617  01B5                     main@i:
   618                           
   619                           ; 2 bytes @ 0x25
   620  01B5                     	ds	2
   621  01B7                     main@i_215:
   622                           
   623                           ; 2 bytes @ 0x27
   624  01B7                     	ds	2
   625  01B9                     main@i_221:
   626                           
   627                           ; 1 bytes @ 0x29
   628  01B9                     	ds	1
   629  01BA                     main@check5:
   630                           
   631                           ; 2 bytes @ 0x2A
   632  01BA                     	ds	2
   633  01BC                     main@down:
   634                           
   635                           ; 2 bytes @ 0x2C
   636  01BC                     	ds	2
   637  01BE                     main@check1:
   638                           
   639                           ; 2 bytes @ 0x2E
   640  01BE                     	ds	2
   641  01C0                     main@check3:
   642                           
   643                           ; 2 bytes @ 0x30
   644  01C0                     	ds	2
   645  01C2                     main@check2:
   646                           
   647                           ; 2 bytes @ 0x32
   648  01C2                     	ds	2
   649  01C4                     main@Key:
   650                           
   651                           ; 1 bytes @ 0x34
   652  01C4                     	ds	1
   653                           
   654                           	psect	cstackBANK1
   655  00A0                     __pcstackBANK1:
   656  00A0                     ??_Lcd_Port:
   657  00A0                     ??_EEPROM_Read:	
   658                           ; 1 bytes @ 0x0
   659                           
   660  00A0                     ?_EEPROM_Write:	
   661                           ; 1 bytes @ 0x0
   662                           
   663  00A0                     ??_InitKeypad:	
   664                           ; 1 bytes @ 0x0
   665                           
   666  00A0                     ??_READ_SWITCHES:	
   667                           ; 1 bytes @ 0x0
   668                           
   669  00A0                     ??_init_PWM:	
   670                           ; 1 bytes @ 0x0
   671                           
   672  00A0                     ?___lldiv:	
   673                           ; 1 bytes @ 0x0
   674                           
   675  00A0                     Lcd_Port@a:	
   676                           ; 4 bytes @ 0x0
   677                           
   678  00A0                     EEPROM_Read@Address:	
   679                           ; 1 bytes @ 0x0
   680                           
   681  00A0                     EEPROM_Write@Data:	
   682                           ; 1 bytes @ 0x0
   683                           
   684  00A0                     ___lldiv@divisor:	
   685                           ; 1 bytes @ 0x0
   686                           
   687                           
   688                           ; 4 bytes @ 0x0
   689  00A0                     	ds	1
   690  00A1                     ??_Lcd_Cmd:
   691  00A1                     ??_Lcd_Write_Char:	
   692                           ; 1 bytes @ 0x1
   693                           
   694  00A1                     ??_EEPROM_Write:	
   695                           ; 1 bytes @ 0x1
   696                           
   697  00A1                     EEPROM_Write@Address:	
   698                           ; 1 bytes @ 0x1
   699                           
   700                           
   701                           ; 1 bytes @ 0x1
   702  00A1                     	ds	1
   703  00A2                     Lcd_Write_Char@temp:
   704                           
   705                           ; 1 bytes @ 0x2
   706  00A2                     	ds	1
   707  00A3                     ??_GetKey:
   708  00A3                     Lcd_Cmd@a:	
   709                           ; 1 bytes @ 0x3
   710                           
   711  00A3                     Lcd_Write_Char@y:	
   712                           ; 1 bytes @ 0x3
   713                           
   714                           
   715                           ; 1 bytes @ 0x3
   716  00A3                     	ds	1
   717  00A4                     ??_Lcd_Clear:
   718  00A4                     ?_Lcd_Set_Cursor:	
   719                           ; 1 bytes @ 0x4
   720                           
   721  00A4                     ??_Lcd_Init:	
   722                           ; 1 bytes @ 0x4
   723                           
   724  00A4                     Lcd_Set_Cursor@b:	
   725                           ; 1 bytes @ 0x4
   726                           
   727  00A4                     Lcd_Write_Char@a:	
   728                           ; 1 bytes @ 0x4
   729                           
   730  00A4                     GetKey@key:	
   731                           ; 1 bytes @ 0x4
   732                           
   733  00A4                     ___lldiv@dividend:	
   734                           ; 1 bytes @ 0x4
   735                           
   736                           
   737                           ; 4 bytes @ 0x4
   738  00A4                     	ds	1
   739  00A5                     ??_Lcd_Set_Cursor:
   740  00A5                     ??_Lcd_Write_String:	
   741                           ; 1 bytes @ 0x5
   742                           
   743  00A5                     Lcd_Write_String@i:	
   744                           ; 1 bytes @ 0x5
   745                           
   746                           
   747                           ; 2 bytes @ 0x5
   748  00A5                     	ds	2
   749  00A7                     Lcd_Set_Cursor@a:
   750  00A7                     Lcd_Write_String@a:	
   751                           ; 1 bytes @ 0x7
   752                           
   753                           
   754                           ; 1 bytes @ 0x7
   755  00A7                     	ds	1
   756  00A8                     ??___lldiv:
   757  00A8                     Lcd_Set_Cursor@z:	
   758                           ; 1 bytes @ 0x8
   759                           
   760                           
   761                           ; 1 bytes @ 0x8
   762  00A8                     	ds	1
   763  00A9                     Lcd_Set_Cursor@y:
   764  00A9                     ___lldiv@quotient:	
   765                           ; 1 bytes @ 0x9
   766                           
   767                           
   768                           ; 4 bytes @ 0x9
   769  00A9                     	ds	1
   770  00AA                     Lcd_Set_Cursor@temp:
   771                           
   772                           ; 1 bytes @ 0xA
   773  00AA                     	ds	3
   774  00AD                     ___lldiv@counter:
   775                           
   776                           ; 1 bytes @ 0xD
   777  00AD                     	ds	1
   778  00AE                     ?___xxtofl:
   779  00AE                     ___xxtofl@val:	
   780                           ; 4 bytes @ 0xE
   781                           
   782                           
   783                           ; 4 bytes @ 0xE
   784  00AE                     	ds	4
   785  00B2                     ??___xxtofl:
   786                           
   787                           ; 1 bytes @ 0x12
   788  00B2                     	ds	4
   789  00B6                     ___xxtofl@sign:
   790                           
   791                           ; 1 bytes @ 0x16
   792  00B6                     	ds	1
   793  00B7                     ___xxtofl@exp:
   794                           
   795                           ; 1 bytes @ 0x17
   796  00B7                     	ds	1
   797  00B8                     ___xxtofl@arg:
   798                           
   799                           ; 4 bytes @ 0x18
   800  00B8                     	ds	4
   801  00BC                     ?___fldiv:
   802  00BC                     ___fldiv@a:	
   803                           ; 4 bytes @ 0x1C
   804                           
   805                           
   806                           ; 4 bytes @ 0x1C
   807  00BC                     	ds	4
   808  00C0                     ___fldiv@b:
   809                           
   810                           ; 4 bytes @ 0x20
   811  00C0                     	ds	4
   812  00C4                     ??___fldiv:
   813                           
   814                           ; 1 bytes @ 0x24
   815  00C4                     	ds	5
   816  00C9                     ___fldiv@rem:
   817                           
   818                           ; 4 bytes @ 0x29
   819  00C9                     	ds	4
   820  00CD                     ___fldiv@sign:
   821                           
   822                           ; 1 bytes @ 0x2D
   823  00CD                     	ds	1
   824  00CE                     ___fldiv@new_exp:
   825                           
   826                           ; 2 bytes @ 0x2E
   827  00CE                     	ds	2
   828  00D0                     ___fldiv@grs:
   829                           
   830                           ; 4 bytes @ 0x30
   831  00D0                     	ds	4
   832  00D4                     ___fldiv@bexp:
   833                           
   834                           ; 1 bytes @ 0x34
   835  00D4                     	ds	1
   836  00D5                     ___fldiv@aexp:
   837                           
   838                           ; 1 bytes @ 0x35
   839  00D5                     	ds	1
   840  00D6                     ?___fladd:
   841  00D6                     ___fladd@b:	
   842                           ; 4 bytes @ 0x36
   843                           
   844                           
   845                           ; 4 bytes @ 0x36
   846  00D6                     	ds	4
   847  00DA                     ___fladd@a:
   848                           
   849                           ; 4 bytes @ 0x3A
   850  00DA                     	ds	4
   851  00DE                     ??___fladd:
   852                           
   853                           ; 1 bytes @ 0x3E
   854  00DE                     	ds	8
   855  00E6                     ___fladd@signs:
   856                           
   857                           ; 1 bytes @ 0x46
   858  00E6                     	ds	1
   859  00E7                     ___fladd@aexp:
   860                           
   861                           ; 1 bytes @ 0x47
   862  00E7                     	ds	1
   863  00E8                     ___fladd@bexp:
   864                           
   865                           ; 1 bytes @ 0x48
   866  00E8                     	ds	1
   867  00E9                     ___fladd@grs:
   868                           
   869                           ; 1 bytes @ 0x49
   870  00E9                     	ds	1
   871                           
   872                           	psect	cstackCOMMON
   873  0070                     __pcstackCOMMON:
   874  0070                     ?_nguoi:
   875  0070                     ??_nguoi:	
   876                           ; 1 bytes @ 0x0
   877                           
   878  0070                     ?_Lcd_Port:	
   879                           ; 1 bytes @ 0x0
   880                           
   881  0070                     ?_Lcd_Cmd:	
   882                           ; 1 bytes @ 0x0
   883                           
   884  0070                     ?_Lcd_Init:	
   885                           ; 1 bytes @ 0x0
   886                           
   887  0070                     ?_Lcd_Write_Char:	
   888                           ; 1 bytes @ 0x0
   889                           
   890  0070                     ?_Lcd_Write_String:	
   891                           ; 1 bytes @ 0x0
   892                           
   893  0070                     ?_EEPROM_Read:	
   894                           ; 1 bytes @ 0x0
   895                           
   896  0070                     ?_InitKeypad:	
   897                           ; 1 bytes @ 0x0
   898                           
   899  0070                     ?_READ_SWITCHES:	
   900                           ; 1 bytes @ 0x0
   901                           
   902  0070                     ?_GetKey:	
   903                           ; 1 bytes @ 0x0
   904                           
   905  0070                     ?_init_PWM:	
   906                           ; 1 bytes @ 0x0
   907                           
   908  0070                     ?_set_Tpwm:	
   909                           ; 1 bytes @ 0x0
   910                           
   911  0070                     ?_Dong:	
   912                           ; 1 bytes @ 0x0
   913                           
   914  0070                     ?_Mo:	
   915                           ; 1 bytes @ 0x0
   916                           
   917  0070                     ?_Dung:	
   918                           ; 1 bytes @ 0x0
   919                           
   920  0070                     ??_Dung:	
   921                           ; 1 bytes @ 0x0
   922                           
   923  0070                     ?_main:	
   924                           ; 1 bytes @ 0x0
   925                           
   926  0070                     ?_ISR:	
   927                           ; 1 bytes @ 0x0
   928                           
   929  0070                     ?__Umul8_16:	
   930                           ; 1 bytes @ 0x0
   931                           
   932  0070                     ?_Lcd_Clear:	
   933                           ; 2 bytes @ 0x0
   934                           
   935  0070                     ?i1___xxtofl:	
   936                           ; 2 bytes @ 0x0
   937                           
   938  0070                     __Umul8_16@multiplicand:	
   939                           ; 4 bytes @ 0x0
   940                           
   941  0070                     i1___xxtofl@val:	
   942                           ; 1 bytes @ 0x0
   943                           
   944                           
   945                           ; 4 bytes @ 0x0
   946  0070                     	ds	2
   947  0072                     ??__Umul8_16:
   948                           
   949                           ; 1 bytes @ 0x2
   950  0072                     	ds	2
   951  0074                     ??i1___xxtofl:
   952  0074                     __Umul8_16@product:	
   953                           ; 1 bytes @ 0x4
   954                           
   955                           
   956                           ; 2 bytes @ 0x4
   957  0074                     	ds	2
   958  0076                     __Umul8_16@word_mpld:
   959                           
   960                           ; 2 bytes @ 0x6
   961  0076                     	ds	2
   962  0078                     __Umul8_16@multiplier:
   963  0078                     i1___xxtofl@sign:	
   964                           ; 1 bytes @ 0x8
   965                           
   966                           
   967                           ; 1 bytes @ 0x8
   968  0078                     	ds	1
   969  0079                     i1___xxtofl@exp:
   970                           
   971                           ; 1 bytes @ 0x9
   972  0079                     	ds	1
   973  007A                     i1___xxtofl@arg:
   974                           
   975                           ; 4 bytes @ 0xA
   976  007A                     	ds	4
   977  007E                     ??_Dong:
   978  007E                     ??_Mo:	
   979                           ; 1 bytes @ 0xE
   980                           
   981                           
   982                           	psect	cstackBANK0
   983  0020                     __pcstackBANK0:	
   984                           ; 1 bytes @ 0xE
   985                           
   986  0020                     ?i1___fldiv:
   987  0020                     i1___fldiv@a:	
   988                           ; 4 bytes @ 0x0
   989                           
   990                           
   991                           ; 4 bytes @ 0x0
   992  0020                     	ds	4
   993  0024                     i1___fldiv@b:
   994                           
   995                           ; 4 bytes @ 0x4
   996  0024                     	ds	4
   997  0028                     ??i1___fldiv:
   998                           
   999                           ; 1 bytes @ 0x8
  1000  0028                     	ds	5
  1001  002D                     i1___fldiv@rem:
  1002                           
  1003                           ; 4 bytes @ 0xD
  1004  002D                     	ds	4
  1005  0031                     i1___fldiv@sign:
  1006                           
  1007                           ; 1 bytes @ 0x11
  1008  0031                     	ds	1
  1009  0032                     i1___fldiv@new_exp:
  1010                           
  1011                           ; 2 bytes @ 0x12
  1012  0032                     	ds	2
  1013  0034                     i1___fldiv@grs:
  1014                           
  1015                           ; 4 bytes @ 0x14
  1016  0034                     	ds	4
  1017  0038                     i1___fldiv@bexp:
  1018                           
  1019                           ; 1 bytes @ 0x18
  1020  0038                     	ds	1
  1021  0039                     i1___fldiv@aexp:
  1022                           
  1023                           ; 1 bytes @ 0x19
  1024  0039                     	ds	1
  1025  003A                     ?___flmul:
  1026  003A                     ?i1___fltol:	
  1027                           ; 4 bytes @ 0x1A
  1028                           
  1029  003A                     ___flmul@b:	
  1030                           ; 4 bytes @ 0x1A
  1031                           
  1032  003A                     i1___fltol@f1:	
  1033                           ; 4 bytes @ 0x1A
  1034                           
  1035                           
  1036                           ; 4 bytes @ 0x1A
  1037  003A                     	ds	4
  1038  003E                     ??i1___fltol:
  1039  003E                     ___flmul@a:	
  1040                           ; 1 bytes @ 0x1E
  1041                           
  1042                           
  1043                           ; 4 bytes @ 0x1E
  1044  003E                     	ds	4
  1045  0042                     ??___flmul:
  1046                           
  1047                           ; 1 bytes @ 0x22
  1048  0042                     	ds	1
  1049  0043                     i1___fltol@sign1:
  1050                           
  1051                           ; 1 bytes @ 0x23
  1052  0043                     	ds	1
  1053  0044                     i1___fltol@exp1:
  1054                           
  1055                           ; 1 bytes @ 0x24
  1056  0044                     	ds	3
  1057  0047                     ___flmul@sign:
  1058                           
  1059                           ; 1 bytes @ 0x27
  1060  0047                     	ds	1
  1061  0048                     ___flmul@grs:
  1062                           
  1063                           ; 4 bytes @ 0x28
  1064  0048                     	ds	4
  1065  004C                     ___flmul@aexp:
  1066                           
  1067                           ; 1 bytes @ 0x2C
  1068  004C                     	ds	1
  1069  004D                     ___flmul@bexp:
  1070                           
  1071                           ; 1 bytes @ 0x2D
  1072  004D                     	ds	1
  1073  004E                     ___flmul@prod:
  1074                           
  1075                           ; 4 bytes @ 0x2E
  1076  004E                     	ds	4
  1077  0052                     ___flmul@temp:
  1078                           
  1079                           ; 2 bytes @ 0x32
  1080  0052                     	ds	2
  1081  0054                     ?_DC_cal:
  1082  0054                     DC_cal@DC:	
  1083                           ; 2 bytes @ 0x34
  1084                           
  1085                           
  1086                           ; 2 bytes @ 0x34
  1087  0054                     	ds	2
  1088  0056                     ??_DC_cal:
  1089                           
  1090                           ; 1 bytes @ 0x36
  1091  0056                     	ds	4
  1092  005A                     _DC_cal$915:
  1093                           
  1094                           ; 4 bytes @ 0x3A
  1095  005A                     	ds	4
  1096  005E                     ?_setPWM_DutyCycle:
  1097  005E                     setPWM_DutyCycle@DC:	
  1098                           ; 1 bytes @ 0x3E
  1099                           
  1100                           
  1101                           ; 2 bytes @ 0x3E
  1102  005E                     	ds	2
  1103  0060                     ??_setPWM_DutyCycle:
  1104                           
  1105                           ; 1 bytes @ 0x40
  1106  0060                     	ds	2
  1107  0062                     ??_ISR:
  1108                           
  1109                           ; 1 bytes @ 0x42
  1110  0062                     	ds	6
  1111                           
  1112                           	psect	maintext
  1113  0047                     __pmaintext:	
  1114 ;;
  1115 ;;Main: autosize = 0, tempsize = 3, incstack = 0, save=0
  1116 ;;
  1117 ;; *************** function _main *****************
  1118 ;; Defined at:
  1119 ;;		line 47 in file "eeprom.c"
  1120 ;; Parameters:    Size  Location     Type
  1121 ;;		None
  1122 ;; Auto vars:     Size  Location     Type
  1123 ;;  data            1   28[BANK3 ] unsigned char 
  1124 ;;  i               1   41[BANK3 ] unsigned char 
  1125 ;;  x               1   26[BANK3 ] unsigned char 
  1126 ;;  x               1   23[BANK3 ] unsigned char 
  1127 ;;  down1           1   29[BANK3 ] unsigned char 
  1128 ;;  i               2   39[BANK3 ] int 
  1129 ;;  i               2   37[BANK3 ] int 
  1130 ;;  x2              2   34[BANK3 ] int 
  1131 ;;  check           2   30[BANK3 ] int 
  1132 ;;  x               1   27[BANK3 ] unsigned char 
  1133 ;;  c2              2   19[BANK3 ] int 
  1134 ;;  c1              1   25[BANK3 ] unsigned char 
  1135 ;;  down1           1   16[BANK3 ] unsigned char 
  1136 ;;  down1           1   24[BANK3 ] unsigned char 
  1137 ;;  c2              2   17[BANK3 ] int 
  1138 ;;  c1              1   22[BANK3 ] unsigned char 
  1139 ;;  down1           1   21[BANK3 ] unsigned char 
  1140 ;;  check4          1   36[BANK3 ] unsigned char 
  1141 ;;  check2          2   50[BANK3 ] int 
  1142 ;;  check3          2   48[BANK3 ] int 
  1143 ;;  check1          2   46[BANK3 ] int 
  1144 ;;  down            2   44[BANK3 ] int 
  1145 ;;  check5          2   42[BANK3 ] int 
  1146 ;;  check6          2   32[BANK3 ] int 
  1147 ;;  Key             1   52[BANK3 ] unsigned char 
  1148 ;; Return value:  Size  Location     Type
  1149 ;;                  1    wreg      void 
  1150 ;; Registers used:
  1151 ;;		wreg, fsr0l, fsr0h, status,2, status,0, btemp+1, pclath, cstack
  1152 ;; Tracked objects:
  1153 ;;		On entry : B00/0
  1154 ;;		On exit  : 0/0
  1155 ;;		Unchanged: 0/0
  1156 ;; Data sizes:     COMMON   BANK0   BANK1   BANK3   BANK2
  1157 ;;      Params:         0       0       0       0       0
  1158 ;;      Locals:         0       0       0      37       0
  1159 ;;      Temps:          0       0       0       3       0
  1160 ;;      Totals:         0       0       0      40       0
  1161 ;;Total ram usage:       40 bytes
  1162 ;; Hardware stack levels required when called:    8
  1163 ;; This function calls:
  1164 ;;		_EEPROM_Read
  1165 ;;		_EEPROM_Write
  1166 ;;		_GetKey
  1167 ;;		_InitKeypad
  1168 ;;		_Lcd_Clear
  1169 ;;		_Lcd_Init
  1170 ;;		_Lcd_Set_Cursor
  1171 ;;		_Lcd_Write_Char
  1172 ;;		_Lcd_Write_String
  1173 ;;		_init_PWM
  1174 ;;		_set_Tpwm
  1175 ;; This function is called by:
  1176 ;;		Startup code after reset
  1177 ;; This function uses a non-reentrant model
  1178 ;;
  1179                           
  1180                           
  1181                           ;psect for function _main
  1182  0047                     _main:
  1183  0047                     l5666:	
  1184                           ;incstack = 0
  1185                           ; Regs used in _main: [wreg-fsr0h+status,2+status,0+btemp+1+pclath+cstack]
  1186                           
  1187                           
  1188                           ;eeprom.c: 48:      Lcd_Set_Cursor(1,1);
  1189  0047  160A  158A  23E4  120A  118A  	fcall	_init_PWM
  1190  004C                     l5668:
  1191                           
  1192                           ;eeprom.c: 49:      Lcd_Write_String("WELLCOME");
  1193  004C  160A  118A  21A2  120A  118A  	fcall	_set_Tpwm
  1194  0051                     l5670:
  1195                           
  1196                           ;eeprom.c: 50:      Lcd_Set_Cursor(2,1);
  1197  0051  1683               	bsf	3,5	;RP0=1, select bank1
  1198  0052  1303               	bcf	3,6	;RP1=0, select bank1
  1199  0053  1701               	bsf	1,6	;volatile
  1200  0054                     l5672:
  1201                           
  1202                           ;eeprom.c: 51:      Lcd_Write_String("");
  1203  0054  178B               	bsf	11,7	;volatile
  1204  0055                     l5674:
  1205                           
  1206                           ;eeprom.c: 52:      check3=0;
  1207  0055  3003               	movlw	3
  1208  0056  0088               	movwf	8	;volatile
  1209  0057                     l5676:
  1210                           
  1211                           ;eeprom.c: 53:      check5=0;
  1212  0057  1283               	bcf	3,5	;RP0=0, select bank0
  1213  0058  1303               	bcf	3,6	;RP1=0, select bank0
  1214  0059  0188               	clrf	8	;volatile
  1215  005A                     l5678:
  1216                           
  1217                           ;eeprom.c: 54:      check1=0;
  1218  005A  1683               	bsf	3,5	;RP0=1, select bank1
  1219  005B  1303               	bcf	3,6	;RP1=0, select bank1
  1220  005C  0185               	clrf	5	;volatile
  1221  005D                     l5680:
  1222                           
  1223                           ;eeprom.c: 55:      check2=1;
  1224  005D  1283               	bcf	3,5	;RP0=0, select bank0
  1225  005E  1303               	bcf	3,6	;RP1=0, select bank0
  1226  005F  0185               	clrf	5	;volatile
  1227  0060                     l5682:
  1228                           
  1229                           ;eeprom.c: 56:      counter=0;
  1230  0060  160A  158A  2589  120A  118A  	fcall	_Lcd_Init
  1231  0065                     l5684:
  1232                           
  1233                           ;eeprom.c: 57:   }
  1234  0065  1683               	bsf	3,5	;RP0=1, select bank1
  1235  0066  1303               	bcf	3,6	;RP1=0, select bank1
  1236  0067  01A4               	clrf	Lcd_Set_Cursor@b^(0+128)
  1237  0068  0AA4               	incf	Lcd_Set_Cursor@b^(0+128),f
  1238  0069  3001               	movlw	1
  1239  006A  160A  158A  2531  120A  118A  	fcall	_Lcd_Set_Cursor
  1240  006F                     l5686:
  1241                           
  1242                           ;eeprom.c: 58:  if((Key=='1'||Key=='2'||Key=='3'||Key=='4'||Key=='5'||Key=='6'||Key=='7'
      +                          ||Key=='8'||Key=='9'||Key=='0')&&check2==0)
  1243  006F  3064               	movlw	(low ((STR_1-__stringbase)| (0+32768)))& (0+255)
  1244  0070  160A  118A  2003  120A  118A  	fcall	_Lcd_Write_String
  1245  0075                     l5688:
  1246                           
  1247                           ;eeprom.c: 59:  {
  1248  0075  1683               	bsf	3,5	;RP0=1, select bank1
  1249  0076  1303               	bcf	3,6	;RP1=0, select bank1
  1250  0077  01A4               	clrf	Lcd_Set_Cursor@b^(0+128)
  1251  0078  0AA4               	incf	Lcd_Set_Cursor@b^(0+128),f
  1252  0079  3002               	movlw	2
  1253  007A  160A  158A  2531  120A  118A  	fcall	_Lcd_Set_Cursor
  1254  007F                     l5690:
  1255                           
  1256                           ;eeprom.c: 60:      if(check6==1)
  1257  007F  3023               	movlw	(low (((STR_28+16)-__stringbase)| (0+32768)))& (0+255)
  1258  0080  160A  118A  2003  120A  118A  	fcall	_Lcd_Write_String
  1259  0085                     l5692:
  1260  0085                     l5694:
  1261                           
  1262                           ;eeprom.c: 62:         Lcd_Write_Char('*');
  1263  0085  3003               	movlw	3
  1264  0086  1683               	bsf	3,5	;RP0=1, select bank3
  1265  0087  1703               	bsf	3,6	;RP1=1, select bank3
  1266  0088  00BC               	movwf	main@down^(0+384)
  1267  0089  3000               	movlw	0
  1268  008A  00BD               	movwf	(main@down^(0+384)+1)
  1269  008B                     l5696:
  1270                           
  1271                           ;eeprom.c: 63:      }
  1272  008B  01BE               	clrf	main@check1^(0+384)
  1273  008C  01BF               	clrf	(main@check1+1)^(0+384)
  1274  008D                     l5698:
  1275                           
  1276                           ;eeprom.c: 64:      else
  1277  008D  3001               	movlw	1
  1278  008E  00C2               	movwf	main@check2^(0+384)
  1279  008F  3000               	movlw	0
  1280  0090  00C3               	movwf	(main@check2^(0+384)+1)
  1281  0091                     l5700:
  1282                           
  1283                           ;eeprom.c: 65:      {
  1284  0091  01C0               	clrf	main@check3^(0+384)
  1285  0092  01C1               	clrf	(main@check3+1)^(0+384)
  1286  0093                     l5702:
  1287                           
  1288                           ;eeprom.c: 66:          Lcd_Write_Char(Key);
  1289  0093  01BA               	clrf	main@check5^(0+384)
  1290  0094  01BB               	clrf	(main@check5+1)^(0+384)
  1291  0095                     l5704:
  1292                           
  1293                           ;eeprom.c: 67:      }
  1294  0095  01B0               	clrf	main@check6^(0+384)
  1295  0096  01B1               	clrf	(main@check6+1)^(0+384)
  1296  0097                     l5706:
  1297                           
  1298                           ;eeprom.c: 68:  }
  1299  0097  120A  118A  27EE  120A  118A  	fcall	_InitKeypad
  1300  009C                     l5708:
  1301                           
  1302                           ;eeprom.c: 71:      Lcd_Clear();;eeprom.c: 73:      Lcd_Write_String("PASSWORD");
  1303  009C  3001               	movlw	1
  1304  009D  160A  158A  23F9  120A  118A  	fcall	_EEPROM_Read
  1305  00A2  1683               	bsf	3,5	;RP0=1, select bank3
  1306  00A3  1703               	bsf	3,6	;RP1=1, select bank3
  1307  00A4  009D               	movwf	??_main^(0+384)
  1308  00A5  081D               	movf	??_main^(0+384),w
  1309  00A6  00B4               	movwf	main@check4^(0+384)
  1310  00A7                     l5710:
  1311                           
  1312                           ;eeprom.c: 74:      Lcd_Set_Cursor(1,10);
  1313  00A7  160A  158A  2451  120A  118A  	fcall	_GetKey
  1314  00AC  1683               	bsf	3,5	;RP0=1, select bank3
  1315  00AD  1703               	bsf	3,6	;RP1=1, select bank3
  1316  00AE  009D               	movwf	??_main^(0+384)
  1317  00AF  081D               	movf	??_main^(0+384),w
  1318  00B0  00C4               	movwf	main@Key^(0+384)
  1319  00B1                     l5712:
  1320                           
  1321                           ;eeprom.c: 75:      Lcd_Write_String("DOWN: 3");
  1322  00B1  3070               	movlw	112
  1323  00B2  0644               	xorwf	main@Key^(0+384),w
  1324  00B3  1D03               	btfss	3,2
  1325  00B4  28B6               	goto	u9111
  1326  00B5  28B7               	goto	u9110
  1327  00B6                     u9111:
  1328  00B6  28CD               	goto	l5720
  1329  00B7                     u9110:
  1330  00B7                     l5714:
  1331                           
  1332                           ;eeprom.c: 76:      Lcd_Set_Cursor(2,1);;eeprom.c: 77:      Lcd_Write_String("");
  1333  00B7  158B               	bsf	11,3	;volatile
  1334  00B8                     l5716:
  1335                           
  1336                           ;eeprom.c: 78:      check2=0;
  1337  00B8  160A  158A  23EC  120A  118A  	fcall	_Lcd_Clear
  1338                           
  1339                           ;eeprom.c: 79:      check6=1;
  1340  00BD  1683               	bsf	3,5	;RP0=1, select bank1
  1341  00BE  1303               	bcf	3,6	;RP1=0, select bank1
  1342  00BF  01A4               	clrf	Lcd_Set_Cursor@b^(0+128)
  1343  00C0  0AA4               	incf	Lcd_Set_Cursor@b^(0+128),f
  1344  00C1  3001               	movlw	1
  1345  00C2  160A  158A  2531  120A  118A  	fcall	_Lcd_Set_Cursor
  1346  00C7                     l5718:
  1347                           
  1348                           ;eeprom.c: 80:  }
  1349  00C7  307A               	movlw	(low (((STR_30+4)-__stringbase)| (0+32768)))& (0+255)
  1350  00C8  160A  118A  2003  120A  118A  	fcall	_Lcd_Write_String
  1351  00CD                     l5720:
  1352                           
  1353                           ;eeprom.c: 82:  { check5=1;
  1354  00CD  306D               	movlw	109
  1355  00CE  1683               	bsf	3,5	;RP0=1, select bank3
  1356  00CF  1703               	bsf	3,6	;RP1=1, select bank3
  1357  00D0  0644               	xorwf	main@Key^(0+384),w
  1358  00D1  1D03               	btfss	3,2
  1359  00D2  28D4               	goto	u9121
  1360  00D3  28D5               	goto	u9120
  1361  00D4                     u9121:
  1362  00D4  292C               	goto	l5750
  1363  00D5                     u9120:
  1364  00D5                     l5722:
  1365                           
  1366                           ;eeprom.c: 83:             counter=0;;eeprom.c: 84:             Lcd_Clear();
  1367  00D5  118B               	bcf	11,3	;volatile
  1368  00D6                     l5724:
  1369                           
  1370                           ;eeprom.c: 85:             Lcd_Set_Cursor(1,1);
  1371  00D6  160A  158A  23EC  120A  118A  	fcall	_Lcd_Clear
  1372                           
  1373                           ;eeprom.c: 86:             Lcd_Write_String("C: CHOSE PASSWORD");
  1374  00DB  1683               	bsf	3,5	;RP0=1, select bank1
  1375  00DC  1303               	bcf	3,6	;RP1=0, select bank1
  1376  00DD  01A4               	clrf	Lcd_Set_Cursor@b^(0+128)
  1377  00DE  0AA4               	incf	Lcd_Set_Cursor@b^(0+128),f
  1378  00DF  3001               	movlw	1
  1379  00E0  160A  158A  2531  120A  118A  	fcall	_Lcd_Set_Cursor
  1380  00E5                     l5726:
  1381                           
  1382                           ;eeprom.c: 87:             Lcd_Set_Cursor(2,1);
  1383  00E5  3059               	movlw	(low ((STR_4-__stringbase)| (0+32768)))& (0+255)
  1384  00E6  160A  118A  2003  120A  118A  	fcall	_Lcd_Write_String
  1385  00EB                     l5728:
  1386                           
  1387                           ;eeprom.c: 88:             check2=0;
  1388  00EB  3033               	movlw	51
  1389  00EC  1683               	bsf	3,5	;RP0=1, select bank3
  1390  00ED  1703               	bsf	3,6	;RP1=1, select bank3
  1391  00EE  009F               	movwf	(??_main^(0+384)+2)
  1392  00EF  30BB               	movlw	187
  1393  00F0  009E               	movwf	(??_main^(0+384)+1)
  1394  00F1  30DF               	movlw	223
  1395  00F2  009D               	movwf	??_main^(0+384)
  1396  00F3                     u10157:
  1397  00F3  0B9D               	decfsz	??_main^(0+384),f
  1398  00F4  28F3               	goto	u10157
  1399  00F5  0B9E               	decfsz	(??_main^(0+384)+1),f
  1400  00F6  28F3               	goto	u10157
  1401  00F7  0B9F               	decfsz	(??_main^(0+384)+2),f
  1402  00F8  28F3               	goto	u10157
  1403  00F9                     l5730:
  1404                           
  1405                           ;eeprom.c: 89: 
  1406  00F9  160A  158A  23EC  120A  118A  	fcall	_Lcd_Clear
  1407  00FE                     l5732:
  1408                           
  1409                           ;eeprom.c: 90: 
  1410  00FE  1683               	bsf	3,5	;RP0=1, select bank1
  1411  00FF  1303               	bcf	3,6	;RP1=0, select bank1
  1412  0100  01A4               	clrf	Lcd_Set_Cursor@b^(0+128)
  1413  0101  0AA4               	incf	Lcd_Set_Cursor@b^(0+128),f
  1414  0102  3001               	movlw	1
  1415  0103  160A  158A  2531  120A  118A  	fcall	_Lcd_Set_Cursor
  1416  0108                     l5734:
  1417                           
  1418                           ;eeprom.c: 91:  } if(Key=='C'&&check4!='1'&&check3==0&&check5==1)
  1419  0108  3064               	movlw	(low ((STR_1-__stringbase)| (0+32768)))& (0+255)
  1420  0109  160A  118A  2003  120A  118A  	fcall	_Lcd_Write_String
  1421  010E                     l5736:
  1422                           
  1423                           ;eeprom.c: 92:  { down=3;
  1424  010E  1683               	bsf	3,5	;RP0=1, select bank1
  1425  010F  1303               	bcf	3,6	;RP1=0, select bank1
  1426  0110  01A4               	clrf	Lcd_Set_Cursor@b^(0+128)
  1427  0111  0AA4               	incf	Lcd_Set_Cursor@b^(0+128),f
  1428  0112  3002               	movlw	2
  1429  0113  160A  158A  2531  120A  118A  	fcall	_Lcd_Set_Cursor
  1430  0118                     l5738:
  1431                           
  1432                           ;eeprom.c: 93:             check3=1;
  1433  0118  3023               	movlw	(low (((STR_28+16)-__stringbase)| (0+32768)))& (0+255)
  1434  0119  160A  118A  2003  120A  118A  	fcall	_Lcd_Write_String
  1435  011E                     l5740:
  1436                           
  1437                           ;eeprom.c: 94:             char down1=down+'0';
  1438  011E  1683               	bsf	3,5	;RP0=1, select bank3
  1439  011F  1703               	bsf	3,6	;RP1=1, select bank3
  1440  0120  01C0               	clrf	main@check3^(0+384)
  1441  0121  01C1               	clrf	(main@check3+1)^(0+384)
  1442  0122                     l5742:
  1443                           
  1444                           ;eeprom.c: 95:             Lcd_Clear();
  1445  0122  01BA               	clrf	main@check5^(0+384)
  1446  0123  01BB               	clrf	(main@check5+1)^(0+384)
  1447  0124                     l5744:
  1448                           
  1449                           ;eeprom.c: 96:             Lcd_Set_Cursor(1,1);
  1450  0124  01BE               	clrf	main@check1^(0+384)
  1451  0125  01BF               	clrf	(main@check1+1)^(0+384)
  1452  0126                     l5746:
  1453                           
  1454                           ;eeprom.c: 97:             Lcd_Write_String("COMPLETE");
  1455  0126  3001               	movlw	1
  1456  0127  00C2               	movwf	main@check2^(0+384)
  1457  0128  3000               	movlw	0
  1458  0129  00C3               	movwf	(main@check2^(0+384)+1)
  1459  012A                     l5748:
  1460                           
  1461                           ;eeprom.c: 98:             Lcd_Set_Cursor(2,1);
  1462  012A  01C9               	clrf	_counter^(0+384)
  1463  012B  01CA               	clrf	(_counter+1)^(0+384)
  1464  012C                     l5750:
  1465                           
  1466                           ;eeprom.c: 100:             _delay((unsigned long)((2500)*(16000000/4000.0)));
  1467  012C  3031               	movlw	49
  1468  012D  0644               	xorwf	main@Key^(0+384),w
  1469  012E  1903               	btfsc	3,2
  1470  012F  2931               	goto	u9131
  1471  0130  2932               	goto	u9130
  1472  0131                     u9131:
  1473  0131  2968               	goto	l5770
  1474  0132                     u9130:
  1475  0132                     l5752:
  1476  0132  3032               	movlw	50
  1477  0133  0644               	xorwf	main@Key^(0+384),w
  1478  0134  1903               	btfsc	3,2
  1479  0135  2937               	goto	u9141
  1480  0136  2938               	goto	u9140
  1481  0137                     u9141:
  1482  0137  2968               	goto	l5770
  1483  0138                     u9140:
  1484  0138                     l5754:
  1485  0138  3033               	movlw	51
  1486  0139  0644               	xorwf	main@Key^(0+384),w
  1487  013A  1903               	btfsc	3,2
  1488  013B  293D               	goto	u9151
  1489  013C  293E               	goto	u9150
  1490  013D                     u9151:
  1491  013D  2968               	goto	l5770
  1492  013E                     u9150:
  1493  013E                     l5756:
  1494  013E  3034               	movlw	52
  1495  013F  0644               	xorwf	main@Key^(0+384),w
  1496  0140  1903               	btfsc	3,2
  1497  0141  2943               	goto	u9161
  1498  0142  2944               	goto	u9160
  1499  0143                     u9161:
  1500  0143  2968               	goto	l5770
  1501  0144                     u9160:
  1502  0144                     l5758:
  1503  0144  3035               	movlw	53
  1504  0145  0644               	xorwf	main@Key^(0+384),w
  1505  0146  1903               	btfsc	3,2
  1506  0147  2949               	goto	u9171
  1507  0148  294A               	goto	u9170
  1508  0149                     u9171:
  1509  0149  2968               	goto	l5770
  1510  014A                     u9170:
  1511  014A                     l5760:
  1512  014A  3036               	movlw	54
  1513  014B  0644               	xorwf	main@Key^(0+384),w
  1514  014C  1903               	btfsc	3,2
  1515  014D  294F               	goto	u9181
  1516  014E  2950               	goto	u9180
  1517  014F                     u9181:
  1518  014F  2968               	goto	l5770
  1519  0150                     u9180:
  1520  0150                     l5762:
  1521  0150  3037               	movlw	55
  1522  0151  0644               	xorwf	main@Key^(0+384),w
  1523  0152  1903               	btfsc	3,2
  1524  0153  2955               	goto	u9191
  1525  0154  2956               	goto	u9190
  1526  0155                     u9191:
  1527  0155  2968               	goto	l5770
  1528  0156                     u9190:
  1529  0156                     l5764:
  1530  0156  3038               	movlw	56
  1531  0157  0644               	xorwf	main@Key^(0+384),w
  1532  0158  1903               	btfsc	3,2
  1533  0159  295B               	goto	u9201
  1534  015A  295C               	goto	u9200
  1535  015B                     u9201:
  1536  015B  2968               	goto	l5770
  1537  015C                     u9200:
  1538  015C                     l5766:
  1539  015C  3039               	movlw	57
  1540  015D  0644               	xorwf	main@Key^(0+384),w
  1541  015E  1903               	btfsc	3,2
  1542  015F  2961               	goto	u9211
  1543  0160  2962               	goto	u9210
  1544  0161                     u9211:
  1545  0161  2968               	goto	l5770
  1546  0162                     u9210:
  1547  0162                     l5768:
  1548  0162  3030               	movlw	48
  1549  0163  0644               	xorwf	main@Key^(0+384),w
  1550  0164  1D03               	btfss	3,2
  1551  0165  2967               	goto	u9221
  1552  0166  2968               	goto	u9220
  1553  0167                     u9221:
  1554  0167  2981               	goto	l5778
  1555  0168                     u9220:
  1556  0168                     l5770:
  1557  0168  0842               	movf	main@check2^(0+384),w
  1558  0169  0443               	iorwf	(main@check2+1)^(0+384),w
  1559  016A  1D03               	btfss	3,2
  1560  016B  296D               	goto	u9231
  1561  016C  296E               	goto	u9230
  1562  016D                     u9231:
  1563  016D  2981               	goto	l5778
  1564  016E                     u9230:
  1565  016E                     l5772:
  1566                           
  1567                           ;eeprom.c: 101:             int c2=counter;;eeprom.c: 102:             char c1=c2+'0';
  1568  016E  0330               	decf	main@check6^(0+384),w
  1569  016F  0431               	iorwf	(main@check6+1)^(0+384),w
  1570  0170  1D03               	btfss	3,2
  1571  0171  2973               	goto	u9241
  1572  0172  2974               	goto	u9240
  1573  0173                     u9241:
  1574  0173  297B               	goto	l5776
  1575  0174                     u9240:
  1576  0174                     l5774:
  1577                           
  1578                           ;eeprom.c: 103:             EEPROM_Write(0,c1);;eeprom.c: 104:             EEPROM_Write(
      +                          1,'1');
  1579  0174  302A               	movlw	42
  1580  0175  160A  158A  24EE  120A  118A  	fcall	_Lcd_Write_Char
  1581                           
  1582                           ;eeprom.c: 105:             for(int i=0;i<counter;i++)
  1583  017A  2981               	goto	l5778
  1584  017B                     l5776:
  1585                           
  1586                           ;eeprom.c: 107:                 char x=pass[i];;eeprom.c: 108:                 EEPROM_Wr
      +                          ite(i+2,x);
  1587  017B  0844               	movf	main@Key^(0+384),w
  1588  017C  160A  158A  24EE  120A  118A  	fcall	_Lcd_Write_Char
  1589  0181                     l5778:
  1590                           
  1591                           ;eeprom.c: 111:             Lcd_Set_Cursor(1,1);
  1592  0181  302A               	movlw	42
  1593  0182  1683               	bsf	3,5	;RP0=1, select bank3
  1594  0183  1703               	bsf	3,6	;RP1=1, select bank3
  1595  0184  0644               	xorwf	main@Key^(0+384),w
  1596  0185  1D03               	btfss	3,2
  1597  0186  2988               	goto	u9251
  1598  0187  2989               	goto	u9250
  1599  0188                     u9251:
  1600  0188  29E0               	goto	l5806
  1601  0189                     u9250:
  1602  0189                     l5780:
  1603  0189  3031               	movlw	49
  1604  018A  0634               	xorwf	main@check4^(0+384),w
  1605  018B  1D03               	btfss	3,2
  1606  018C  298E               	goto	u9261
  1607  018D  298F               	goto	u9260
  1608  018E                     u9261:
  1609  018E  29E0               	goto	l5806
  1610  018F                     u9260:
  1611  018F                     l5782:
  1612  018F  0840               	movf	main@check3^(0+384),w
  1613  0190  0441               	iorwf	(main@check3+1)^(0+384),w
  1614  0191  1D03               	btfss	3,2
  1615  0192  2994               	goto	u9271
  1616  0193  2995               	goto	u9270
  1617  0194                     u9271:
  1618  0194  29E0               	goto	l5806
  1619  0195                     u9270:
  1620  0195                     l5784:
  1621  0195  083A               	movf	main@check5^(0+384),w
  1622  0196  043B               	iorwf	(main@check5+1)^(0+384),w
  1623  0197  1D03               	btfss	3,2
  1624  0198  299A               	goto	u9281
  1625  0199  299B               	goto	u9280
  1626  019A                     u9281:
  1627  019A  29E0               	goto	l5806
  1628  019B                     u9280:
  1629  019B                     l5786:
  1630                           
  1631                           ;eeprom.c: 112:             Lcd_Write_String("PASSWORD");
  1632  019B  3001               	movlw	1
  1633  019C  00C0               	movwf	main@check3^(0+384)
  1634  019D  3000               	movlw	0
  1635  019E  00C1               	movwf	(main@check3^(0+384)+1)
  1636  019F                     l5788:
  1637                           
  1638                           ;eeprom.c: 113:             Lcd_Set_Cursor(1,10);
  1639  019F  160A  158A  23EC  120A  118A  	fcall	_Lcd_Clear
  1640  01A4                     l5790:
  1641                           
  1642                           ;eeprom.c: 114:             Lcd_Write_String("DOWN :");
  1643  01A4  1683               	bsf	3,5	;RP0=1, select bank1
  1644  01A5  1303               	bcf	3,6	;RP1=0, select bank1
  1645  01A6  01A4               	clrf	Lcd_Set_Cursor@b^(0+128)
  1646  01A7  0AA4               	incf	Lcd_Set_Cursor@b^(0+128),f
  1647  01A8  3001               	movlw	1
  1648  01A9  160A  158A  2531  120A  118A  	fcall	_Lcd_Set_Cursor
  1649  01AE                     l5792:
  1650                           
  1651                           ;eeprom.c: 115:             Lcd_Set_Cursor(1,16);
  1652  01AE  300A               	movlw	(low (((STR_10+9)-__stringbase)| (0+32768)))& (0+255)
  1653  01AF  160A  118A  2003  120A  118A  	fcall	_Lcd_Write_String
  1654  01B4                     l5794:
  1655                           
  1656                           ;eeprom.c: 116:             Lcd_Write_Char(down1);
  1657  01B4  300A               	movlw	10
  1658  01B5  1683               	bsf	3,5	;RP0=1, select bank3
  1659  01B6  1703               	bsf	3,6	;RP1=1, select bank3
  1660  01B7  009D               	movwf	??_main^(0+384)
  1661  01B8  081D               	movf	??_main^(0+384),w
  1662  01B9  1683               	bsf	3,5	;RP0=1, select bank1
  1663  01BA  1303               	bcf	3,6	;RP1=0, select bank1
  1664  01BB  00A4               	movwf	Lcd_Set_Cursor@b^(0+128)
  1665  01BC  3001               	movlw	1
  1666  01BD  160A  158A  2531  120A  118A  	fcall	_Lcd_Set_Cursor
  1667  01C2                     l5796:
  1668                           
  1669                           ;eeprom.c: 117:             Lcd_Set_Cursor(2,1);
  1670  01C2  307F               	movlw	(low ((STR_8-__stringbase)| (0+32768)))& (0+255)
  1671  01C3  160A  118A  2003  120A  118A  	fcall	_Lcd_Write_String
  1672  01C8                     l5798:
  1673                           
  1674                           ;eeprom.c: 118:             Lcd_Write_String("");
  1675  01C8  1683               	bsf	3,5	;RP0=1, select bank1
  1676  01C9  1303               	bcf	3,6	;RP1=0, select bank1
  1677  01CA  01A4               	clrf	Lcd_Set_Cursor@b^(0+128)
  1678  01CB  0AA4               	incf	Lcd_Set_Cursor@b^(0+128),f
  1679  01CC  3002               	movlw	2
  1680  01CD  160A  158A  2531  120A  118A  	fcall	_Lcd_Set_Cursor
  1681  01D2                     l5800:
  1682                           
  1683                           ;eeprom.c: 119:             check1=0;
  1684  01D2  3023               	movlw	(low (((STR_28+16)-__stringbase)| (0+32768)))& (0+255)
  1685  01D3  160A  118A  2003  120A  118A  	fcall	_Lcd_Write_String
  1686  01D8                     l5802:
  1687                           
  1688                           ;eeprom.c: 120:             counter=0;
  1689  01D8  1683               	bsf	3,5	;RP0=1, select bank3
  1690  01D9  1703               	bsf	3,6	;RP1=1, select bank3
  1691  01DA  01C2               	clrf	main@check2^(0+384)
  1692  01DB  01C3               	clrf	(main@check2+1)^(0+384)
  1693  01DC                     l5804:
  1694                           
  1695                           ;eeprom.c: 121:             check2=0;
  1696  01DC  3001               	movlw	1
  1697  01DD  00B0               	movwf	main@check6^(0+384)
  1698  01DE  3000               	movlw	0
  1699  01DF  00B1               	movwf	(main@check6^(0+384)+1)
  1700  01E0                     l5806:
  1701                           
  1702                           ;eeprom.c: 123: 
  1703  01E0  302A               	movlw	42
  1704  01E1  0644               	xorwf	main@Key^(0+384),w
  1705  01E2  1D03               	btfss	3,2
  1706  01E3  29E5               	goto	u9291
  1707  01E4  29E6               	goto	u9290
  1708  01E5                     u9291:
  1709  01E5  2A21               	goto	l5828
  1710  01E6                     u9290:
  1711  01E6                     l5808:
  1712  01E6  3031               	movlw	49
  1713  01E7  0634               	xorwf	main@check4^(0+384),w
  1714  01E8  1903               	btfsc	3,2
  1715  01E9  29EB               	goto	u9301
  1716  01EA  29EC               	goto	u9300
  1717  01EB                     u9301:
  1718  01EB  2A21               	goto	l5828
  1719  01EC                     u9300:
  1720  01EC                     l5810:
  1721  01EC  0840               	movf	main@check3^(0+384),w
  1722  01ED  0441               	iorwf	(main@check3+1)^(0+384),w
  1723  01EE  1D03               	btfss	3,2
  1724  01EF  29F1               	goto	u9311
  1725  01F0  29F2               	goto	u9310
  1726  01F1                     u9311:
  1727  01F1  2A21               	goto	l5828
  1728  01F2                     u9310:
  1729  01F2                     l5812:
  1730  01F2  083A               	movf	main@check5^(0+384),w
  1731  01F3  043B               	iorwf	(main@check5+1)^(0+384),w
  1732  01F4  1D03               	btfss	3,2
  1733  01F5  29F7               	goto	u9321
  1734  01F6  29F8               	goto	u9320
  1735  01F7                     u9321:
  1736  01F7  2A21               	goto	l5828
  1737  01F8                     u9320:
  1738  01F8                     l5814:
  1739                           
  1740                           ;eeprom.c: 124: 
  1741  01F8  3001               	movlw	1
  1742  01F9  00BA               	movwf	main@check5^(0+384)
  1743  01FA  3000               	movlw	0
  1744  01FB  00BB               	movwf	(main@check5^(0+384)+1)
  1745  01FC                     l5816:
  1746                           
  1747                           ;eeprom.c: 125:  }
  1748  01FC  01C9               	clrf	_counter^(0+384)
  1749  01FD  01CA               	clrf	(_counter+1)^(0+384)
  1750  01FE                     l5818:
  1751                           
  1752                           ;eeprom.c: 126:  if(Key=='1'&&check2==0)
  1753  01FE  160A  158A  23EC  120A  118A  	fcall	_Lcd_Clear
  1754  0203                     l5820:
  1755                           
  1756                           ;eeprom.c: 127:  {
  1757  0203  1683               	bsf	3,5	;RP0=1, select bank1
  1758  0204  1303               	bcf	3,6	;RP1=0, select bank1
  1759  0205  01A4               	clrf	Lcd_Set_Cursor@b^(0+128)
  1760  0206  0AA4               	incf	Lcd_Set_Cursor@b^(0+128),f
  1761  0207  3001               	movlw	1
  1762  0208  160A  158A  2531  120A  118A  	fcall	_Lcd_Set_Cursor
  1763  020D                     l5822:
  1764                           
  1765                           ;eeprom.c: 128:      pass[counter]='1';counter++;
  1766  020D  3001               	movlw	(low ((STR_10-__stringbase)| (0+32768)))& (0+255)
  1767  020E  160A  118A  2003  120A  118A  	fcall	_Lcd_Write_String
  1768  0213                     l5824:
  1769                           
  1770                           ;eeprom.c: 129:  }
  1771  0213  1683               	bsf	3,5	;RP0=1, select bank1
  1772  0214  1303               	bcf	3,6	;RP1=0, select bank1
  1773  0215  01A4               	clrf	Lcd_Set_Cursor@b^(0+128)
  1774  0216  0AA4               	incf	Lcd_Set_Cursor@b^(0+128),f
  1775  0217  3002               	movlw	2
  1776  0218  160A  158A  2531  120A  118A  	fcall	_Lcd_Set_Cursor
  1777  021D                     l5826:
  1778                           
  1779                           ;eeprom.c: 130:  if(Key=='2'&&check2==0)
  1780  021D  1683               	bsf	3,5	;RP0=1, select bank3
  1781  021E  1703               	bsf	3,6	;RP1=1, select bank3
  1782  021F  01C2               	clrf	main@check2^(0+384)
  1783  0220  01C3               	clrf	(main@check2+1)^(0+384)
  1784  0221                     l5828:
  1785  0221  3043               	movlw	67
  1786  0222  0644               	xorwf	main@Key^(0+384),w
  1787  0223  1D03               	btfss	3,2
  1788  0224  2A26               	goto	u9331
  1789  0225  2A27               	goto	u9330
  1790  0226                     u9331:
  1791  0226  2B2C               	goto	l5892
  1792  0227                     u9330:
  1793  0227                     l5830:
  1794  0227  3031               	movlw	49
  1795  0228  0634               	xorwf	main@check4^(0+384),w
  1796  0229  1903               	btfsc	3,2
  1797  022A  2A2C               	goto	u9341
  1798  022B  2A2D               	goto	u9340
  1799  022C                     u9341:
  1800  022C  2B2C               	goto	l5892
  1801  022D                     u9340:
  1802  022D                     l5832:
  1803  022D  0840               	movf	main@check3^(0+384),w
  1804  022E  0441               	iorwf	(main@check3+1)^(0+384),w
  1805  022F  1D03               	btfss	3,2
  1806  0230  2A32               	goto	u9351
  1807  0231  2A33               	goto	u9350
  1808  0232                     u9351:
  1809  0232  2B2C               	goto	l5892
  1810  0233                     u9350:
  1811  0233                     l5834:
  1812  0233  033A               	decf	main@check5^(0+384),w
  1813  0234  043B               	iorwf	(main@check5+1)^(0+384),w
  1814  0235  1D03               	btfss	3,2
  1815  0236  2A38               	goto	u9361
  1816  0237  2A39               	goto	u9360
  1817  0238                     u9361:
  1818  0238  2B2C               	goto	l5892
  1819  0239                     u9360:
  1820  0239                     l5836:
  1821                           
  1822                           ;eeprom.c: 134:  if(Key=='3'&&check2==0)
  1823  0239  3003               	movlw	3
  1824  023A  00BC               	movwf	main@down^(0+384)
  1825  023B  3000               	movlw	0
  1826  023C  00BD               	movwf	(main@down^(0+384)+1)
  1827                           
  1828                           ;eeprom.c: 135:  {
  1829  023D  3001               	movlw	1
  1830  023E  00C0               	movwf	main@check3^(0+384)
  1831  023F  3000               	movlw	0
  1832  0240  00C1               	movwf	(main@check3^(0+384)+1)
  1833  0241                     l5838:
  1834                           
  1835                           ;eeprom.c: 136:      pass[counter]='3';counter++;
  1836  0241  3033               	movlw	51
  1837  0242  009D               	movwf	??_main^(0+384)
  1838  0243  081D               	movf	??_main^(0+384),w
  1839  0244  00A5               	movwf	main@down1^(0+384)
  1840  0245                     l5840:
  1841                           
  1842                           ;eeprom.c: 137:  }
  1843  0245  160A  158A  23EC  120A  118A  	fcall	_Lcd_Clear
  1844  024A                     l5842:
  1845                           
  1846                           ;eeprom.c: 138:  if(Key=='4'&&check2==0)
  1847  024A  1683               	bsf	3,5	;RP0=1, select bank1
  1848  024B  1303               	bcf	3,6	;RP1=0, select bank1
  1849  024C  01A4               	clrf	Lcd_Set_Cursor@b^(0+128)
  1850  024D  0AA4               	incf	Lcd_Set_Cursor@b^(0+128),f
  1851  024E  3001               	movlw	1
  1852  024F  160A  158A  2531  120A  118A  	fcall	_Lcd_Set_Cursor
  1853  0254                     l5844:
  1854                           
  1855                           ;eeprom.c: 139:  {
  1856  0254  306D               	movlw	(low ((STR_11-__stringbase)| (0+32768)))& (0+255)
  1857  0255  160A  118A  2003  120A  118A  	fcall	_Lcd_Write_String
  1858  025A                     l5846:
  1859                           
  1860                           ;eeprom.c: 140:      pass[counter]='4';counter++;
  1861  025A  1683               	bsf	3,5	;RP0=1, select bank1
  1862  025B  1303               	bcf	3,6	;RP1=0, select bank1
  1863  025C  01A4               	clrf	Lcd_Set_Cursor@b^(0+128)
  1864  025D  0AA4               	incf	Lcd_Set_Cursor@b^(0+128),f
  1865  025E  3002               	movlw	2
  1866  025F  160A  158A  2531  120A  118A  	fcall	_Lcd_Set_Cursor
  1867  0264                     l5848:
  1868                           
  1869                           ;eeprom.c: 141:  }
  1870  0264  3033               	movlw	(low ((STR_12-__stringbase)| (0+32768)))& (0+255)
  1871  0265  160A  118A  2003  120A  118A  	fcall	_Lcd_Write_String
  1872  026A                     l5850:
  1873                           
  1874                           ;eeprom.c: 142:   if(Key=='5'&&check2==0)
  1875  026A  3033               	movlw	51
  1876  026B  1683               	bsf	3,5	;RP0=1, select bank3
  1877  026C  1703               	bsf	3,6	;RP1=1, select bank3
  1878  026D  009F               	movwf	(??_main^(0+384)+2)
  1879  026E  30BB               	movlw	187
  1880  026F  009E               	movwf	(??_main^(0+384)+1)
  1881  0270  30DF               	movlw	223
  1882  0271  009D               	movwf	??_main^(0+384)
  1883  0272                     u10167:
  1884  0272  0B9D               	decfsz	??_main^(0+384),f
  1885  0273  2A72               	goto	u10167
  1886  0274  0B9E               	decfsz	(??_main^(0+384)+1),f
  1887  0275  2A72               	goto	u10167
  1888  0276  0B9F               	decfsz	(??_main^(0+384)+2),f
  1889  0277  2A72               	goto	u10167
  1890  0278                     l5852:
  1891                           
  1892                           ;eeprom.c: 143:  {
  1893  0278  1683               	bsf	3,5	;RP0=1, select bank3
  1894  0279  1703               	bsf	3,6	;RP1=1, select bank3
  1895  027A  084A               	movf	(_counter+1)^(0+384),w
  1896  027B  00A2               	movwf	(main@c2+1)^(0+384)
  1897  027C  0849               	movf	_counter^(0+384),w
  1898  027D  00A1               	movwf	main@c2^(0+384)
  1899  027E                     l5854:
  1900                           
  1901                           ;eeprom.c: 144:      pass[counter]='5';counter++;
  1902  027E  0821               	movf	main@c2^(0+384),w
  1903  027F  3E30               	addlw	48
  1904  0280  009D               	movwf	??_main^(0+384)
  1905  0281  081D               	movf	??_main^(0+384),w
  1906  0282  00A6               	movwf	main@c1^(0+384)
  1907  0283                     l5856:
  1908                           
  1909                           ;eeprom.c: 145:  }
  1910  0283  0826               	movf	main@c1^(0+384),w
  1911  0284  009D               	movwf	??_main^(0+384)
  1912  0285  081D               	movf	??_main^(0+384),w
  1913  0286  1683               	bsf	3,5	;RP0=1, select bank1
  1914  0287  1303               	bcf	3,6	;RP1=0, select bank1
  1915  0288  00A0               	movwf	EEPROM_Write@Data^(0+128)
  1916  0289  3000               	movlw	0
  1917  028A  160A  158A  24A4  120A  118A  	fcall	_EEPROM_Write
  1918  028F                     l5858:
  1919                           
  1920                           ;eeprom.c: 146:   if(Key=='6'&&check2==0)
  1921  028F  3031               	movlw	49
  1922  0290  1683               	bsf	3,5	;RP0=1, select bank3
  1923  0291  1703               	bsf	3,6	;RP1=1, select bank3
  1924  0292  009D               	movwf	??_main^(0+384)
  1925  0293  081D               	movf	??_main^(0+384),w
  1926  0294  1683               	bsf	3,5	;RP0=1, select bank1
  1927  0295  1303               	bcf	3,6	;RP1=0, select bank1
  1928  0296  00A0               	movwf	EEPROM_Write@Data^(0+128)
  1929  0297  3001               	movlw	1
  1930  0298  160A  158A  24A4  120A  118A  	fcall	_EEPROM_Write
  1931  029D                     l5860:
  1932                           
  1933                           ;eeprom.c: 147:  {
  1934  029D  1683               	bsf	3,5	;RP0=1, select bank3
  1935  029E  1703               	bsf	3,6	;RP1=1, select bank3
  1936  029F  01B5               	clrf	main@i^(0+384)
  1937  02A0  01B6               	clrf	(main@i+1)^(0+384)
  1938  02A1  2AC3               	goto	l5868
  1939  02A2                     l5862:
  1940                           
  1941                           ;eeprom.c: 148:      pass[counter]='6';counter++;;eeprom.c: 149:  }
  1942  02A2  1683               	bsf	3,5	;RP0=1, select bank3
  1943  02A3  1703               	bsf	3,6	;RP1=1, select bank3
  1944  02A4  0835               	movf	main@i^(0+384),w
  1945  02A5  3ECB               	addlw	(low (_pass| (0+256)))& (0+255)
  1946  02A6  0084               	movwf	4
  1947  02A7  1783               	bsf	3,7	;select IRP bank3
  1948  02A8  0800               	movf	0,w
  1949  02A9  009D               	movwf	??_main^(0+384)
  1950  02AA  081D               	movf	??_main^(0+384),w
  1951  02AB  00A7               	movwf	main@x^(0+384)
  1952  02AC                     l5864:
  1953                           
  1954                           ;eeprom.c: 150:   if(Key=='7'&&check2==0)
  1955  02AC  0827               	movf	main@x^(0+384),w
  1956  02AD  009D               	movwf	??_main^(0+384)
  1957  02AE  081D               	movf	??_main^(0+384),w
  1958  02AF  1683               	bsf	3,5	;RP0=1, select bank1
  1959  02B0  1303               	bcf	3,6	;RP1=0, select bank1
  1960  02B1  00A0               	movwf	EEPROM_Write@Data^(0+128)
  1961  02B2  1683               	bsf	3,5	;RP0=1, select bank3
  1962  02B3  1703               	bsf	3,6	;RP1=1, select bank3
  1963  02B4  0835               	movf	main@i^(0+384),w
  1964  02B5  3E02               	addlw	2
  1965  02B6  160A  158A  24A4  120A  118A  	fcall	_EEPROM_Write
  1966  02BB                     l5866:
  1967                           
  1968                           ;eeprom.c: 151:  {
  1969  02BB  3001               	movlw	1
  1970  02BC  1683               	bsf	3,5	;RP0=1, select bank3
  1971  02BD  1703               	bsf	3,6	;RP1=1, select bank3
  1972  02BE  07B5               	addwf	main@i^(0+384),f
  1973  02BF  1803               	skipnc
  1974  02C0  0AB6               	incf	(main@i+1)^(0+384),f
  1975  02C1  3000               	movlw	0
  1976  02C2  07B6               	addwf	(main@i+1)^(0+384),f
  1977  02C3                     l5868:
  1978  02C3  0836               	movf	(main@i+1)^(0+384),w
  1979  02C4  3A80               	xorlw	128
  1980  02C5  009D               	movwf	??_main^(0+384)
  1981  02C6  084A               	movf	(_counter+1)^(0+384),w
  1982  02C7  3A80               	xorlw	128
  1983  02C8  021D               	subwf	??_main^(0+384),w
  1984  02C9  1D03               	skipz
  1985  02CA  2ACD               	goto	u9375
  1986  02CB  0849               	movf	_counter^(0+384),w
  1987  02CC  0235               	subwf	main@i^(0+384),w
  1988  02CD                     u9375:
  1989  02CD  1C03               	skipc
  1990  02CE  2AD0               	goto	u9371
  1991  02CF  2AD1               	goto	u9370
  1992  02D0                     u9371:
  1993  02D0  2AA2               	goto	l5862
  1994  02D1                     u9370:
  1995  02D1                     l5870:
  1996                           
  1997                           ;eeprom.c: 152:      pass[counter]='7';counter++;
  1998  02D1  160A  158A  23EC  120A  118A  	fcall	_Lcd_Clear
  1999                           
  2000                           ;eeprom.c: 153:  }
  2001  02D6  1683               	bsf	3,5	;RP0=1, select bank1
  2002  02D7  1303               	bcf	3,6	;RP1=0, select bank1
  2003  02D8  01A4               	clrf	Lcd_Set_Cursor@b^(0+128)
  2004  02D9  0AA4               	incf	Lcd_Set_Cursor@b^(0+128),f
  2005  02DA  3001               	movlw	1
  2006  02DB  160A  158A  2531  120A  118A  	fcall	_Lcd_Set_Cursor
  2007  02E0                     l5872:
  2008                           
  2009                           ;eeprom.c: 154:   if(Key=='8'&&check2==0)
  2010  02E0  300A               	movlw	(low (((STR_10+9)-__stringbase)| (0+32768)))& (0+255)
  2011  02E1  160A  118A  2003  120A  118A  	fcall	_Lcd_Write_String
  2012  02E6                     l5874:
  2013                           
  2014                           ;eeprom.c: 155:  {
  2015  02E6  300A               	movlw	10
  2016  02E7  1683               	bsf	3,5	;RP0=1, select bank3
  2017  02E8  1703               	bsf	3,6	;RP1=1, select bank3
  2018  02E9  009D               	movwf	??_main^(0+384)
  2019  02EA  081D               	movf	??_main^(0+384),w
  2020  02EB  1683               	bsf	3,5	;RP0=1, select bank1
  2021  02EC  1303               	bcf	3,6	;RP1=0, select bank1
  2022  02ED  00A4               	movwf	Lcd_Set_Cursor@b^(0+128)
  2023  02EE  3001               	movlw	1
  2024  02EF  160A  158A  2531  120A  118A  	fcall	_Lcd_Set_Cursor
  2025                           
  2026                           ;eeprom.c: 156:      pass[counter]='8';counter++;
  2027  02F4  3087               	movlw	(low ((STR_14-__stringbase)| (0+32768)))& (0+255)
  2028  02F5  160A  118A  2003  120A  118A  	fcall	_Lcd_Write_String
  2029  02FA                     l5876:
  2030                           
  2031                           ;eeprom.c: 157:  }
  2032  02FA  3010               	movlw	16
  2033  02FB  1683               	bsf	3,5	;RP0=1, select bank3
  2034  02FC  1703               	bsf	3,6	;RP1=1, select bank3
  2035  02FD  009D               	movwf	??_main^(0+384)
  2036  02FE  081D               	movf	??_main^(0+384),w
  2037  02FF  1683               	bsf	3,5	;RP0=1, select bank1
  2038  0300  1303               	bcf	3,6	;RP1=0, select bank1
  2039  0301  00A4               	movwf	Lcd_Set_Cursor@b^(0+128)
  2040  0302  3001               	movlw	1
  2041  0303  160A  158A  2531  120A  118A  	fcall	_Lcd_Set_Cursor
  2042  0308                     l5878:
  2043                           
  2044                           ;eeprom.c: 158:   if(Key=='9'&&check2==0)
  2045  0308  1683               	bsf	3,5	;RP0=1, select bank3
  2046  0309  1703               	bsf	3,6	;RP1=1, select bank3
  2047  030A  0825               	movf	main@down1^(0+384),w
  2048  030B  160A  158A  24EE  120A  118A  	fcall	_Lcd_Write_Char
  2049  0310                     l5880:
  2050                           
  2051                           ;eeprom.c: 159:  {
  2052  0310  1683               	bsf	3,5	;RP0=1, select bank1
  2053  0311  1303               	bcf	3,6	;RP1=0, select bank1
  2054  0312  01A4               	clrf	Lcd_Set_Cursor@b^(0+128)
  2055  0313  0AA4               	incf	Lcd_Set_Cursor@b^(0+128),f
  2056  0314  3002               	movlw	2
  2057  0315  160A  158A  2531  120A  118A  	fcall	_Lcd_Set_Cursor
  2058  031A                     l5882:
  2059                           
  2060                           ;eeprom.c: 160:      pass[counter]='9';counter++;
  2061  031A  3023               	movlw	(low (((STR_28+16)-__stringbase)| (0+32768)))& (0+255)
  2062  031B  160A  118A  2003  120A  118A  	fcall	_Lcd_Write_String
  2063  0320                     l5884:
  2064                           
  2065                           ;eeprom.c: 161:  }
  2066  0320  1683               	bsf	3,5	;RP0=1, select bank3
  2067  0321  1703               	bsf	3,6	;RP1=1, select bank3
  2068  0322  01BE               	clrf	main@check1^(0+384)
  2069  0323  01BF               	clrf	(main@check1+1)^(0+384)
  2070  0324                     l5886:
  2071                           
  2072                           ;eeprom.c: 162: 
  2073  0324  01C9               	clrf	_counter^(0+384)
  2074  0325  01CA               	clrf	(_counter+1)^(0+384)
  2075  0326                     l5888:
  2076                           
  2077                           ;eeprom.c: 163:   if(Key=='D'&&check2==0&&check1==0&&check3==1)
  2078  0326  01C2               	clrf	main@check2^(0+384)
  2079  0327  01C3               	clrf	(main@check2+1)^(0+384)
  2080  0328                     l5890:
  2081                           
  2082                           ;eeprom.c: 164:  { counter=0;
  2083  0328  3001               	movlw	1
  2084  0329  00B0               	movwf	main@check6^(0+384)
  2085  032A  3000               	movlw	0
  2086  032B  00B1               	movwf	(main@check6^(0+384)+1)
  2087  032C                     l5892:
  2088                           
  2089                           ;eeprom.c: 168:             Lcd_Write_String("PASSWORD");
  2090  032C  3031               	movlw	49
  2091  032D  0644               	xorwf	main@Key^(0+384),w
  2092  032E  1D03               	btfss	3,2
  2093  032F  2B31               	goto	u9381
  2094  0330  2B32               	goto	u9380
  2095  0331                     u9381:
  2096  0331  2B46               	goto	l5900
  2097  0332                     u9380:
  2098  0332                     l5894:
  2099  0332  0842               	movf	main@check2^(0+384),w
  2100  0333  0443               	iorwf	(main@check2+1)^(0+384),w
  2101  0334  1D03               	btfss	3,2
  2102  0335  2B37               	goto	u9391
  2103  0336  2B38               	goto	u9390
  2104  0337                     u9391:
  2105  0337  2B46               	goto	l5900
  2106  0338                     u9390:
  2107  0338                     l5896:
  2108                           
  2109                           ;eeprom.c: 169:             Lcd_Set_Cursor(1,10);;eeprom.c: 170:             Lcd_Write_S
      +                          tring("DOWN :");
  2110  0338  3031               	movlw	49
  2111  0339  009D               	movwf	??_main^(0+384)
  2112  033A  0849               	movf	_counter^(0+384),w
  2113  033B  3ECB               	addlw	(low (_pass| (0+256)))& (0+255)
  2114  033C  0084               	movwf	4
  2115  033D  081D               	movf	??_main^(0+384),w
  2116  033E  1783               	bsf	3,7	;select IRP bank3
  2117  033F  0080               	movwf	0
  2118  0340                     l5898:
  2119  0340  3001               	movlw	1
  2120  0341  07C9               	addwf	_counter^(0+384),f
  2121  0342  1803               	skipnc
  2122  0343  0ACA               	incf	(_counter+1)^(0+384),f
  2123  0344  3000               	movlw	0
  2124  0345  07CA               	addwf	(_counter+1)^(0+384),f
  2125  0346                     l5900:
  2126                           
  2127                           ;eeprom.c: 172:             Lcd_Write_Char(down1);
  2128  0346  3032               	movlw	50
  2129  0347  0644               	xorwf	main@Key^(0+384),w
  2130  0348  1D03               	btfss	3,2
  2131  0349  2B4B               	goto	u9401
  2132  034A  2B4C               	goto	u9400
  2133  034B                     u9401:
  2134  034B  2B60               	goto	l5908
  2135  034C                     u9400:
  2136  034C                     l5902:
  2137  034C  0842               	movf	main@check2^(0+384),w
  2138  034D  0443               	iorwf	(main@check2+1)^(0+384),w
  2139  034E  1D03               	btfss	3,2
  2140  034F  2B51               	goto	u9411
  2141  0350  2B52               	goto	u9410
  2142  0351                     u9411:
  2143  0351  2B60               	goto	l5908
  2144  0352                     u9410:
  2145  0352                     l5904:
  2146                           
  2147                           ;eeprom.c: 173:             Lcd_Set_Cursor(2,1);;eeprom.c: 174:             Lcd_Write_St
      +                          ring("");
  2148  0352  3032               	movlw	50
  2149  0353  009D               	movwf	??_main^(0+384)
  2150  0354  0849               	movf	_counter^(0+384),w
  2151  0355  3ECB               	addlw	(low (_pass| (0+256)))& (0+255)
  2152  0356  0084               	movwf	4
  2153  0357  081D               	movf	??_main^(0+384),w
  2154  0358  1783               	bsf	3,7	;select IRP bank3
  2155  0359  0080               	movwf	0
  2156  035A                     l5906:
  2157  035A  3001               	movlw	1
  2158  035B  07C9               	addwf	_counter^(0+384),f
  2159  035C  1803               	skipnc
  2160  035D  0ACA               	incf	(_counter+1)^(0+384),f
  2161  035E  3000               	movlw	0
  2162  035F  07CA               	addwf	(_counter+1)^(0+384),f
  2163  0360                     l5908:
  2164                           
  2165                           ;eeprom.c: 176:    if(Key=='D'&&check2==0&&check1==0&&check3==0&&check5==1)
  2166  0360  3033               	movlw	51
  2167  0361  0644               	xorwf	main@Key^(0+384),w
  2168  0362  1D03               	btfss	3,2
  2169  0363  2B65               	goto	u9421
  2170  0364  2B66               	goto	u9420
  2171  0365                     u9421:
  2172  0365  2B7A               	goto	l5916
  2173  0366                     u9420:
  2174  0366                     l5910:
  2175  0366  0842               	movf	main@check2^(0+384),w
  2176  0367  0443               	iorwf	(main@check2+1)^(0+384),w
  2177  0368  1D03               	btfss	3,2
  2178  0369  2B6B               	goto	u9431
  2179  036A  2B6C               	goto	u9430
  2180  036B                     u9431:
  2181  036B  2B7A               	goto	l5916
  2182  036C                     u9430:
  2183  036C                     l5912:
  2184                           
  2185                           ;eeprom.c: 177:  { counter=0;;eeprom.c: 178:             Lcd_Clear();
  2186  036C  3033               	movlw	51
  2187  036D  009D               	movwf	??_main^(0+384)
  2188  036E  0849               	movf	_counter^(0+384),w
  2189  036F  3ECB               	addlw	(low (_pass| (0+256)))& (0+255)
  2190  0370  0084               	movwf	4
  2191  0371  081D               	movf	??_main^(0+384),w
  2192  0372  1783               	bsf	3,7	;select IRP bank3
  2193  0373  0080               	movwf	0
  2194  0374                     l5914:
  2195  0374  3001               	movlw	1
  2196  0375  07C9               	addwf	_counter^(0+384),f
  2197  0376  1803               	skipnc
  2198  0377  0ACA               	incf	(_counter+1)^(0+384),f
  2199  0378  3000               	movlw	0
  2200  0379  07CA               	addwf	(_counter+1)^(0+384),f
  2201  037A                     l5916:
  2202                           
  2203                           ;eeprom.c: 180:             Lcd_Write_String("C: CHOSE PASSWORD");
  2204  037A  3034               	movlw	52
  2205  037B  0644               	xorwf	main@Key^(0+384),w
  2206  037C  1D03               	btfss	3,2
  2207  037D  2B7F               	goto	u9441
  2208  037E  2B80               	goto	u9440
  2209  037F                     u9441:
  2210  037F  2B94               	goto	l5924
  2211  0380                     u9440:
  2212  0380                     l5918:
  2213  0380  0842               	movf	main@check2^(0+384),w
  2214  0381  0443               	iorwf	(main@check2+1)^(0+384),w
  2215  0382  1D03               	btfss	3,2
  2216  0383  2B85               	goto	u9451
  2217  0384  2B86               	goto	u9450
  2218  0385                     u9451:
  2219  0385  2B94               	goto	l5924
  2220  0386                     u9450:
  2221  0386                     l5920:
  2222                           
  2223                           ;eeprom.c: 181:             Lcd_Set_Cursor(2,1);;eeprom.c: 182:             check2=0;
  2224  0386  3034               	movlw	52
  2225  0387  009D               	movwf	??_main^(0+384)
  2226  0388  0849               	movf	_counter^(0+384),w
  2227  0389  3ECB               	addlw	(low (_pass| (0+256)))& (0+255)
  2228  038A  0084               	movwf	4
  2229  038B  081D               	movf	??_main^(0+384),w
  2230  038C  1783               	bsf	3,7	;select IRP bank3
  2231  038D  0080               	movwf	0
  2232  038E                     l5922:
  2233  038E  3001               	movlw	1
  2234  038F  07C9               	addwf	_counter^(0+384),f
  2235  0390  1803               	skipnc
  2236  0391  0ACA               	incf	(_counter+1)^(0+384),f
  2237  0392  3000               	movlw	0
  2238  0393  07CA               	addwf	(_counter+1)^(0+384),f
  2239  0394                     l5924:
  2240                           
  2241                           ;eeprom.c: 184:  }
  2242  0394  3035               	movlw	53
  2243  0395  0644               	xorwf	main@Key^(0+384),w
  2244  0396  1D03               	btfss	3,2
  2245  0397  2B99               	goto	u9461
  2246  0398  2B9A               	goto	u9460
  2247  0399                     u9461:
  2248  0399  2BAE               	goto	l5932
  2249  039A                     u9460:
  2250  039A                     l5926:
  2251  039A  0842               	movf	main@check2^(0+384),w
  2252  039B  0443               	iorwf	(main@check2+1)^(0+384),w
  2253  039C  1D03               	btfss	3,2
  2254  039D  2B9F               	goto	u9471
  2255  039E  2BA0               	goto	u9470
  2256  039F                     u9471:
  2257  039F  2BAE               	goto	l5932
  2258  03A0                     u9470:
  2259  03A0                     l5928:
  2260                           
  2261                           ;eeprom.c: 185:    if(Key=='D'&&check2==0&&check1==1&&check3==1);eeprom.c: 186:  { count
      +                          er=0;
  2262  03A0  3035               	movlw	53
  2263  03A1  009D               	movwf	??_main^(0+384)
  2264  03A2  0849               	movf	_counter^(0+384),w
  2265  03A3  3ECB               	addlw	(low (_pass| (0+256)))& (0+255)
  2266  03A4  0084               	movwf	4
  2267  03A5  081D               	movf	??_main^(0+384),w
  2268  03A6  1783               	bsf	3,7	;select IRP bank3
  2269  03A7  0080               	movwf	0
  2270  03A8                     l5930:
  2271  03A8  3001               	movlw	1
  2272  03A9  07C9               	addwf	_counter^(0+384),f
  2273  03AA  1803               	skipnc
  2274  03AB  0ACA               	incf	(_counter+1)^(0+384),f
  2275  03AC  3000               	movlw	0
  2276  03AD  07CA               	addwf	(_counter+1)^(0+384),f
  2277  03AE                     l5932:
  2278                           
  2279                           ;eeprom.c: 188:             Lcd_Set_Cursor(1,1);
  2280  03AE  3036               	movlw	54
  2281  03AF  0644               	xorwf	main@Key^(0+384),w
  2282  03B0  1D03               	btfss	3,2
  2283  03B1  2BB3               	goto	u9481
  2284  03B2  2BB4               	goto	u9480
  2285  03B3                     u9481:
  2286  03B3  2BC8               	goto	l5940
  2287  03B4                     u9480:
  2288  03B4                     l5934:
  2289  03B4  0842               	movf	main@check2^(0+384),w
  2290  03B5  0443               	iorwf	(main@check2+1)^(0+384),w
  2291  03B6  1D03               	btfss	3,2
  2292  03B7  2BB9               	goto	u9491
  2293  03B8  2BBA               	goto	u9490
  2294  03B9                     u9491:
  2295  03B9  2BC8               	goto	l5940
  2296  03BA                     u9490:
  2297  03BA                     l5936:
  2298                           
  2299                           ;eeprom.c: 189:             Lcd_Write_String("NEW PASSWORD");;eeprom.c: 190:            
      +                           Lcd_Set_Cursor(2,1);
  2300  03BA  3036               	movlw	54
  2301  03BB  009D               	movwf	??_main^(0+384)
  2302  03BC  0849               	movf	_counter^(0+384),w
  2303  03BD  3ECB               	addlw	(low (_pass| (0+256)))& (0+255)
  2304  03BE  0084               	movwf	4
  2305  03BF  081D               	movf	??_main^(0+384),w
  2306  03C0  1783               	bsf	3,7	;select IRP bank3
  2307  03C1  0080               	movwf	0
  2308  03C2                     l5938:
  2309  03C2  3001               	movlw	1
  2310  03C3  07C9               	addwf	_counter^(0+384),f
  2311  03C4  1803               	skipnc
  2312  03C5  0ACA               	incf	(_counter+1)^(0+384),f
  2313  03C6  3000               	movlw	0
  2314  03C7  07CA               	addwf	(_counter+1)^(0+384),f
  2315  03C8                     l5940:
  2316                           
  2317                           ;eeprom.c: 192:  }
  2318  03C8  3037               	movlw	55
  2319  03C9  0644               	xorwf	main@Key^(0+384),w
  2320  03CA  1D03               	btfss	3,2
  2321  03CB  2BCD               	goto	u9501
  2322  03CC  2BCE               	goto	u9500
  2323  03CD                     u9501:
  2324  03CD  2BE2               	goto	l5948
  2325  03CE                     u9500:
  2326  03CE                     l5942:
  2327  03CE  0842               	movf	main@check2^(0+384),w
  2328  03CF  0443               	iorwf	(main@check2+1)^(0+384),w
  2329  03D0  1D03               	btfss	3,2
  2330  03D1  2BD3               	goto	u9511
  2331  03D2  2BD4               	goto	u9510
  2332  03D3                     u9511:
  2333  03D3  2BE2               	goto	l5948
  2334  03D4                     u9510:
  2335  03D4                     l5944:
  2336                           
  2337                           ;eeprom.c: 193: ;eeprom.c: 194:  if(Key=='A'&&check1==1)
  2338  03D4  3037               	movlw	55
  2339  03D5  009D               	movwf	??_main^(0+384)
  2340  03D6  0849               	movf	_counter^(0+384),w
  2341  03D7  3ECB               	addlw	(low (_pass| (0+256)))& (0+255)
  2342  03D8  0084               	movwf	4
  2343  03D9  081D               	movf	??_main^(0+384),w
  2344  03DA  1783               	bsf	3,7	;select IRP bank3
  2345  03DB  0080               	movwf	0
  2346  03DC                     l5946:
  2347  03DC  3001               	movlw	1
  2348  03DD  07C9               	addwf	_counter^(0+384),f
  2349  03DE  1803               	skipnc
  2350  03DF  0ACA               	incf	(_counter+1)^(0+384),f
  2351  03E0  3000               	movlw	0
  2352  03E1  07CA               	addwf	(_counter+1)^(0+384),f
  2353  03E2                     l5948:
  2354                           
  2355                           ;eeprom.c: 196:             Lcd_Clear();
  2356  03E2  3038               	movlw	56
  2357  03E3  0644               	xorwf	main@Key^(0+384),w
  2358  03E4  1D03               	btfss	3,2
  2359  03E5  2BE7               	goto	u9521
  2360  03E6  2BE8               	goto	u9520
  2361  03E7                     u9521:
  2362  03E7  2BFC               	goto	l5956
  2363  03E8                     u9520:
  2364  03E8                     l5950:
  2365  03E8  0842               	movf	main@check2^(0+384),w
  2366  03E9  0443               	iorwf	(main@check2+1)^(0+384),w
  2367  03EA  1D03               	btfss	3,2
  2368  03EB  2BED               	goto	u9531
  2369  03EC  2BEE               	goto	u9530
  2370  03ED                     u9531:
  2371  03ED  2BFC               	goto	l5956
  2372  03EE                     u9530:
  2373  03EE                     l5952:
  2374                           
  2375                           ;eeprom.c: 197:             Lcd_Set_Cursor(1,1);;eeprom.c: 198:             Lcd_Write_St
      +                          ring("NEW PASSWORD");
  2376  03EE  3038               	movlw	56
  2377  03EF  009D               	movwf	??_main^(0+384)
  2378  03F0  0849               	movf	_counter^(0+384),w
  2379  03F1  3ECB               	addlw	(low (_pass| (0+256)))& (0+255)
  2380  03F2  0084               	movwf	4
  2381  03F3  081D               	movf	??_main^(0+384),w
  2382  03F4  1783               	bsf	3,7	;select IRP bank3
  2383  03F5  0080               	movwf	0
  2384  03F6                     l5954:
  2385  03F6  3001               	movlw	1
  2386  03F7  07C9               	addwf	_counter^(0+384),f
  2387  03F8  1803               	skipnc
  2388  03F9  0ACA               	incf	(_counter+1)^(0+384),f
  2389  03FA  3000               	movlw	0
  2390  03FB  07CA               	addwf	(_counter+1)^(0+384),f
  2391  03FC                     l5956:
  2392                           
  2393                           ;eeprom.c: 200:             check2=0;
  2394  03FC  3039               	movlw	57
  2395  03FD  0644               	xorwf	main@Key^(0+384),w
  2396  03FE  1D03               	btfss	3,2
  2397  03FF  2C01               	goto	u9541
  2398  0400  2C02               	goto	u9540
  2399  0401                     u9541:
  2400  0401  2C16               	goto	l5964
  2401  0402                     u9540:
  2402  0402                     l5958:
  2403  0402  0842               	movf	main@check2^(0+384),w
  2404  0403  0443               	iorwf	(main@check2+1)^(0+384),w
  2405  0404  1D03               	btfss	3,2
  2406  0405  2C07               	goto	u9551
  2407  0406  2C08               	goto	u9550
  2408  0407                     u9551:
  2409  0407  2C16               	goto	l5964
  2410  0408                     u9550:
  2411  0408                     l5960:
  2412                           
  2413                           ;eeprom.c: 201:             check6=0;;eeprom.c: 202: 
  2414  0408  3039               	movlw	57
  2415  0409  009D               	movwf	??_main^(0+384)
  2416  040A  0849               	movf	_counter^(0+384),w
  2417  040B  3ECB               	addlw	(low (_pass| (0+256)))& (0+255)
  2418  040C  0084               	movwf	4
  2419  040D  081D               	movf	??_main^(0+384),w
  2420  040E  1783               	bsf	3,7	;select IRP bank3
  2421  040F  0080               	movwf	0
  2422  0410                     l5962:
  2423  0410  3001               	movlw	1
  2424  0411  07C9               	addwf	_counter^(0+384),f
  2425  0412  1803               	skipnc
  2426  0413  0ACA               	incf	(_counter+1)^(0+384),f
  2427  0414  3000               	movlw	0
  2428  0415  07CA               	addwf	(_counter+1)^(0+384),f
  2429  0416                     l5964:
  2430                           
  2431                           ;eeprom.c: 205:  if(Key=='B'&&check1==1)
  2432  0416  3044               	movlw	68
  2433  0417  0644               	xorwf	main@Key^(0+384),w
  2434  0418  1D03               	btfss	3,2
  2435  0419  2C1B               	goto	u9561
  2436  041A  2C1C               	goto	u9560
  2437  041B                     u9561:
  2438  041B  2C84               	goto	l5994
  2439  041C                     u9560:
  2440  041C                     l5966:
  2441  041C  0842               	movf	main@check2^(0+384),w
  2442  041D  0443               	iorwf	(main@check2+1)^(0+384),w
  2443  041E  1D03               	btfss	3,2
  2444  041F  2C21               	goto	u9571
  2445  0420  2C22               	goto	u9570
  2446  0421                     u9571:
  2447  0421  2C84               	goto	l5994
  2448  0422                     u9570:
  2449  0422                     l5968:
  2450  0422  083E               	movf	main@check1^(0+384),w
  2451  0423  043F               	iorwf	(main@check1+1)^(0+384),w
  2452  0424  1D03               	btfss	3,2
  2453  0425  2C27               	goto	u9581
  2454  0426  2C28               	goto	u9580
  2455  0427                     u9581:
  2456  0427  2C84               	goto	l5994
  2457  0428                     u9580:
  2458  0428                     l5970:
  2459  0428  0340               	decf	main@check3^(0+384),w
  2460  0429  0441               	iorwf	(main@check3+1)^(0+384),w
  2461  042A  1D03               	btfss	3,2
  2462  042B  2C2D               	goto	u9591
  2463  042C  2C2E               	goto	u9590
  2464  042D                     u9591:
  2465  042D  2C84               	goto	l5994
  2466  042E                     u9590:
  2467  042E                     l5972:
  2468                           
  2469                           ;eeprom.c: 206:   { RBIE=0;
  2470  042E  01C9               	clrf	_counter^(0+384)
  2471  042F  01CA               	clrf	(_counter+1)^(0+384)
  2472  0430                     l5974:
  2473                           
  2474                           ;eeprom.c: 207:      Lcd_Clear();
  2475  0430  083C               	movf	main@down^(0+384),w
  2476  0431  3E30               	addlw	48
  2477  0432  009D               	movwf	??_main^(0+384)
  2478  0433  081D               	movf	??_main^(0+384),w
  2479  0434  00A8               	movwf	main@down1_201^(0+384)
  2480  0435                     l5976:
  2481                           
  2482                           ;eeprom.c: 208:      Lcd_Set_Cursor(1,1);
  2483  0435  160A  158A  23EC  120A  118A  	fcall	_Lcd_Clear
  2484  043A                     l5978:
  2485                           
  2486                           ;eeprom.c: 209:      Lcd_Write_String("CLOSE DOOR");
  2487  043A  1683               	bsf	3,5	;RP0=1, select bank1
  2488  043B  1303               	bcf	3,6	;RP1=0, select bank1
  2489  043C  01A4               	clrf	Lcd_Set_Cursor@b^(0+128)
  2490  043D  0AA4               	incf	Lcd_Set_Cursor@b^(0+128),f
  2491  043E  3001               	movlw	1
  2492  043F  160A  158A  2531  120A  118A  	fcall	_Lcd_Set_Cursor
  2493  0444                     l5980:
  2494                           
  2495                           ;eeprom.c: 210:      _delay((unsigned long)((2500)*(16000000/4000.0)));
  2496  0444  300A               	movlw	(low (((STR_10+9)-__stringbase)| (0+32768)))& (0+255)
  2497  0445  160A  118A  2003  120A  118A  	fcall	_Lcd_Write_String
  2498  044A                     l5982:
  2499                           
  2500                           ;eeprom.c: 211:      Lcd_Clear();
  2501  044A  300A               	movlw	10
  2502  044B  1683               	bsf	3,5	;RP0=1, select bank3
  2503  044C  1703               	bsf	3,6	;RP1=1, select bank3
  2504  044D  009D               	movwf	??_main^(0+384)
  2505  044E  081D               	movf	??_main^(0+384),w
  2506  044F  1683               	bsf	3,5	;RP0=1, select bank1
  2507  0450  1303               	bcf	3,6	;RP1=0, select bank1
  2508  0451  00A4               	movwf	Lcd_Set_Cursor@b^(0+128)
  2509  0452  3001               	movlw	1
  2510  0453  160A  158A  2531  120A  118A  	fcall	_Lcd_Set_Cursor
  2511  0458                     l5984:
  2512                           
  2513                           ;eeprom.c: 212:      Lcd_Set_Cursor(1,1);
  2514  0458  3087               	movlw	(low ((STR_14-__stringbase)| (0+32768)))& (0+255)
  2515  0459  160A  118A  2003  120A  118A  	fcall	_Lcd_Write_String
  2516  045E                     l5986:
  2517                           
  2518                           ;eeprom.c: 213:      Lcd_Write_String("WELLCOME");
  2519  045E  3010               	movlw	16
  2520  045F  1683               	bsf	3,5	;RP0=1, select bank3
  2521  0460  1703               	bsf	3,6	;RP1=1, select bank3
  2522  0461  009D               	movwf	??_main^(0+384)
  2523  0462  081D               	movf	??_main^(0+384),w
  2524  0463  1683               	bsf	3,5	;RP0=1, select bank1
  2525  0464  1303               	bcf	3,6	;RP1=0, select bank1
  2526  0465  00A4               	movwf	Lcd_Set_Cursor@b^(0+128)
  2527  0466  3001               	movlw	1
  2528  0467  160A  158A  2531  120A  118A  	fcall	_Lcd_Set_Cursor
  2529  046C                     l5988:
  2530                           
  2531                           ;eeprom.c: 214:      Lcd_Set_Cursor(2,1);
  2532  046C  1683               	bsf	3,5	;RP0=1, select bank3
  2533  046D  1703               	bsf	3,6	;RP1=1, select bank3
  2534  046E  0828               	movf	main@down1_201^(0+384),w
  2535  046F  160A  158A  24EE  120A  118A  	fcall	_Lcd_Write_Char
  2536  0474                     l5990:
  2537                           
  2538                           ;eeprom.c: 215:      Lcd_Write_String("");
  2539  0474  1683               	bsf	3,5	;RP0=1, select bank1
  2540  0475  1303               	bcf	3,6	;RP1=0, select bank1
  2541  0476  01A4               	clrf	Lcd_Set_Cursor@b^(0+128)
  2542  0477  0AA4               	incf	Lcd_Set_Cursor@b^(0+128),f
  2543  0478  3002               	movlw	2
  2544  0479  160A  158A  2531  120A  118A  	fcall	_Lcd_Set_Cursor
  2545  047E                     l5992:
  2546                           
  2547                           ;eeprom.c: 216:      check3=0;
  2548  047E  3023               	movlw	(low (((STR_28+16)-__stringbase)| (0+32768)))& (0+255)
  2549  047F  160A  118A  2003  120A  118A  	fcall	_Lcd_Write_String
  2550  0484                     l5994:
  2551                           
  2552                           ;eeprom.c: 218:      check1=0;
  2553  0484  3044               	movlw	68
  2554  0485  1683               	bsf	3,5	;RP0=1, select bank3
  2555  0486  1703               	bsf	3,6	;RP1=1, select bank3
  2556  0487  0644               	xorwf	main@Key^(0+384),w
  2557  0488  1D03               	btfss	3,2
  2558  0489  2C8B               	goto	u9601
  2559  048A  2C8C               	goto	u9600
  2560  048B                     u9601:
  2561  048B  2CCD               	goto	l6018
  2562  048C                     u9600:
  2563  048C                     l5996:
  2564  048C  0842               	movf	main@check2^(0+384),w
  2565  048D  0443               	iorwf	(main@check2+1)^(0+384),w
  2566  048E  1D03               	btfss	3,2
  2567  048F  2C91               	goto	u9611
  2568  0490  2C92               	goto	u9610
  2569  0491                     u9611:
  2570  0491  2CCD               	goto	l6018
  2571  0492                     u9610:
  2572  0492                     l5998:
  2573  0492  083E               	movf	main@check1^(0+384),w
  2574  0493  043F               	iorwf	(main@check1+1)^(0+384),w
  2575  0494  1D03               	btfss	3,2
  2576  0495  2C97               	goto	u9621
  2577  0496  2C98               	goto	u9620
  2578  0497                     u9621:
  2579  0497  2CCD               	goto	l6018
  2580  0498                     u9620:
  2581  0498                     l6000:
  2582  0498  0840               	movf	main@check3^(0+384),w
  2583  0499  0441               	iorwf	(main@check3+1)^(0+384),w
  2584  049A  1D03               	btfss	3,2
  2585  049B  2C9D               	goto	u9631
  2586  049C  2C9E               	goto	u9630
  2587  049D                     u9631:
  2588  049D  2CCD               	goto	l6018
  2589  049E                     u9630:
  2590  049E                     l6002:
  2591  049E  033A               	decf	main@check5^(0+384),w
  2592  049F  043B               	iorwf	(main@check5+1)^(0+384),w
  2593  04A0  1D03               	btfss	3,2
  2594  04A1  2CA3               	goto	u9641
  2595  04A2  2CA4               	goto	u9640
  2596  04A3                     u9641:
  2597  04A3  2CCD               	goto	l6018
  2598  04A4                     u9640:
  2599  04A4                     l6004:
  2600                           
  2601                           ;eeprom.c: 219:      check2=1;
  2602  04A4  01C9               	clrf	_counter^(0+384)
  2603  04A5  01CA               	clrf	(_counter+1)^(0+384)
  2604  04A6                     l6006:
  2605                           
  2606                           ;eeprom.c: 220:      counter=0;
  2607  04A6  160A  158A  23EC  120A  118A  	fcall	_Lcd_Clear
  2608  04AB                     l6008:
  2609                           
  2610                           ;eeprom.c: 221:   }
  2611  04AB  1683               	bsf	3,5	;RP0=1, select bank1
  2612  04AC  1303               	bcf	3,6	;RP1=0, select bank1
  2613  04AD  01A4               	clrf	Lcd_Set_Cursor@b^(0+128)
  2614  04AE  0AA4               	incf	Lcd_Set_Cursor@b^(0+128),f
  2615  04AF  3001               	movlw	1
  2616  04B0  160A  158A  2531  120A  118A  	fcall	_Lcd_Set_Cursor
  2617  04B5                     l6010:
  2618                           
  2619                           ;eeprom.c: 222: 
  2620  04B5  3001               	movlw	(low ((STR_10-__stringbase)| (0+32768)))& (0+255)
  2621  04B6  160A  118A  2003  120A  118A  	fcall	_Lcd_Write_String
  2622  04BB                     l6012:
  2623                           
  2624                           ;eeprom.c: 223:  if(Key=='C'&&check1==1&&check2==0)
  2625  04BB  1683               	bsf	3,5	;RP0=1, select bank1
  2626  04BC  1303               	bcf	3,6	;RP1=0, select bank1
  2627  04BD  01A4               	clrf	Lcd_Set_Cursor@b^(0+128)
  2628  04BE  0AA4               	incf	Lcd_Set_Cursor@b^(0+128),f
  2629  04BF  3002               	movlw	2
  2630  04C0  160A  158A  2531  120A  118A  	fcall	_Lcd_Set_Cursor
  2631  04C5                     l6014:
  2632                           
  2633                           ;eeprom.c: 224:   { down=3;
  2634  04C5  1683               	bsf	3,5	;RP0=1, select bank3
  2635  04C6  1703               	bsf	3,6	;RP1=1, select bank3
  2636  04C7  01C2               	clrf	main@check2^(0+384)
  2637  04C8  01C3               	clrf	(main@check2+1)^(0+384)
  2638  04C9                     l6016:
  2639                           
  2640                           ;eeprom.c: 225:             char down1=down+'0';
  2641  04C9  3001               	movlw	1
  2642  04CA  00BA               	movwf	main@check5^(0+384)
  2643  04CB  3000               	movlw	0
  2644  04CC  00BB               	movwf	(main@check5^(0+384)+1)
  2645  04CD                     l6018:
  2646                           
  2647                           ;eeprom.c: 227:             Lcd_Set_Cursor(1,1);
  2648  04CD  3044               	movlw	68
  2649  04CE  0644               	xorwf	main@Key^(0+384),w
  2650  04CF  1D03               	btfss	3,2
  2651  04D0  2CD2               	goto	u9651
  2652  04D1  2CD3               	goto	u9650
  2653  04D2                     u9651:
  2654  04D2  2D0A               	goto	l6038
  2655  04D3                     u9650:
  2656  04D3                     l6020:
  2657  04D3  0842               	movf	main@check2^(0+384),w
  2658  04D4  0443               	iorwf	(main@check2+1)^(0+384),w
  2659  04D5  1D03               	btfss	3,2
  2660  04D6  2CD8               	goto	u9661
  2661  04D7  2CD9               	goto	u9660
  2662  04D8                     u9661:
  2663  04D8  2D0A               	goto	l6038
  2664  04D9                     u9660:
  2665  04D9                     l6022:
  2666  04D9  033E               	decf	main@check1^(0+384),w
  2667  04DA  043F               	iorwf	(main@check1+1)^(0+384),w
  2668  04DB  1D03               	btfss	3,2
  2669  04DC  2CDE               	goto	u9671
  2670  04DD  2CDF               	goto	u9670
  2671  04DE                     u9671:
  2672  04DE  2D0A               	goto	l6038
  2673  04DF                     u9670:
  2674  04DF                     l6024:
  2675  04DF  0340               	decf	main@check3^(0+384),w
  2676  04E0  0441               	iorwf	(main@check3+1)^(0+384),w
  2677  04E1  1D03               	btfss	3,2
  2678  04E2  2CE4               	goto	u9681
  2679  04E3  2CE5               	goto	u9680
  2680  04E4                     u9681:
  2681  04E4  2D0A               	goto	l6038
  2682  04E5                     u9680:
  2683  04E5                     l6026:
  2684                           
  2685                           ;eeprom.c: 228:             Lcd_Write_String("COMPLETE");
  2686  04E5  01C9               	clrf	_counter^(0+384)
  2687  04E6  01CA               	clrf	(_counter+1)^(0+384)
  2688  04E7                     l6028:
  2689                           
  2690                           ;eeprom.c: 229:             _delay((unsigned long)((2500)*(16000000/4000.0)));
  2691  04E7  160A  158A  23EC  120A  118A  	fcall	_Lcd_Clear
  2692  04EC                     l6030:
  2693                           
  2694                           ;eeprom.c: 230:             int c2=counter;
  2695  04EC  1683               	bsf	3,5	;RP0=1, select bank1
  2696  04ED  1303               	bcf	3,6	;RP1=0, select bank1
  2697  04EE  01A4               	clrf	Lcd_Set_Cursor@b^(0+128)
  2698  04EF  0AA4               	incf	Lcd_Set_Cursor@b^(0+128),f
  2699  04F0  3001               	movlw	1
  2700  04F1  160A  158A  2531  120A  118A  	fcall	_Lcd_Set_Cursor
  2701  04F6                     l6032:
  2702                           
  2703                           ;eeprom.c: 231:             char c1=c2+'0';
  2704  04F6  3041               	movlw	(low ((STR_20-__stringbase)| (0+32768)))& (0+255)
  2705  04F7  160A  118A  2003  120A  118A  	fcall	_Lcd_Write_String
  2706  04FC                     l6034:
  2707                           
  2708                           ;eeprom.c: 232:             EEPROM_Write(0,c1);
  2709  04FC  1683               	bsf	3,5	;RP0=1, select bank1
  2710  04FD  1303               	bcf	3,6	;RP1=0, select bank1
  2711  04FE  01A4               	clrf	Lcd_Set_Cursor@b^(0+128)
  2712  04FF  0AA4               	incf	Lcd_Set_Cursor@b^(0+128),f
  2713  0500  3002               	movlw	2
  2714  0501  160A  158A  2531  120A  118A  	fcall	_Lcd_Set_Cursor
  2715  0506                     l6036:
  2716                           
  2717                           ;eeprom.c: 233:             EEPROM_Write(1,'1');
  2718  0506  1683               	bsf	3,5	;RP0=1, select bank3
  2719  0507  1703               	bsf	3,6	;RP1=1, select bank3
  2720  0508  01C2               	clrf	main@check2^(0+384)
  2721  0509  01C3               	clrf	(main@check2+1)^(0+384)
  2722  050A                     l6038:
  2723                           
  2724                           ;eeprom.c: 236:                 char x=pass[i];
  2725  050A  3041               	movlw	65
  2726  050B  0644               	xorwf	main@Key^(0+384),w
  2727  050C  1D03               	btfss	3,2
  2728  050D  2D0F               	goto	u9691
  2729  050E  2D10               	goto	u9690
  2730  050F                     u9691:
  2731  050F  2D3D               	goto	l6056
  2732  0510                     u9690:
  2733  0510                     l6040:
  2734  0510  033E               	decf	main@check1^(0+384),w
  2735  0511  043F               	iorwf	(main@check1+1)^(0+384),w
  2736  0512  1D03               	btfss	3,2
  2737  0513  2D15               	goto	u9701
  2738  0514  2D16               	goto	u9700
  2739  0515                     u9701:
  2740  0515  2D3D               	goto	l6056
  2741  0516                     u9700:
  2742  0516                     l6042:
  2743                           
  2744                           ;eeprom.c: 237:                 EEPROM_Write(i+2,x);
  2745  0516  01C9               	clrf	_counter^(0+384)
  2746  0517  01CA               	clrf	(_counter+1)^(0+384)
  2747  0518                     l6044:
  2748                           
  2749                           ;eeprom.c: 238:             }
  2750  0518  160A  158A  23EC  120A  118A  	fcall	_Lcd_Clear
  2751  051D                     l6046:
  2752                           
  2753                           ;eeprom.c: 239:             Lcd_Clear();
  2754  051D  1683               	bsf	3,5	;RP0=1, select bank1
  2755  051E  1303               	bcf	3,6	;RP1=0, select bank1
  2756  051F  01A4               	clrf	Lcd_Set_Cursor@b^(0+128)
  2757  0520  0AA4               	incf	Lcd_Set_Cursor@b^(0+128),f
  2758  0521  3001               	movlw	1
  2759  0522  160A  158A  2531  120A  118A  	fcall	_Lcd_Set_Cursor
  2760  0527                     l6048:
  2761                           
  2762                           ;eeprom.c: 240:             Lcd_Clear();
  2763  0527  3041               	movlw	(low ((STR_20-__stringbase)| (0+32768)))& (0+255)
  2764  0528  160A  118A  2003  120A  118A  	fcall	_Lcd_Write_String
  2765  052D                     l6050:
  2766                           
  2767                           ;eeprom.c: 241:             Lcd_Set_Cursor(1,1);
  2768  052D  1683               	bsf	3,5	;RP0=1, select bank1
  2769  052E  1303               	bcf	3,6	;RP1=0, select bank1
  2770  052F  01A4               	clrf	Lcd_Set_Cursor@b^(0+128)
  2771  0530  0AA4               	incf	Lcd_Set_Cursor@b^(0+128),f
  2772  0531  3002               	movlw	2
  2773  0532  160A  158A  2531  120A  118A  	fcall	_Lcd_Set_Cursor
  2774  0537                     l6052:
  2775                           
  2776                           ;eeprom.c: 242:             Lcd_Write_String("WELLCOME");
  2777  0537  1683               	bsf	3,5	;RP0=1, select bank3
  2778  0538  1703               	bsf	3,6	;RP1=1, select bank3
  2779  0539  01C2               	clrf	main@check2^(0+384)
  2780  053A  01C3               	clrf	(main@check2+1)^(0+384)
  2781  053B                     l6054:
  2782                           
  2783                           ;eeprom.c: 243:             check3=0;
  2784  053B  01B0               	clrf	main@check6^(0+384)
  2785  053C  01B1               	clrf	(main@check6+1)^(0+384)
  2786  053D                     l6056:
  2787                           
  2788                           ;eeprom.c: 247:             counter=0;
  2789  053D  3042               	movlw	66
  2790  053E  0644               	xorwf	main@Key^(0+384),w
  2791  053F  1D03               	btfss	3,2
  2792  0540  2D42               	goto	u9711
  2793  0541  2D43               	goto	u9710
  2794  0542                     u9711:
  2795  0542  2DA0               	goto	l6088
  2796  0543                     u9710:
  2797  0543                     l6058:
  2798  0543  033E               	decf	main@check1^(0+384),w
  2799  0544  043F               	iorwf	(main@check1+1)^(0+384),w
  2800  0545  1D03               	btfss	3,2
  2801  0546  2D48               	goto	u9721
  2802  0547  2D49               	goto	u9720
  2803  0548                     u9721:
  2804  0548  2DA0               	goto	l6088
  2805  0549                     u9720:
  2806  0549                     l6060:
  2807                           
  2808                           ;eeprom.c: 248: 
  2809  0549  118B               	bcf	11,3	;volatile
  2810  054A                     l6062:
  2811                           
  2812                           ;eeprom.c: 249:   }
  2813  054A  160A  158A  23EC  120A  118A  	fcall	_Lcd_Clear
  2814                           
  2815                           ;eeprom.c: 250: 
  2816  054F  1683               	bsf	3,5	;RP0=1, select bank1
  2817  0550  1303               	bcf	3,6	;RP1=0, select bank1
  2818  0551  01A4               	clrf	Lcd_Set_Cursor@b^(0+128)
  2819  0552  0AA4               	incf	Lcd_Set_Cursor@b^(0+128),f
  2820  0553  3001               	movlw	1
  2821  0554  160A  158A  2531  120A  118A  	fcall	_Lcd_Set_Cursor
  2822  0559                     l6064:
  2823                           
  2824                           ;eeprom.c: 251:  if(Key=='#'&&check2==0&&check1==0&&check3==1)
  2825  0559  3059               	movlw	(low ((STR_4-__stringbase)| (0+32768)))& (0+255)
  2826  055A  160A  118A  2003  120A  118A  	fcall	_Lcd_Write_String
  2827  055F                     l6066:
  2828                           
  2829                           ;eeprom.c: 252:   {
  2830  055F  3033               	movlw	51
  2831  0560  1683               	bsf	3,5	;RP0=1, select bank3
  2832  0561  1703               	bsf	3,6	;RP1=1, select bank3
  2833  0562  009F               	movwf	(??_main^(0+384)+2)
  2834  0563  30BB               	movlw	187
  2835  0564  009E               	movwf	(??_main^(0+384)+1)
  2836  0565  30DF               	movlw	223
  2837  0566  009D               	movwf	??_main^(0+384)
  2838  0567                     u10177:
  2839  0567  0B9D               	decfsz	??_main^(0+384),f
  2840  0568  2D67               	goto	u10177
  2841  0569  0B9E               	decfsz	(??_main^(0+384)+1),f
  2842  056A  2D67               	goto	u10177
  2843  056B  0B9F               	decfsz	(??_main^(0+384)+2),f
  2844  056C  2D67               	goto	u10177
  2845  056D                     l6068:
  2846                           
  2847                           ;eeprom.c: 253:         int check=0;
  2848  056D  160A  158A  23EC  120A  118A  	fcall	_Lcd_Clear
  2849  0572                     l6070:
  2850                           
  2851                           ;eeprom.c: 254:         char x=EEPROM_Read(0);
  2852  0572  1683               	bsf	3,5	;RP0=1, select bank1
  2853  0573  1303               	bcf	3,6	;RP1=0, select bank1
  2854  0574  01A4               	clrf	Lcd_Set_Cursor@b^(0+128)
  2855  0575  0AA4               	incf	Lcd_Set_Cursor@b^(0+128),f
  2856  0576  3001               	movlw	1
  2857  0577  160A  158A  2531  120A  118A  	fcall	_Lcd_Set_Cursor
  2858  057C                     l6072:
  2859                           
  2860                           ;eeprom.c: 255:         int x2=x-'0';
  2861  057C  3064               	movlw	(low ((STR_1-__stringbase)| (0+32768)))& (0+255)
  2862  057D  160A  118A  2003  120A  118A  	fcall	_Lcd_Write_String
  2863  0582                     l6074:
  2864                           
  2865                           ;eeprom.c: 256:         if(counter==x2)
  2866  0582  1683               	bsf	3,5	;RP0=1, select bank1
  2867  0583  1303               	bcf	3,6	;RP1=0, select bank1
  2868  0584  01A4               	clrf	Lcd_Set_Cursor@b^(0+128)
  2869  0585  0AA4               	incf	Lcd_Set_Cursor@b^(0+128),f
  2870  0586  3002               	movlw	2
  2871  0587  160A  158A  2531  120A  118A  	fcall	_Lcd_Set_Cursor
  2872  058C                     l6076:
  2873                           
  2874                           ;eeprom.c: 257:        {
  2875  058C  3023               	movlw	(low (((STR_28+16)-__stringbase)| (0+32768)))& (0+255)
  2876  058D  160A  118A  2003  120A  118A  	fcall	_Lcd_Write_String
  2877  0592                     l6078:
  2878                           
  2879                           ;eeprom.c: 258:            if(counter==x2)
  2880  0592  1683               	bsf	3,5	;RP0=1, select bank3
  2881  0593  1703               	bsf	3,6	;RP1=1, select bank3
  2882  0594  01C0               	clrf	main@check3^(0+384)
  2883  0595  01C1               	clrf	(main@check3+1)^(0+384)
  2884  0596                     l6080:
  2885                           
  2886                           ;eeprom.c: 259:        {
  2887  0596  01BA               	clrf	main@check5^(0+384)
  2888  0597  01BB               	clrf	(main@check5+1)^(0+384)
  2889  0598                     l6082:
  2890                           
  2891                           ;eeprom.c: 260:            for(uint8_t i=2;i<=counter+1;i++)
  2892  0598  01BE               	clrf	main@check1^(0+384)
  2893  0599  01BF               	clrf	(main@check1+1)^(0+384)
  2894  059A                     l6084:
  2895                           
  2896                           ;eeprom.c: 261:            {
  2897  059A  3001               	movlw	1
  2898  059B  00C2               	movwf	main@check2^(0+384)
  2899  059C  3000               	movlw	0
  2900  059D  00C3               	movwf	(main@check2^(0+384)+1)
  2901  059E                     l6086:
  2902                           
  2903                           ;eeprom.c: 262:                char data=EEPROM_Read(i);
  2904  059E  01C9               	clrf	_counter^(0+384)
  2905  059F  01CA               	clrf	(_counter+1)^(0+384)
  2906  05A0                     l6088:
  2907                           
  2908                           ;eeprom.c: 265:                    check++;
  2909  05A0  3043               	movlw	67
  2910  05A1  0644               	xorwf	main@Key^(0+384),w
  2911  05A2  1D03               	btfss	3,2
  2912  05A3  2DA5               	goto	u9731
  2913  05A4  2DA6               	goto	u9730
  2914  05A5                     u9731:
  2915  05A5  2E5E               	goto	l6138
  2916  05A6                     u9730:
  2917  05A6                     l6090:
  2918  05A6  033E               	decf	main@check1^(0+384),w
  2919  05A7  043F               	iorwf	(main@check1+1)^(0+384),w
  2920  05A8  1D03               	btfss	3,2
  2921  05A9  2DAB               	goto	u9741
  2922  05AA  2DAC               	goto	u9740
  2923  05AB                     u9741:
  2924  05AB  2E5E               	goto	l6138
  2925  05AC                     u9740:
  2926  05AC                     l6092:
  2927  05AC  0842               	movf	main@check2^(0+384),w
  2928  05AD  0443               	iorwf	(main@check2+1)^(0+384),w
  2929  05AE  1D03               	btfss	3,2
  2930  05AF  2DB1               	goto	u9751
  2931  05B0  2DB2               	goto	u9750
  2932  05B1                     u9751:
  2933  05B1  2E5E               	goto	l6138
  2934  05B2                     u9750:
  2935  05B2                     l6094:
  2936                           
  2937                           ;eeprom.c: 266:                }
  2938  05B2  3003               	movlw	3
  2939  05B3  00BC               	movwf	main@down^(0+384)
  2940  05B4  3000               	movlw	0
  2941  05B5  00BD               	movwf	(main@down^(0+384)+1)
  2942  05B6                     l6096:
  2943                           
  2944                           ;eeprom.c: 267:            }
  2945  05B6  3033               	movlw	51
  2946  05B7  009D               	movwf	??_main^(0+384)
  2947  05B8  081D               	movf	??_main^(0+384),w
  2948  05B9  00A0               	movwf	main@down1_211^(0+384)
  2949  05BA                     l6098:
  2950                           
  2951                           ;eeprom.c: 268:        }
  2952  05BA  160A  158A  23EC  120A  118A  	fcall	_Lcd_Clear
  2953  05BF                     l6100:
  2954                           
  2955                           ;eeprom.c: 269:        }
  2956  05BF  1683               	bsf	3,5	;RP0=1, select bank1
  2957  05C0  1303               	bcf	3,6	;RP1=0, select bank1
  2958  05C1  01A4               	clrf	Lcd_Set_Cursor@b^(0+128)
  2959  05C2  0AA4               	incf	Lcd_Set_Cursor@b^(0+128),f
  2960  05C3  3001               	movlw	1
  2961  05C4  160A  158A  2531  120A  118A  	fcall	_Lcd_Set_Cursor
  2962  05C9                     l6102:
  2963                           
  2964                           ;eeprom.c: 270:        else
  2965  05C9  306D               	movlw	(low ((STR_11-__stringbase)| (0+32768)))& (0+255)
  2966  05CA  160A  118A  2003  120A  118A  	fcall	_Lcd_Write_String
  2967  05CF                     l6104:
  2968                           
  2969                           ;eeprom.c: 271:        {
  2970  05CF  3033               	movlw	51
  2971  05D0  1683               	bsf	3,5	;RP0=1, select bank3
  2972  05D1  1703               	bsf	3,6	;RP1=1, select bank3
  2973  05D2  009F               	movwf	(??_main^(0+384)+2)
  2974  05D3  30BB               	movlw	187
  2975  05D4  009E               	movwf	(??_main^(0+384)+1)
  2976  05D5  30DF               	movlw	223
  2977  05D6  009D               	movwf	??_main^(0+384)
  2978  05D7                     u10187:
  2979  05D7  0B9D               	decfsz	??_main^(0+384),f
  2980  05D8  2DD7               	goto	u10187
  2981  05D9  0B9E               	decfsz	(??_main^(0+384)+1),f
  2982  05DA  2DD7               	goto	u10187
  2983  05DB  0B9F               	decfsz	(??_main^(0+384)+2),f
  2984  05DC  2DD7               	goto	u10187
  2985  05DD                     l6106:
  2986                           
  2987                           ;eeprom.c: 272:            check=1;
  2988  05DD  1683               	bsf	3,5	;RP0=1, select bank3
  2989  05DE  1703               	bsf	3,6	;RP1=1, select bank3
  2990  05DF  084A               	movf	(_counter+1)^(0+384),w
  2991  05E0  00A4               	movwf	(main@c2_213+1)^(0+384)
  2992  05E1  0849               	movf	_counter^(0+384),w
  2993  05E2  00A3               	movwf	main@c2_213^(0+384)
  2994  05E3                     l6108:
  2995                           
  2996                           ;eeprom.c: 273:        }
  2997  05E3  0823               	movf	main@c2_213^(0+384),w
  2998  05E4  3E30               	addlw	48
  2999  05E5  009D               	movwf	??_main^(0+384)
  3000  05E6  081D               	movf	??_main^(0+384),w
  3001  05E7  00A9               	movwf	main@c1_214^(0+384)
  3002  05E8                     l6110:
  3003                           
  3004                           ;eeprom.c: 274: 
  3005  05E8  0829               	movf	main@c1_214^(0+384),w
  3006  05E9  009D               	movwf	??_main^(0+384)
  3007  05EA  081D               	movf	??_main^(0+384),w
  3008  05EB  1683               	bsf	3,5	;RP0=1, select bank1
  3009  05EC  1303               	bcf	3,6	;RP1=0, select bank1
  3010  05ED  00A0               	movwf	EEPROM_Write@Data^(0+128)
  3011  05EE  3000               	movlw	0
  3012  05EF  160A  158A  24A4  120A  118A  	fcall	_EEPROM_Write
  3013  05F4                     l6112:
  3014                           
  3015                           ;eeprom.c: 275:        if(check==0)
  3016  05F4  3031               	movlw	49
  3017  05F5  1683               	bsf	3,5	;RP0=1, select bank3
  3018  05F6  1703               	bsf	3,6	;RP1=1, select bank3
  3019  05F7  009D               	movwf	??_main^(0+384)
  3020  05F8  081D               	movf	??_main^(0+384),w
  3021  05F9  1683               	bsf	3,5	;RP0=1, select bank1
  3022  05FA  1303               	bcf	3,6	;RP1=0, select bank1
  3023  05FB  00A0               	movwf	EEPROM_Write@Data^(0+128)
  3024  05FC  3001               	movlw	1
  3025  05FD  160A  158A  24A4  120A  118A  	fcall	_EEPROM_Write
  3026  0602                     l6114:
  3027                           
  3028                           ;eeprom.c: 276:        { RBIE=1;
  3029  0602  1683               	bsf	3,5	;RP0=1, select bank3
  3030  0603  1703               	bsf	3,6	;RP1=1, select bank3
  3031  0604  01B7               	clrf	main@i_215^(0+384)
  3032  0605  01B8               	clrf	(main@i_215+1)^(0+384)
  3033  0606  2E28               	goto	l6122
  3034  0607                     l6116:
  3035                           
  3036                           ;eeprom.c: 277:             Lcd_Clear();;eeprom.c: 278:             Lcd_Set_Cursor(1,1);
  3037  0607  1683               	bsf	3,5	;RP0=1, select bank3
  3038  0608  1703               	bsf	3,6	;RP1=1, select bank3
  3039  0609  0837               	movf	main@i_215^(0+384),w
  3040  060A  3ECB               	addlw	(low (_pass| (0+256)))& (0+255)
  3041  060B  0084               	movwf	4
  3042  060C  1783               	bsf	3,7	;select IRP bank3
  3043  060D  0800               	movf	0,w
  3044  060E  009D               	movwf	??_main^(0+384)
  3045  060F  081D               	movf	??_main^(0+384),w
  3046  0610  00AA               	movwf	main@x_216^(0+384)
  3047  0611                     l6118:
  3048                           
  3049                           ;eeprom.c: 279:             Lcd_Write_String("OPEN");
  3050  0611  082A               	movf	main@x_216^(0+384),w
  3051  0612  009D               	movwf	??_main^(0+384)
  3052  0613  081D               	movf	??_main^(0+384),w
  3053  0614  1683               	bsf	3,5	;RP0=1, select bank1
  3054  0615  1303               	bcf	3,6	;RP1=0, select bank1
  3055  0616  00A0               	movwf	EEPROM_Write@Data^(0+128)
  3056  0617  1683               	bsf	3,5	;RP0=1, select bank3
  3057  0618  1703               	bsf	3,6	;RP1=1, select bank3
  3058  0619  0837               	movf	main@i_215^(0+384),w
  3059  061A  3E02               	addlw	2
  3060  061B  160A  158A  24A4  120A  118A  	fcall	_EEPROM_Write
  3061  0620                     l6120:
  3062                           
  3063                           ;eeprom.c: 280:             _delay((unsigned long)((2500)*(16000000/4000.0)));
  3064  0620  3001               	movlw	1
  3065  0621  1683               	bsf	3,5	;RP0=1, select bank3
  3066  0622  1703               	bsf	3,6	;RP1=1, select bank3
  3067  0623  07B7               	addwf	main@i_215^(0+384),f
  3068  0624  1803               	skipnc
  3069  0625  0AB8               	incf	(main@i_215+1)^(0+384),f
  3070  0626  3000               	movlw	0
  3071  0627  07B8               	addwf	(main@i_215+1)^(0+384),f
  3072  0628                     l6122:
  3073  0628  0838               	movf	(main@i_215+1)^(0+384),w
  3074  0629  3A80               	xorlw	128
  3075  062A  009D               	movwf	??_main^(0+384)
  3076  062B  084A               	movf	(_counter+1)^(0+384),w
  3077  062C  3A80               	xorlw	128
  3078  062D  021D               	subwf	??_main^(0+384),w
  3079  062E  1D03               	skipz
  3080  062F  2E32               	goto	u9765
  3081  0630  0849               	movf	_counter^(0+384),w
  3082  0631  0237               	subwf	main@i_215^(0+384),w
  3083  0632                     u9765:
  3084  0632  1C03               	skipc
  3085  0633  2E35               	goto	u9761
  3086  0634  2E36               	goto	u9760
  3087  0635                     u9761:
  3088  0635  2E07               	goto	l6116
  3089  0636                     u9760:
  3090  0636                     l6124:
  3091                           
  3092                           ;eeprom.c: 281:             Lcd_Clear();
  3093  0636  160A  158A  23EC  120A  118A  	fcall	_Lcd_Clear
  3094                           
  3095                           ;eeprom.c: 282:             Lcd_Set_Cursor(1,1);
  3096  063B  160A  158A  23EC  120A  118A  	fcall	_Lcd_Clear
  3097                           
  3098                           ;eeprom.c: 283:             Lcd_Write_String("A THAY PASSWORD ");
  3099  0640  1683               	bsf	3,5	;RP0=1, select bank1
  3100  0641  1303               	bcf	3,6	;RP1=0, select bank1
  3101  0642  01A4               	clrf	Lcd_Set_Cursor@b^(0+128)
  3102  0643  0AA4               	incf	Lcd_Set_Cursor@b^(0+128),f
  3103  0644  3001               	movlw	1
  3104  0645  160A  158A  2531  120A  118A  	fcall	_Lcd_Set_Cursor
  3105  064A                     l6126:
  3106                           
  3107                           ;eeprom.c: 284:             Lcd_Set_Cursor(2,1);
  3108  064A  3064               	movlw	(low ((STR_1-__stringbase)| (0+32768)))& (0+255)
  3109  064B  160A  118A  2003  120A  118A  	fcall	_Lcd_Write_String
  3110  0650                     l6128:
  3111                           
  3112                           ;eeprom.c: 285:             Lcd_Write_String("B KHOA CUA");
  3113  0650  1683               	bsf	3,5	;RP0=1, select bank3
  3114  0651  1703               	bsf	3,6	;RP1=1, select bank3
  3115  0652  01C0               	clrf	main@check3^(0+384)
  3116  0653  01C1               	clrf	(main@check3+1)^(0+384)
  3117  0654                     l6130:
  3118                           
  3119                           ;eeprom.c: 286:             check1=1;
  3120  0654  01BA               	clrf	main@check5^(0+384)
  3121  0655  01BB               	clrf	(main@check5+1)^(0+384)
  3122  0656                     l6132:
  3123                           
  3124                           ;eeprom.c: 287:             check2=1;
  3125  0656  3001               	movlw	1
  3126  0657  00C2               	movwf	main@check2^(0+384)
  3127  0658  3000               	movlw	0
  3128  0659  00C3               	movwf	(main@check2^(0+384)+1)
  3129  065A                     l6134:
  3130                           
  3131                           ;eeprom.c: 288:        }
  3132  065A  01BE               	clrf	main@check1^(0+384)
  3133  065B  01BF               	clrf	(main@check1+1)^(0+384)
  3134  065C                     l6136:
  3135                           
  3136                           ;eeprom.c: 289: 
  3137  065C  01C9               	clrf	_counter^(0+384)
  3138  065D  01CA               	clrf	(_counter+1)^(0+384)
  3139  065E                     l6138:
  3140                           
  3141                           ;eeprom.c: 293:             counter=0;
  3142  065E  3023               	movlw	35
  3143  065F  0644               	xorwf	main@Key^(0+384),w
  3144  0660  1D03               	btfss	3,2
  3145  0661  2E63               	goto	u9771
  3146  0662  2E64               	goto	u9770
  3147  0663                     u9771:
  3148  0663  289C               	goto	l5708
  3149  0664                     u9770:
  3150  0664                     l6140:
  3151  0664  0842               	movf	main@check2^(0+384),w
  3152  0665  0443               	iorwf	(main@check2+1)^(0+384),w
  3153  0666  1D03               	btfss	3,2
  3154  0667  2E69               	goto	u9781
  3155  0668  2E6A               	goto	u9780
  3156  0669                     u9781:
  3157  0669  289C               	goto	l5708
  3158  066A                     u9780:
  3159  066A                     l6142:
  3160  066A  083E               	movf	main@check1^(0+384),w
  3161  066B  043F               	iorwf	(main@check1+1)^(0+384),w
  3162  066C  1D03               	btfss	3,2
  3163  066D  2E6F               	goto	u9791
  3164  066E  2E70               	goto	u9790
  3165  066F                     u9791:
  3166  066F  289C               	goto	l5708
  3167  0670                     u9790:
  3168  0670                     l6144:
  3169  0670  0340               	decf	main@check3^(0+384),w
  3170  0671  0441               	iorwf	(main@check3+1)^(0+384),w
  3171  0672  1D03               	btfss	3,2
  3172  0673  2E75               	goto	u9801
  3173  0674  2E76               	goto	u9800
  3174  0675                     u9801:
  3175  0675  289C               	goto	l5708
  3176  0676                     u9800:
  3177  0676                     l6146:
  3178                           
  3179                           ;eeprom.c: 294:             char down1=down+'0';;eeprom.c: 295:             Lcd_Clear();
  3180  0676  01AE               	clrf	main@check^(0+384)
  3181  0677  01AF               	clrf	(main@check+1)^(0+384)
  3182  0678                     l6148:
  3183                           
  3184                           ;eeprom.c: 296:             Lcd_Set_Cursor(1,1);
  3185  0678  3000               	movlw	0
  3186  0679  160A  158A  23F9  120A  118A  	fcall	_EEPROM_Read
  3187  067E  1683               	bsf	3,5	;RP0=1, select bank3
  3188  067F  1703               	bsf	3,6	;RP1=1, select bank3
  3189  0680  009D               	movwf	??_main^(0+384)
  3190  0681  081D               	movf	??_main^(0+384),w
  3191  0682  00AB               	movwf	main@x_219^(0+384)
  3192  0683                     l6150:
  3193                           
  3194                           ;eeprom.c: 297:             Lcd_Write_String("NOT OPEN");
  3195  0683  082B               	movf	main@x_219^(0+384),w
  3196  0684  3ED0               	addlw	208
  3197  0685  00B2               	movwf	main@x2^(0+384)
  3198  0686  30FF               	movlw	255
  3199  0687  1803               	skipnc
  3200  0688  3000               	movlw	0
  3201  0689  00B3               	movwf	(main@x2^(0+384)+1)
  3202  068A                     l6152:
  3203                           
  3204                           ;eeprom.c: 298:             _delay((unsigned long)((2500)*(16000000/4000.0)));
  3205  068A  0833               	movf	(main@x2+1)^(0+384),w
  3206  068B  064A               	xorwf	(_counter+1)^(0+384),w
  3207  068C  1D03               	skipz
  3208  068D  2E90               	goto	u9815
  3209  068E  0832               	movf	main@x2^(0+384),w
  3210  068F  0649               	xorwf	_counter^(0+384),w
  3211  0690                     u9815:
  3212  0690  1D03               	skipz
  3213  0691  2E93               	goto	u9811
  3214  0692  2E94               	goto	u9810
  3215  0693                     u9811:
  3216  0693  2EDA               	goto	l6168
  3217  0694                     u9810:
  3218  0694                     l6154:
  3219                           
  3220                           ;eeprom.c: 299:             Lcd_Clear();;eeprom.c: 300:             Lcd_Set_Cursor(1,1);
  3221  0694  0833               	movf	(main@x2+1)^(0+384),w
  3222  0695  064A               	xorwf	(_counter+1)^(0+384),w
  3223  0696  1D03               	skipz
  3224  0697  2E9A               	goto	u9825
  3225  0698  0832               	movf	main@x2^(0+384),w
  3226  0699  0649               	xorwf	_counter^(0+384),w
  3227  069A                     u9825:
  3228  069A  1D03               	skipz
  3229  069B  2E9D               	goto	u9821
  3230  069C  2E9E               	goto	u9820
  3231  069D                     u9821:
  3232  069D  2EDE               	goto	l6170
  3233  069E                     u9820:
  3234  069E                     l6156:
  3235                           
  3236                           ;eeprom.c: 301:             Lcd_Write_String("PASSWORD");;eeprom.c: 302:             Lcd
      +                          _Set_Cursor(1,10);
  3237  069E  3002               	movlw	2
  3238  069F  009D               	movwf	??_main^(0+384)
  3239  06A0  081D               	movf	??_main^(0+384),w
  3240  06A1  00B9               	movwf	main@i_221^(0+384)
  3241  06A2  2EC4               	goto	l6166
  3242  06A3                     l6158:
  3243                           
  3244                           ;eeprom.c: 303:             Lcd_Write_String("DOWN :");;eeprom.c: 304:             Lcd_S
      +                          et_Cursor(1,16);
  3245  06A3  1683               	bsf	3,5	;RP0=1, select bank3
  3246  06A4  1703               	bsf	3,6	;RP1=1, select bank3
  3247  06A5  0839               	movf	main@i_221^(0+384),w
  3248  06A6  160A  158A  23F9  120A  118A  	fcall	_EEPROM_Read
  3249  06AB  1683               	bsf	3,5	;RP0=1, select bank3
  3250  06AC  1703               	bsf	3,6	;RP1=1, select bank3
  3251  06AD  009D               	movwf	??_main^(0+384)
  3252  06AE  081D               	movf	??_main^(0+384),w
  3253  06AF  00AC               	movwf	main@data^(0+384)
  3254  06B0                     l6160:
  3255                           
  3256                           ;eeprom.c: 305:             Lcd_Write_Char(down1);
  3257  06B0  0839               	movf	main@i_221^(0+384),w
  3258  06B1  3EC9               	addlw	(low ((_pass| (0+256)+254)))& (0+255)
  3259  06B2  0084               	movwf	4
  3260  06B3  1783               	bsf	3,7	;select IRP bank3
  3261  06B4  0800               	movf	0,w
  3262  06B5  062C               	xorwf	main@data^(0+384),w
  3263  06B6  1903               	skipnz
  3264  06B7  2EB9               	goto	u9831
  3265  06B8  2EBA               	goto	u9830
  3266  06B9                     u9831:
  3267  06B9  2EC0               	goto	l6164
  3268  06BA                     u9830:
  3269  06BA                     l6162:
  3270                           
  3271                           ;eeprom.c: 306:             Lcd_Set_Cursor(2,1);;eeprom.c: 307:             Lcd_Write_St
      +                          ring("");
  3272  06BA  3001               	movlw	1
  3273  06BB  07AE               	addwf	main@check^(0+384),f
  3274  06BC  1803               	skipnc
  3275  06BD  0AAF               	incf	(main@check+1)^(0+384),f
  3276  06BE  3000               	movlw	0
  3277  06BF  07AF               	addwf	(main@check+1)^(0+384),f
  3278  06C0                     l6164:
  3279                           
  3280                           ;eeprom.c: 309:             {
  3281  06C0  3001               	movlw	1
  3282  06C1  009D               	movwf	??_main^(0+384)
  3283  06C2  081D               	movf	??_main^(0+384),w
  3284  06C3  07B9               	addwf	main@i_221^(0+384),f
  3285  06C4                     l6166:
  3286  06C4  0849               	movf	_counter^(0+384),w
  3287  06C5  3E01               	addlw	1
  3288  06C6  009D               	movwf	??_main^(0+384)
  3289  06C7  084A               	movf	(_counter+1)^(0+384),w
  3290  06C8  1803               	skipnc
  3291  06C9  3E01               	addlw	1
  3292  06CA  3E00               	addlw	0
  3293  06CB  009E               	movwf	(??_main+1)^(0+384)
  3294  06CC  081E               	movf	(??_main+1)^(0+384),w
  3295  06CD  3A80               	xorlw	128
  3296  06CE  009F               	movwf	(??_main+2)^(0+384)
  3297  06CF  3080               	movlw	128
  3298  06D0  021F               	subwf	(??_main+2)^(0+384),w
  3299  06D1  1D03               	skipz
  3300  06D2  2ED5               	goto	u9845
  3301  06D3  0839               	movf	main@i_221^(0+384),w
  3302  06D4  021D               	subwf	??_main^(0+384),w
  3303  06D5                     u9845:
  3304  06D5  1803               	skipnc
  3305  06D6  2ED8               	goto	u9841
  3306  06D7  2ED9               	goto	u9840
  3307  06D8                     u9841:
  3308  06D8  2EA3               	goto	l6158
  3309  06D9                     u9840:
  3310  06D9  2EDE               	goto	l6170
  3311  06DA                     l6168:
  3312                           
  3313                           ;eeprom.c: 313:             Lcd_Set_Cursor(2,1);;eeprom.c: 314:             Lcd_Write_St
      +                          ring("ERROR    ERROR");
  3314  06DA  3001               	movlw	1
  3315  06DB  00AE               	movwf	main@check^(0+384)
  3316  06DC  3000               	movlw	0
  3317  06DD  00AF               	movwf	(main@check^(0+384)+1)
  3318  06DE                     l6170:
  3319                           
  3320                           ;eeprom.c: 317:        }
  3321  06DE  1683               	bsf	3,5	;RP0=1, select bank3
  3322  06DF  1703               	bsf	3,6	;RP1=1, select bank3
  3323  06E0  082E               	movf	main@check^(0+384),w
  3324  06E1  042F               	iorwf	(main@check+1)^(0+384),w
  3325  06E2  1D03               	btfss	3,2
  3326  06E3  2EE5               	goto	u9851
  3327  06E4  2EE6               	goto	u9850
  3328  06E5                     u9851:
  3329  06E5  2F3C               	goto	l351
  3330  06E6                     u9850:
  3331  06E6                     l6172:
  3332                           
  3333                           ;eeprom.c: 318:   }
  3334  06E6  158B               	bsf	11,3	;volatile
  3335  06E7                     l6174:
  3336                           
  3337                           ;eeprom.c: 319: }
  3338  06E7  160A  158A  23EC  120A  118A  	fcall	_Lcd_Clear
  3339                           
  3340                           ;eeprom.c: 320: }
  3341  06EC  1683               	bsf	3,5	;RP0=1, select bank1
  3342  06ED  1303               	bcf	3,6	;RP1=0, select bank1
  3343  06EE  01A4               	clrf	Lcd_Set_Cursor@b^(0+128)
  3344  06EF  0AA4               	incf	Lcd_Set_Cursor@b^(0+128),f
  3345  06F0  3001               	movlw	1
  3346  06F1  160A  158A  2531  120A  118A  	fcall	_Lcd_Set_Cursor
  3347  06F6                     l6176:
  3348                           
  3349                           ;eeprom.c: 321: void __attribute__((picinterrupt(("")))) ISR(void){
  3350  06F6  307A               	movlw	(low (((STR_30+4)-__stringbase)| (0+32768)))& (0+255)
  3351  06F7  160A  118A  2003  120A  118A  	fcall	_Lcd_Write_String
  3352  06FC                     l6178:
  3353                           
  3354                           ;eeprom.c: 322:     if(RBIF==1)
  3355  06FC  3033               	movlw	51
  3356  06FD  1683               	bsf	3,5	;RP0=1, select bank3
  3357  06FE  1703               	bsf	3,6	;RP1=1, select bank3
  3358  06FF  009F               	movwf	(??_main^(0+384)+2)
  3359  0700  30BB               	movlw	187
  3360  0701  009E               	movwf	(??_main^(0+384)+1)
  3361  0702  30DF               	movlw	223
  3362  0703  009D               	movwf	??_main^(0+384)
  3363  0704                     u10197:
  3364  0704  0B9D               	decfsz	??_main^(0+384),f
  3365  0705  2F04               	goto	u10197
  3366  0706  0B9E               	decfsz	(??_main^(0+384)+1),f
  3367  0707  2F04               	goto	u10197
  3368  0708  0B9F               	decfsz	(??_main^(0+384)+2),f
  3369  0709  2F04               	goto	u10197
  3370  070A                     l6180:
  3371                           
  3372                           ;eeprom.c: 323:     {
  3373  070A  160A  158A  23EC  120A  118A  	fcall	_Lcd_Clear
  3374  070F                     l6182:
  3375                           
  3376                           ;eeprom.c: 324:         if(RB4==1&&RB5==1&&RB6==1&&RB7==1)
  3377  070F  1683               	bsf	3,5	;RP0=1, select bank1
  3378  0710  1303               	bcf	3,6	;RP1=0, select bank1
  3379  0711  01A4               	clrf	Lcd_Set_Cursor@b^(0+128)
  3380  0712  0AA4               	incf	Lcd_Set_Cursor@b^(0+128),f
  3381  0713  3001               	movlw	1
  3382  0714  160A  158A  2531  120A  118A  	fcall	_Lcd_Set_Cursor
  3383  0719                     l6184:
  3384                           
  3385                           ;eeprom.c: 325:         {
  3386  0719  3013               	movlw	(low ((STR_28-__stringbase)| (0+32768)))& (0+255)
  3387  071A  160A  118A  2003  120A  118A  	fcall	_Lcd_Write_String
  3388  071F                     l6186:
  3389                           
  3390                           ;eeprom.c: 326: 
  3391  071F  1683               	bsf	3,5	;RP0=1, select bank1
  3392  0720  1303               	bcf	3,6	;RP1=0, select bank1
  3393  0721  01A4               	clrf	Lcd_Set_Cursor@b^(0+128)
  3394  0722  0AA4               	incf	Lcd_Set_Cursor@b^(0+128),f
  3395  0723  3002               	movlw	2
  3396  0724  160A  158A  2531  120A  118A  	fcall	_Lcd_Set_Cursor
  3397  0729                     l6188:
  3398                           
  3399                           ;eeprom.c: 327:                 if(trangthai==1 && tt==2)
  3400  0729  304E               	movlw	(low ((STR_29-__stringbase)| (0+32768)))& (0+255)
  3401  072A  160A  118A  2003  120A  118A  	fcall	_Lcd_Write_String
  3402  072F                     l6190:
  3403                           
  3404                           ;eeprom.c: 328:         {
  3405  072F  3001               	movlw	1
  3406  0730  1683               	bsf	3,5	;RP0=1, select bank3
  3407  0731  1703               	bsf	3,6	;RP1=1, select bank3
  3408  0732  00BE               	movwf	main@check1^(0+384)
  3409  0733  3000               	movlw	0
  3410  0734  00BF               	movwf	(main@check1^(0+384)+1)
  3411  0735                     l6192:
  3412                           
  3413                           ;eeprom.c: 329:             counter1++;
  3414  0735  3001               	movlw	1
  3415  0736  1683               	bsf	3,5	;RP0=1, select bank3
  3416  0737  1703               	bsf	3,6	;RP1=1, select bank3
  3417  0738  00C2               	movwf	main@check2^(0+384)
  3418  0739  3000               	movlw	0
  3419  073A  00C3               	movwf	(main@check2^(0+384)+1)
  3420                           
  3421                           ;eeprom.c: 330:             trangthai=0;
  3422  073B  289C               	goto	l5708
  3423  073C                     l351:	
  3424                           ;eeprom.c: 332:         }
  3425                           
  3426                           
  3427                           ;eeprom.c: 333:                 else if(trangthai==2 && tt==2)
  3428  073C  118B               	bcf	11,3	;volatile
  3429  073D                     l6194:
  3430                           
  3431                           ;eeprom.c: 334:         {
  3432  073D  30FF               	movlw	255
  3433  073E  07BC               	addwf	main@down^(0+384),f
  3434  073F  1803               	skipnc
  3435  0740  0ABD               	incf	(main@down+1)^(0+384),f
  3436  0741  30FF               	movlw	255
  3437  0742  07BD               	addwf	(main@down+1)^(0+384),f
  3438  0743                     l6196:
  3439                           
  3440                           ;eeprom.c: 335:             counter1--;
  3441  0743  01C9               	clrf	_counter^(0+384)
  3442  0744  01CA               	clrf	(_counter+1)^(0+384)
  3443  0745                     l6198:
  3444                           
  3445                           ;eeprom.c: 336:             trangthai=0;
  3446  0745  083C               	movf	main@down^(0+384),w
  3447  0746  3E30               	addlw	48
  3448  0747  009D               	movwf	??_main^(0+384)
  3449  0748  081D               	movf	??_main^(0+384),w
  3450  0749  00AD               	movwf	main@down1_226^(0+384)
  3451  074A                     l6200:
  3452                           
  3453                           ;eeprom.c: 337:             tt=0;
  3454  074A  160A  158A  23EC  120A  118A  	fcall	_Lcd_Clear
  3455  074F                     l6202:
  3456                           
  3457                           ;eeprom.c: 338:         }
  3458  074F  1683               	bsf	3,5	;RP0=1, select bank1
  3459  0750  1303               	bcf	3,6	;RP1=0, select bank1
  3460  0751  01A4               	clrf	Lcd_Set_Cursor@b^(0+128)
  3461  0752  0AA4               	incf	Lcd_Set_Cursor@b^(0+128),f
  3462  0753  3001               	movlw	1
  3463  0754  160A  158A  2531  120A  118A  	fcall	_Lcd_Set_Cursor
  3464  0759                     l6204:
  3465                           
  3466                           ;eeprom.c: 339:             nguoi();
  3467  0759  3076               	movlw	(low ((STR_30-__stringbase)| (0+32768)))& (0+255)
  3468  075A  160A  118A  2003  120A  118A  	fcall	_Lcd_Write_String
  3469  075F                     l6206:
  3470                           
  3471                           ;eeprom.c: 340:             Dong();
  3472  075F  3033               	movlw	51
  3473  0760  1683               	bsf	3,5	;RP0=1, select bank3
  3474  0761  1703               	bsf	3,6	;RP1=1, select bank3
  3475  0762  009F               	movwf	(??_main^(0+384)+2)
  3476  0763  30BB               	movlw	187
  3477  0764  009E               	movwf	(??_main^(0+384)+1)
  3478  0765  30DF               	movlw	223
  3479  0766  009D               	movwf	??_main^(0+384)
  3480  0767                     u10207:
  3481  0767  0B9D               	decfsz	??_main^(0+384),f
  3482  0768  2F67               	goto	u10207
  3483  0769  0B9E               	decfsz	(??_main^(0+384)+1),f
  3484  076A  2F67               	goto	u10207
  3485  076B  0B9F               	decfsz	(??_main^(0+384)+2),f
  3486  076C  2F67               	goto	u10207
  3487  076D                     l6208:
  3488                           
  3489                           ;eeprom.c: 341:             _delay((unsigned long)((750)*(16000000/4000.0)));
  3490  076D  160A  158A  23EC  120A  118A  	fcall	_Lcd_Clear
  3491  0772                     l6210:
  3492                           
  3493                           ;eeprom.c: 342:             Dung();
  3494  0772  1683               	bsf	3,5	;RP0=1, select bank1
  3495  0773  1303               	bcf	3,6	;RP1=0, select bank1
  3496  0774  01A4               	clrf	Lcd_Set_Cursor@b^(0+128)
  3497  0775  0AA4               	incf	Lcd_Set_Cursor@b^(0+128),f
  3498  0776  3001               	movlw	1
  3499  0777  160A  158A  2531  120A  118A  	fcall	_Lcd_Set_Cursor
  3500  077C                     l6212:
  3501                           
  3502                           ;eeprom.c: 343:         }
  3503  077C  300A               	movlw	(low (((STR_10+9)-__stringbase)| (0+32768)))& (0+255)
  3504  077D  160A  118A  2003  120A  118A  	fcall	_Lcd_Write_String
  3505  0782                     l6214:
  3506                           
  3507                           ;eeprom.c: 344:         else if(RB5==1&&RB6==0&&RB7==0)
  3508  0782  300A               	movlw	10
  3509  0783  1683               	bsf	3,5	;RP0=1, select bank3
  3510  0784  1703               	bsf	3,6	;RP1=1, select bank3
  3511  0785  009D               	movwf	??_main^(0+384)
  3512  0786  081D               	movf	??_main^(0+384),w
  3513  0787  1683               	bsf	3,5	;RP0=1, select bank1
  3514  0788  1303               	bcf	3,6	;RP1=0, select bank1
  3515  0789  00A4               	movwf	Lcd_Set_Cursor@b^(0+128)
  3516  078A  3001               	movlw	1
  3517  078B  160A  158A  2531  120A  118A  	fcall	_Lcd_Set_Cursor
  3518  0790                     l6216:
  3519                           
  3520                           ;eeprom.c: 345:         { nguoi();
  3521  0790  3087               	movlw	(low ((STR_14-__stringbase)| (0+32768)))& (0+255)
  3522  0791  160A  118A  2003  120A  118A  	fcall	_Lcd_Write_String
  3523  0796                     l6218:
  3524                           
  3525                           ;eeprom.c: 346:             trangthai=1;
  3526  0796  3010               	movlw	16
  3527  0797  1683               	bsf	3,5	;RP0=1, select bank3
  3528  0798  1703               	bsf	3,6	;RP1=1, select bank3
  3529  0799  009D               	movwf	??_main^(0+384)
  3530  079A  081D               	movf	??_main^(0+384),w
  3531  079B  1683               	bsf	3,5	;RP0=1, select bank1
  3532  079C  1303               	bcf	3,6	;RP1=0, select bank1
  3533  079D  00A4               	movwf	Lcd_Set_Cursor@b^(0+128)
  3534  079E  3001               	movlw	1
  3535  079F  160A  158A  2531  120A  118A  	fcall	_Lcd_Set_Cursor
  3536  07A4                     l6220:
  3537                           
  3538                           ;eeprom.c: 347:             Mo();
  3539  07A4  1683               	bsf	3,5	;RP0=1, select bank3
  3540  07A5  1703               	bsf	3,6	;RP1=1, select bank3
  3541  07A6  082D               	movf	main@down1_226^(0+384),w
  3542  07A7  160A  158A  24EE  120A  118A  	fcall	_Lcd_Write_Char
  3543  07AC                     l6222:
  3544                           
  3545                           ;eeprom.c: 348:             _delay((unsigned long)((750)*(16000000/4000.0)));
  3546  07AC  1683               	bsf	3,5	;RP0=1, select bank1
  3547  07AD  1303               	bcf	3,6	;RP1=0, select bank1
  3548  07AE  01A4               	clrf	Lcd_Set_Cursor@b^(0+128)
  3549  07AF  0AA4               	incf	Lcd_Set_Cursor@b^(0+128),f
  3550  07B0  3002               	movlw	2
  3551  07B1  160A  158A  2531  120A  118A  	fcall	_Lcd_Set_Cursor
  3552  07B6                     l6224:
  3553                           
  3554                           ;eeprom.c: 349:             Dung();
  3555  07B6  3023               	movlw	(low (((STR_28+16)-__stringbase)| (0+32768)))& (0+255)
  3556  07B7  160A  118A  2003  120A  118A  	fcall	_Lcd_Write_String
  3557  07BC                     l6226:
  3558                           
  3559                           ;eeprom.c: 350:         }else if(RB5==0&&RB6==0&&RB7==1)
  3560  07BC  1683               	bsf	3,5	;RP0=1, select bank3
  3561  07BD  1703               	bsf	3,6	;RP1=1, select bank3
  3562  07BE  083C               	movf	main@down^(0+384),w
  3563  07BF  043D               	iorwf	(main@down+1)^(0+384),w
  3564  07C0  1D03               	btfss	3,2
  3565  07C1  2FC3               	goto	u9861
  3566  07C2  2FC4               	goto	u9860
  3567  07C3                     u9861:
  3568  07C3  2FEA               	goto	l343
  3569  07C4                     u9860:
  3570  07C4                     l6228:
  3571                           
  3572                           ;eeprom.c: 351:         { nguoi();;eeprom.c: 352:             trangthai=2;
  3573  07C4  160A  158A  23EC  120A  118A  	fcall	_Lcd_Clear
  3574                           
  3575                           ;eeprom.c: 353:             Mo();
  3576  07C9  1683               	bsf	3,5	;RP0=1, select bank1
  3577  07CA  1303               	bcf	3,6	;RP1=0, select bank1
  3578  07CB  01A4               	clrf	Lcd_Set_Cursor@b^(0+128)
  3579  07CC  0AA4               	incf	Lcd_Set_Cursor@b^(0+128),f
  3580  07CD  3001               	movlw	1
  3581  07CE  160A  158A  2531  120A  118A  	fcall	_Lcd_Set_Cursor
  3582  07D3                     l6230:
  3583                           
  3584                           ;eeprom.c: 354:             _delay((unsigned long)((750)*(16000000/4000.0)));
  3585  07D3  3024               	movlw	(low ((STR_34-__stringbase)| (0+32768)))& (0+255)
  3586  07D4  160A  118A  2003  120A  118A  	fcall	_Lcd_Write_String
  3587  07D9                     l6232:
  3588                           
  3589                           ;eeprom.c: 355:             Dung();
  3590  07D9  1683               	bsf	3,5	;RP0=1, select bank1
  3591  07DA  1303               	bcf	3,6	;RP1=0, select bank1
  3592  07DB  01A4               	clrf	Lcd_Set_Cursor@b^(0+128)
  3593  07DC  0AA4               	incf	Lcd_Set_Cursor@b^(0+128),f
  3594  07DD  3002               	movlw	2
  3595  07DE  160A  158A  2531  120A  118A  	fcall	_Lcd_Set_Cursor
  3596                           
  3597                           ;eeprom.c: 356:         }
  3598  07E3  3024               	movlw	(low ((STR_34-__stringbase)| (0+32768)))& (0+255)
  3599  07E4  160A  118A  2003  120A  118A  	fcall	_Lcd_Write_String
  3600  07E9  2F35               	goto	l6192
  3601  07EA                     l343:	
  3602                           ;eeprom.c: 360:             _delay((unsigned long)((750)*(16000000/4000.0)));
  3603                           
  3604  07EA  289C               	goto	l5708
  3605  07EB  120A  118A  2810   	ljmp	start
  3606  07EE                     __end_of_main:
  3607                           
  3608                           	psect	text1
  3609  11A2                     __ptext1:	
  3610 ;; *************** function _set_Tpwm *****************
  3611 ;; Defined at:
  3612 ;;		line 10 in file "./moto.h"
  3613 ;; Parameters:    Size  Location     Type
  3614 ;;		None
  3615 ;; Auto vars:     Size  Location     Type
  3616 ;;		None
  3617 ;; Return value:  Size  Location     Type
  3618 ;;                  1    wreg      void 
  3619 ;; Registers used:
  3620 ;;		wreg, fsr0l, fsr0h, status,2, status,0, btemp+1, pclath, cstack
  3621 ;; Tracked objects:
  3622 ;;		On entry : 0/0
  3623 ;;		On exit  : 0/0
  3624 ;;		Unchanged: 0/0
  3625 ;; Data sizes:     COMMON   BANK0   BANK1   BANK3   BANK2
  3626 ;;      Params:         0       0       0       0       0
  3627 ;;      Locals:         0       0       0       0       0
  3628 ;;      Temps:          0       0       0       2       0
  3629 ;;      Totals:         0       0       0       2       0
  3630 ;;Total ram usage:        2 bytes
  3631 ;; Hardware stack levels used:    1
  3632 ;; Hardware stack levels required when called:    6
  3633 ;; This function calls:
  3634 ;;		___fladd
  3635 ;;		___fldiv
  3636 ;;		___fltol
  3637 ;;		___lldiv
  3638 ;;		___xxtofl
  3639 ;; This function is called by:
  3640 ;;		_main
  3641 ;; This function uses a non-reentrant model
  3642 ;;
  3643                           
  3644                           
  3645                           ;psect for function _set_Tpwm
  3646  11A2                     _set_Tpwm:
  3647  11A2                     l5656:	
  3648                           ;incstack = 0
  3649                           ; Regs used in _set_Tpwm: [wreg-fsr0h+status,2+status,0+btemp+1+pclath+cstack]
  3650                           
  3651                           
  3652                           ;./moto.h: 12:     switch(ps){
  3653  11A2  29B1               	goto	l5658
  3654  11A3                     l277:	
  3655                           ;./moto.h: 13:         case 1: {T2CKPS0 = 0; T2CKPS1 = 0; break;}
  3656                           
  3657  11A3  1283               	bcf	3,5	;RP0=0, select bank0
  3658  11A4  1303               	bcf	3,6	;RP1=0, select bank0
  3659  11A5  1012               	bcf	18,0	;volatile
  3660  11A6  1092               	bcf	18,1	;volatile
  3661  11A7  29C8               	goto	l278
  3662  11A8                     l279:	
  3663                           ;./moto.h: 14:         case 4: {T2CKPS0 = 1; T2CKPS1 = 0; break;}
  3664                           
  3665  11A8  1283               	bcf	3,5	;RP0=0, select bank0
  3666  11A9  1303               	bcf	3,6	;RP1=0, select bank0
  3667  11AA  1412               	bsf	18,0	;volatile
  3668  11AB  1092               	bcf	18,1	;volatile
  3669  11AC  29C8               	goto	l278
  3670  11AD                     l280:	
  3671                           ;./moto.h: 15:         case 16: T2CKPS1 = 0;
  3672                           
  3673  11AD  1283               	bcf	3,5	;RP0=0, select bank0
  3674  11AE  1303               	bcf	3,6	;RP1=0, select bank0
  3675  11AF  1092               	bcf	18,1	;volatile
  3676                           
  3677                           ;./moto.h: 16:     }
  3678  11B0  29C8               	goto	l278
  3679  11B1                     l5658:
  3680  11B1  1683               	bsf	3,5	;RP0=1, select bank1
  3681  11B2  1303               	bcf	3,6	;RP1=0, select bank1
  3682  11B3  086E               	movf	_ps^(0+128),w
  3683  11B4  1683               	bsf	3,5	;RP0=1, select bank3
  3684  11B5  1703               	bsf	3,6	;RP1=1, select bank3
  3685  11B6  009B               	movwf	??_set_Tpwm^(0+384)
  3686  11B7  019C               	clrf	(??_set_Tpwm^(0+384)+1)
  3687                           
  3688                           ; Switch on 2 bytes has been partitioned into a top level switch of size 1, and 1 sub-sw
      +                          itches
  3689                           ; Switch size 1, requested type "simple"
  3690                           ; Number of cases is 1, Range of values is 0 to 0
  3691                           ; switch strategies available:
  3692                           ; Name         Instructions Cycles
  3693                           ; simple_byte            4     3 (average)
  3694                           ; direct_byte           11     8 (fixed)
  3695                           ; jumptable            260     6 (fixed)
  3696                           ;	Chosen strategy is simple_byte
  3697  11B8  081C               	movf	(??_set_Tpwm+1)^(0+384),w
  3698  11B9  3A00               	xorlw	0	; case 0
  3699  11BA  1903               	skipnz
  3700  11BB  29BD               	goto	l6362
  3701  11BC  29C8               	goto	l278
  3702  11BD                     l6362:
  3703                           
  3704                           ; Switch size 1, requested type "simple"
  3705                           ; Number of cases is 3, Range of values is 1 to 16
  3706                           ; switch strategies available:
  3707                           ; Name         Instructions Cycles
  3708                           ; simple_byte           10     6 (average)
  3709                           ; direct_byte           59    11 (fixed)
  3710                           ; jumptable            263     9 (fixed)
  3711                           ;	Chosen strategy is simple_byte
  3712  11BD  081B               	movf	??_set_Tpwm^(0+384),w
  3713  11BE  3A01               	xorlw	1	; case 1
  3714  11BF  1903               	skipnz
  3715  11C0  29A3               	goto	l277
  3716  11C1  3A05               	xorlw	5	; case 4
  3717  11C2  1903               	skipnz
  3718  11C3  29A8               	goto	l279
  3719  11C4  3A14               	xorlw	20	; case 16
  3720  11C5  1903               	skipnz
  3721  11C6  29AD               	goto	l280
  3722  11C7  29C8               	goto	l278
  3723  11C8                     l278:
  3724                           
  3725                           ;./moto.h: 18:     TMR2ON = 1;
  3726  11C8  1283               	bcf	3,5	;RP0=0, select bank0
  3727  11C9  1303               	bcf	3,6	;RP1=0, select bank0
  3728  11CA  1512               	bsf	18,2	;volatile
  3729  11CB                     l5660:
  3730                           
  3731                           ;./moto.h: 20:     PR2 = ((float)(16000000/Fpwm))/(4*ps)-1;
  3732  11CB  3000               	movlw	0
  3733  11CC  1683               	bsf	3,5	;RP0=1, select bank1
  3734  11CD  1303               	bcf	3,6	;RP1=0, select bank1
  3735  11CE  00A7               	movwf	(___lldiv@dividend+3)^(0+128)
  3736  11CF  30F4               	movlw	244
  3737  11D0  00A6               	movwf	(___lldiv@dividend+2)^(0+128)
  3738  11D1  3024               	movlw	36
  3739  11D2  00A5               	movwf	(___lldiv@dividend+1)^(0+128)
  3740  11D3  3000               	movlw	0
  3741  11D4  00A4               	movwf	___lldiv@dividend^(0+128)
  3742  11D5  1683               	bsf	3,5	;RP0=1, select bank3
  3743  11D6  1703               	bsf	3,6	;RP1=1, select bank3
  3744  11D7  0848               	movf	(_Fpwm+3)^(0+384),w
  3745  11D8  1683               	bsf	3,5	;RP0=1, select bank1
  3746  11D9  1303               	bcf	3,6	;RP1=0, select bank1
  3747  11DA  00A3               	movwf	(___lldiv@divisor+3)^(0+128)
  3748  11DB  1683               	bsf	3,5	;RP0=1, select bank3
  3749  11DC  1703               	bsf	3,6	;RP1=1, select bank3
  3750  11DD  0847               	movf	(_Fpwm+2)^(0+384),w
  3751  11DE  1683               	bsf	3,5	;RP0=1, select bank1
  3752  11DF  1303               	bcf	3,6	;RP1=0, select bank1
  3753  11E0  00A2               	movwf	(___lldiv@divisor+2)^(0+128)
  3754  11E1  1683               	bsf	3,5	;RP0=1, select bank3
  3755  11E2  1703               	bsf	3,6	;RP1=1, select bank3
  3756  11E3  0846               	movf	(_Fpwm+1)^(0+384),w
  3757  11E4  1683               	bsf	3,5	;RP0=1, select bank1
  3758  11E5  1303               	bcf	3,6	;RP1=0, select bank1
  3759  11E6  00A1               	movwf	(___lldiv@divisor+1)^(0+128)
  3760  11E7  1683               	bsf	3,5	;RP0=1, select bank3
  3761  11E8  1703               	bsf	3,6	;RP1=1, select bank3
  3762  11E9  0845               	movf	_Fpwm^(0+384),w
  3763  11EA  1683               	bsf	3,5	;RP0=1, select bank1
  3764  11EB  1303               	bcf	3,6	;RP1=0, select bank1
  3765  11EC  00A0               	movwf	___lldiv@divisor^(0+128)
  3766  11ED  160A  158A  25ED  160A  118A  	fcall	___lldiv
  3767  11F2  1683               	bsf	3,5	;RP0=1, select bank1
  3768  11F3  1303               	bcf	3,6	;RP1=0, select bank1
  3769  11F4  0823               	movf	(?___lldiv+3)^(0+128),w
  3770  11F5  00B1               	movwf	(___xxtofl@val+3)^(0+128)
  3771  11F6  0822               	movf	(?___lldiv+2)^(0+128),w
  3772  11F7  00B0               	movwf	(___xxtofl@val+2)^(0+128)
  3773  11F8  0821               	movf	(?___lldiv+1)^(0+128),w
  3774  11F9  00AF               	movwf	(___xxtofl@val+1)^(0+128)
  3775  11FA  0820               	movf	?___lldiv^(0+128),w
  3776  11FB  00AE               	movwf	___xxtofl@val^(0+128)
  3777  11FC  3000               	movlw	0
  3778  11FD  160A  118A  20E6  160A  118A  	fcall	___xxtofl
  3779  1202  1683               	bsf	3,5	;RP0=1, select bank1
  3780  1203  1303               	bcf	3,6	;RP1=0, select bank1
  3781  1204  0831               	movf	(?___xxtofl+3)^(0+128),w
  3782  1205  00C3               	movwf	(___fldiv@b+3)^(0+128)
  3783  1206  0830               	movf	(?___xxtofl+2)^(0+128),w
  3784  1207  00C2               	movwf	(___fldiv@b+2)^(0+128)
  3785  1208  082F               	movf	(?___xxtofl+1)^(0+128),w
  3786  1209  00C1               	movwf	(___fldiv@b+1)^(0+128)
  3787  120A  082E               	movf	?___xxtofl^(0+128),w
  3788  120B  00C0               	movwf	___fldiv@b^(0+128)
  3789  120C  086E               	movf	_ps^(0+128),w
  3790  120D  1683               	bsf	3,5	;RP0=1, select bank3
  3791  120E  1703               	bsf	3,6	;RP1=1, select bank3
  3792  120F  009B               	movwf	??_set_Tpwm^(0+384)
  3793  1210  019C               	clrf	(??_set_Tpwm^(0+384)+1)
  3794  1211  1003               	clrc
  3795  1212  0D9B               	rlf	??_set_Tpwm^(0+384),f
  3796  1213  0D9C               	rlf	(??_set_Tpwm^(0+384)+1),f
  3797  1214  1003               	clrc
  3798  1215  0D9B               	rlf	??_set_Tpwm^(0+384),f
  3799  1216  0D9C               	rlf	(??_set_Tpwm^(0+384)+1),f
  3800  1217  081B               	movf	??_set_Tpwm^(0+384),w
  3801  1218  1683               	bsf	3,5	;RP0=1, select bank1
  3802  1219  1303               	bcf	3,6	;RP1=0, select bank1
  3803  121A  00AE               	movwf	___xxtofl@val^(0+128)
  3804  121B  1683               	bsf	3,5	;RP0=1, select bank3
  3805  121C  1703               	bsf	3,6	;RP1=1, select bank3
  3806  121D  081C               	movf	(??_set_Tpwm+1)^(0+384),w
  3807  121E  1683               	bsf	3,5	;RP0=1, select bank1
  3808  121F  1303               	bcf	3,6	;RP1=0, select bank1
  3809  1220  00AF               	movwf	(___xxtofl@val+1)^(0+128)
  3810  1221  3000               	movlw	0
  3811  1222  1BAF               	btfsc	(___xxtofl@val+1)^(0+128),7
  3812  1223  30FF               	movlw	255
  3813  1224  00B0               	movwf	(___xxtofl@val+2)^(0+128)
  3814  1225  00B1               	movwf	(___xxtofl@val+3)^(0+128)
  3815  1226  3001               	movlw	1
  3816  1227  160A  118A  20E6  160A  118A  	fcall	___xxtofl
  3817  122C  1683               	bsf	3,5	;RP0=1, select bank1
  3818  122D  1303               	bcf	3,6	;RP1=0, select bank1
  3819  122E  0831               	movf	(?___xxtofl+3)^(0+128),w
  3820  122F  00BF               	movwf	(___fldiv@a+3)^(0+128)
  3821  1230  0830               	movf	(?___xxtofl+2)^(0+128),w
  3822  1231  00BE               	movwf	(___fldiv@a+2)^(0+128)
  3823  1232  082F               	movf	(?___xxtofl+1)^(0+128),w
  3824  1233  00BD               	movwf	(___fldiv@a+1)^(0+128)
  3825  1234  082E               	movf	?___xxtofl^(0+128),w
  3826  1235  00BC               	movwf	___fldiv@a^(0+128)
  3827  1236  120A  158A  203A  160A  118A  	fcall	___fldiv
  3828  123B  1683               	bsf	3,5	;RP0=1, select bank1
  3829  123C  1303               	bcf	3,6	;RP1=0, select bank1
  3830  123D  083F               	movf	(?___fldiv+3)^(0+128),w
  3831  123E  00DD               	movwf	(___fladd@a+3)^(0+128)
  3832  123F  083E               	movf	(?___fldiv+2)^(0+128),w
  3833  1240  00DC               	movwf	(___fladd@a+2)^(0+128)
  3834  1241  083D               	movf	(?___fldiv+1)^(0+128),w
  3835  1242  00DB               	movwf	(___fladd@a+1)^(0+128)
  3836  1243  083C               	movf	?___fldiv^(0+128),w
  3837  1244  00DA               	movwf	___fladd@a^(0+128)
  3838  1245  30BF               	movlw	191
  3839  1246  00D9               	movwf	(___fladd@b+3)^(0+128)
  3840  1247  3080               	movlw	128
  3841  1248  00D8               	movwf	(___fladd@b+2)^(0+128)
  3842  1249  3000               	movlw	0
  3843  124A  00D7               	movwf	(___fladd@b+1)^(0+128)
  3844  124B  3000               	movlw	0
  3845  124C  00D6               	movwf	___fladd@b^(0+128)
  3846  124D  120A  158A  2217  160A  118A  	fcall	___fladd
  3847  1252  1683               	bsf	3,5	;RP0=1, select bank1
  3848  1253  1303               	bcf	3,6	;RP1=0, select bank1
  3849  1254  0859               	movf	(?___fladd+3)^(0+128),w
  3850  1255  1683               	bsf	3,5	;RP0=1, select bank3
  3851  1256  1703               	bsf	3,6	;RP1=1, select bank3
  3852  1257  0093               	movwf	(___fltol@f1+3)^(0+384)
  3853  1258  1683               	bsf	3,5	;RP0=1, select bank1
  3854  1259  1303               	bcf	3,6	;RP1=0, select bank1
  3855  125A  0858               	movf	(?___fladd+2)^(0+128),w
  3856  125B  1683               	bsf	3,5	;RP0=1, select bank3
  3857  125C  1703               	bsf	3,6	;RP1=1, select bank3
  3858  125D  0092               	movwf	(___fltol@f1+2)^(0+384)
  3859  125E  1683               	bsf	3,5	;RP0=1, select bank1
  3860  125F  1303               	bcf	3,6	;RP1=0, select bank1
  3861  1260  0857               	movf	(?___fladd+1)^(0+128),w
  3862  1261  1683               	bsf	3,5	;RP0=1, select bank3
  3863  1262  1703               	bsf	3,6	;RP1=1, select bank3
  3864  1263  0091               	movwf	(___fltol@f1+1)^(0+384)
  3865  1264  1683               	bsf	3,5	;RP0=1, select bank1
  3866  1265  1303               	bcf	3,6	;RP1=0, select bank1
  3867  1266  0856               	movf	?___fladd^(0+128),w
  3868  1267  1683               	bsf	3,5	;RP0=1, select bank3
  3869  1268  1703               	bsf	3,6	;RP1=1, select bank3
  3870  1269  0090               	movwf	___fltol@f1^(0+384)
  3871  126A  160A  158A  26D1  160A  118A  	fcall	___fltol
  3872  126F  1683               	bsf	3,5	;RP0=1, select bank3
  3873  1270  1703               	bsf	3,6	;RP1=1, select bank3
  3874  1271  0810               	movf	?___fltol^(0+384),w
  3875  1272  1683               	bsf	3,5	;RP0=1, select bank1
  3876  1273  1303               	bcf	3,6	;RP1=0, select bank1
  3877  1274  0092               	movwf	18	;volatile
  3878  1275                     l281:
  3879  1275  0008               	return
  3880  1276                     __end_of_set_Tpwm:
  3881                           
  3882                           	psect	text2
  3883  10E6                     __ptext2:	
  3884 ;; *************** function ___xxtofl *****************
  3885 ;; Defined at:
  3886 ;;		line 10 in file "C:\Program Files\Microchip\xc8\v2.30\pic\sources\c90\common\xxtofl.c"
  3887 ;; Parameters:    Size  Location     Type
  3888 ;;  sign            1    wreg     unsigned char 
  3889 ;;  val             4   14[BANK1 ] long 
  3890 ;; Auto vars:     Size  Location     Type
  3891 ;;  sign            1   22[BANK1 ] unsigned char 
  3892 ;;  arg             4   24[BANK1 ] unsigned long 
  3893 ;;  exp             1   23[BANK1 ] unsigned char 
  3894 ;; Return value:  Size  Location     Type
  3895 ;;                  4   14[BANK1 ] unsigned char 
  3896 ;; Registers used:
  3897 ;;		wreg, status,2, status,0
  3898 ;; Tracked objects:
  3899 ;;		On entry : 0/0
  3900 ;;		On exit  : 0/0
  3901 ;;		Unchanged: 0/0
  3902 ;; Data sizes:     COMMON   BANK0   BANK1   BANK3   BANK2
  3903 ;;      Params:         0       0       4       0       0
  3904 ;;      Locals:         0       0       6       0       0
  3905 ;;      Temps:          0       0       4       0       0
  3906 ;;      Totals:         0       0      14       0       0
  3907 ;;Total ram usage:       14 bytes
  3908 ;; Hardware stack levels used:    1
  3909 ;; Hardware stack levels required when called:    5
  3910 ;; This function calls:
  3911 ;;		Nothing
  3912 ;; This function is called by:
  3913 ;;		_set_Tpwm
  3914 ;; This function uses a non-reentrant model
  3915 ;;
  3916                           
  3917                           
  3918                           ;psect for function ___xxtofl
  3919  10E6                     ___xxtofl:
  3920                           
  3921                           ;incstack = 0
  3922                           ; Regs used in ___xxtofl: [wreg+status,2+status,0]
  3923                           ;___xxtofl@sign stored from wreg
  3924  10E6  1683               	bsf	3,5	;RP0=1, select bank1
  3925  10E7  1303               	bcf	3,6	;RP1=0, select bank1
  3926  10E8  00B6               	movwf	___xxtofl@sign^(0+128)
  3927  10E9                     l3776:
  3928  10E9  0836               	movf	___xxtofl@sign^(0+128),w
  3929  10EA  1903               	btfsc	3,2
  3930  10EB  28ED               	goto	u6071
  3931  10EC  28EE               	goto	u6070
  3932  10ED                     u6071:
  3933  10ED  2902               	goto	l3782
  3934  10EE                     u6070:
  3935  10EE                     l3778:
  3936  10EE  1FB1               	btfss	(___xxtofl@val+3)^(0+128),7
  3937  10EF  28F1               	goto	u6081
  3938  10F0  28F2               	goto	u6080
  3939  10F1                     u6081:
  3940  10F1  2902               	goto	l3782
  3941  10F2                     u6080:
  3942  10F2                     l3780:
  3943  10F2  092E               	comf	___xxtofl@val^(0+128),w
  3944  10F3  00B8               	movwf	___xxtofl@arg^(0+128)
  3945  10F4  092F               	comf	(___xxtofl@val^(0+128)+1),w
  3946  10F5  00B9               	movwf	(___xxtofl@arg+1)^(0+128)
  3947  10F6  0930               	comf	(___xxtofl@val^(0+128)+2),w
  3948  10F7  00BA               	movwf	(___xxtofl@arg+2)^(0+128)
  3949  10F8  0931               	comf	(___xxtofl@val^(0+128)+3),w
  3950  10F9  00BB               	movwf	(___xxtofl@arg+3)^(0+128)
  3951  10FA  0AB8               	incf	___xxtofl@arg^(0+128),f
  3952  10FB  1903               	skipnz
  3953  10FC  0AB9               	incf	(___xxtofl@arg+1)^(0+128),f
  3954  10FD  1903               	skipnz
  3955  10FE  0ABA               	incf	(___xxtofl@arg+2)^(0+128),f
  3956  10FF  1903               	skipnz
  3957  1100  0ABB               	incf	(___xxtofl@arg+3)^(0+128),f
  3958  1101  290A               	goto	l907
  3959  1102                     l3782:
  3960  1102  0831               	movf	(___xxtofl@val+3)^(0+128),w
  3961  1103  00BB               	movwf	(___xxtofl@arg+3)^(0+128)
  3962  1104  0830               	movf	(___xxtofl@val+2)^(0+128),w
  3963  1105  00BA               	movwf	(___xxtofl@arg+2)^(0+128)
  3964  1106  082F               	movf	(___xxtofl@val+1)^(0+128),w
  3965  1107  00B9               	movwf	(___xxtofl@arg+1)^(0+128)
  3966  1108  082E               	movf	___xxtofl@val^(0+128),w
  3967  1109  00B8               	movwf	___xxtofl@arg^(0+128)
  3968  110A                     l907:
  3969  110A  0831               	movf	(___xxtofl@val+3)^(0+128),w
  3970  110B  0430               	iorwf	(___xxtofl@val+2)^(0+128),w
  3971  110C  042F               	iorwf	(___xxtofl@val+1)^(0+128),w
  3972  110D  042E               	iorwf	___xxtofl@val^(0+128),w
  3973  110E  1D03               	skipz
  3974  110F  2911               	goto	u6091
  3975  1110  2912               	goto	u6090
  3976  1111                     u6091:
  3977  1111  291B               	goto	l3788
  3978  1112                     u6090:
  3979  1112                     l3784:
  3980  1112  3000               	movlw	0
  3981  1113  00B1               	movwf	(?___xxtofl+3)^(0+128)
  3982  1114  3000               	movlw	0
  3983  1115  00B0               	movwf	(?___xxtofl+2)^(0+128)
  3984  1116  3000               	movlw	0
  3985  1117  00AF               	movwf	(?___xxtofl+1)^(0+128)
  3986  1118  3000               	movlw	0
  3987  1119  00AE               	movwf	?___xxtofl^(0+128)
  3988  111A  29A1               	goto	l909
  3989  111B                     l3788:
  3990  111B  3096               	movlw	150
  3991  111C  00B2               	movwf	??___xxtofl^(0+128)
  3992  111D  0832               	movf	??___xxtofl^(0+128),w
  3993  111E  00B7               	movwf	___xxtofl@exp^(0+128)
  3994  111F  292D               	goto	l3792
  3995  1120                     l3790:
  3996  1120  3001               	movlw	1
  3997  1121  00B2               	movwf	??___xxtofl^(0+128)
  3998  1122  0832               	movf	??___xxtofl^(0+128),w
  3999  1123  07B7               	addwf	___xxtofl@exp^(0+128),f
  4000  1124  3001               	movlw	1
  4001  1125                     u6105:
  4002  1125  1003               	clrc
  4003  1126  0CBB               	rrf	(___xxtofl@arg+3)^(0+128),f
  4004  1127  0CBA               	rrf	(___xxtofl@arg+2)^(0+128),f
  4005  1128  0CB9               	rrf	(___xxtofl@arg+1)^(0+128),f
  4006  1129  0CB8               	rrf	___xxtofl@arg^(0+128),f
  4007  112A  3EFF               	addlw	-1
  4008  112B  1D03               	skipz
  4009  112C  2925               	goto	u6105
  4010  112D                     l3792:
  4011  112D  30FE               	movlw	254
  4012  112E  053B               	andwf	(___xxtofl@arg+3)^(0+128),w
  4013  112F  1D03               	btfss	3,2
  4014  1130  2932               	goto	u6111
  4015  1131  2933               	goto	u6110
  4016  1132                     u6111:
  4017  1132  2920               	goto	l3790
  4018  1133                     u6110:
  4019  1133  294F               	goto	l913
  4020  1134                     l3794:
  4021  1134  3001               	movlw	1
  4022  1135  00B2               	movwf	??___xxtofl^(0+128)
  4023  1136  0832               	movf	??___xxtofl^(0+128),w
  4024  1137  07B7               	addwf	___xxtofl@exp^(0+128),f
  4025  1138                     l3796:
  4026  1138  3001               	movlw	1
  4027  1139  07B8               	addwf	___xxtofl@arg^(0+128),f
  4028  113A  3000               	movlw	0
  4029  113B  1803               	skipnc
  4030  113C  3001               	movlw	1
  4031  113D  07B9               	addwf	(___xxtofl@arg+1)^(0+128),f
  4032  113E  3000               	movlw	0
  4033  113F  1803               	skipnc
  4034  1140  3001               	movlw	1
  4035  1141  07BA               	addwf	(___xxtofl@arg+2)^(0+128),f
  4036  1142  3000               	movlw	0
  4037  1143  1803               	skipnc
  4038  1144  3001               	movlw	1
  4039  1145  07BB               	addwf	(___xxtofl@arg+3)^(0+128),f
  4040  1146                     l3798:
  4041  1146  3001               	movlw	1
  4042  1147                     u6125:
  4043  1147  1003               	clrc
  4044  1148  0CBB               	rrf	(___xxtofl@arg+3)^(0+128),f
  4045  1149  0CBA               	rrf	(___xxtofl@arg+2)^(0+128),f
  4046  114A  0CB9               	rrf	(___xxtofl@arg+1)^(0+128),f
  4047  114B  0CB8               	rrf	___xxtofl@arg^(0+128),f
  4048  114C  3EFF               	addlw	-1
  4049  114D  1D03               	skipz
  4050  114E  2947               	goto	u6125
  4051  114F                     l913:
  4052  114F  30FF               	movlw	255
  4053  1150  053B               	andwf	(___xxtofl@arg+3)^(0+128),w
  4054  1151  1D03               	btfss	3,2
  4055  1152  2954               	goto	u6131
  4056  1153  2955               	goto	u6130
  4057  1154                     u6131:
  4058  1154  2934               	goto	l3794
  4059  1155                     u6130:
  4060  1155  2961               	goto	l3802
  4061  1156                     l3800:
  4062  1156  3001               	movlw	1
  4063  1157  02B7               	subwf	___xxtofl@exp^(0+128),f
  4064  1158  3001               	movlw	1
  4065  1159  00B2               	movwf	??___xxtofl^(0+128)
  4066  115A                     u6145:
  4067  115A  1003               	clrc
  4068  115B  0DB8               	rlf	___xxtofl@arg^(0+128),f
  4069  115C  0DB9               	rlf	(___xxtofl@arg+1)^(0+128),f
  4070  115D  0DBA               	rlf	(___xxtofl@arg+2)^(0+128),f
  4071  115E  0DBB               	rlf	(___xxtofl@arg+3)^(0+128),f
  4072  115F  0BB2               	decfsz	??___xxtofl^(0+128),f
  4073  1160  295A               	goto	u6145
  4074  1161                     l3802:
  4075  1161  1BBA               	btfsc	(___xxtofl@arg+2)^(0+128),7
  4076  1162  2964               	goto	u6151
  4077  1163  2965               	goto	u6150
  4078  1164                     u6151:
  4079  1164  296B               	goto	l920
  4080  1165                     u6150:
  4081  1165                     l3804:
  4082  1165  3002               	movlw	2
  4083  1166  0237               	subwf	___xxtofl@exp^(0+128),w
  4084  1167  1803               	skipnc
  4085  1168  296A               	goto	u6161
  4086  1169  296B               	goto	u6160
  4087  116A                     u6161:
  4088  116A  2956               	goto	l3800
  4089  116B                     u6160:
  4090  116B                     l920:
  4091  116B  1837               	btfsc	___xxtofl@exp^(0+128),0
  4092  116C  296E               	goto	u6171
  4093  116D  296F               	goto	u6170
  4094  116E                     u6171:
  4095  116E  2977               	goto	l921
  4096  116F                     u6170:
  4097  116F                     l3806:
  4098  116F  30FF               	movlw	255
  4099  1170  05B8               	andwf	___xxtofl@arg^(0+128),f
  4100  1171  30FF               	movlw	255
  4101  1172  05B9               	andwf	(___xxtofl@arg+1)^(0+128),f
  4102  1173  307F               	movlw	127
  4103  1174  05BA               	andwf	(___xxtofl@arg+2)^(0+128),f
  4104  1175  30FF               	movlw	255
  4105  1176  05BB               	andwf	(___xxtofl@arg+3)^(0+128),f
  4106  1177                     l921:
  4107  1177  1003               	clrc
  4108  1178  0CB7               	rrf	___xxtofl@exp^(0+128),f
  4109  1179                     l3808:
  4110  1179  0837               	movf	___xxtofl@exp^(0+128),w
  4111  117A  00B2               	movwf	??___xxtofl^(0+128)
  4112  117B  01B3               	clrf	(??___xxtofl^(0+128)+1)
  4113  117C  01B4               	clrf	(??___xxtofl^(0+128)+2)
  4114  117D  01B5               	clrf	(??___xxtofl^(0+128)+3)
  4115  117E  3018               	movlw	24
  4116  117F                     u6185:
  4117  117F  1003               	clrc
  4118  1180  0DB2               	rlf	??___xxtofl^(0+128),f
  4119  1181  0DB3               	rlf	(??___xxtofl^(0+128)+1),f
  4120  1182  0DB4               	rlf	(??___xxtofl^(0+128)+2),f
  4121  1183  0DB5               	rlf	(??___xxtofl^(0+128)+3),f
  4122  1184                     u6180:
  4123  1184  3EFF               	addlw	-1
  4124  1185  1D03               	skipz
  4125  1186  297F               	goto	u6185
  4126  1187  0832               	movf	??___xxtofl^(0+128),w
  4127  1188  04B8               	iorwf	___xxtofl@arg^(0+128),f
  4128  1189  0833               	movf	(??___xxtofl+1)^(0+128),w
  4129  118A  04B9               	iorwf	(___xxtofl@arg+1)^(0+128),f
  4130  118B  0834               	movf	(??___xxtofl+2)^(0+128),w
  4131  118C  04BA               	iorwf	(___xxtofl@arg+2)^(0+128),f
  4132  118D  0835               	movf	(??___xxtofl+3)^(0+128),w
  4133  118E  04BB               	iorwf	(___xxtofl@arg+3)^(0+128),f
  4134  118F                     l3810:
  4135  118F  0836               	movf	___xxtofl@sign^(0+128),w
  4136  1190  1903               	btfsc	3,2
  4137  1191  2993               	goto	u6191
  4138  1192  2994               	goto	u6190
  4139  1193                     u6191:
  4140  1193  2999               	goto	l3816
  4141  1194                     u6190:
  4142  1194                     l3812:
  4143  1194  1FB1               	btfss	(___xxtofl@val+3)^(0+128),7
  4144  1195  2997               	goto	u6201
  4145  1196  2998               	goto	u6200
  4146  1197                     u6201:
  4147  1197  2999               	goto	l3816
  4148  1198                     u6200:
  4149  1198                     l3814:
  4150  1198  17BB               	bsf	(___xxtofl@arg^(0+128)+3),7
  4151  1199                     l3816:
  4152  1199  083B               	movf	(___xxtofl@arg+3)^(0+128),w
  4153  119A  00B1               	movwf	(?___xxtofl+3)^(0+128)
  4154  119B  083A               	movf	(___xxtofl@arg+2)^(0+128),w
  4155  119C  00B0               	movwf	(?___xxtofl+2)^(0+128)
  4156  119D  0839               	movf	(___xxtofl@arg+1)^(0+128),w
  4157  119E  00AF               	movwf	(?___xxtofl+1)^(0+128)
  4158  119F  0838               	movf	___xxtofl@arg^(0+128),w
  4159  11A0  00AE               	movwf	?___xxtofl^(0+128)
  4160  11A1                     l909:
  4161  11A1  0008               	return
  4162  11A2                     __end_of___xxtofl:
  4163                           
  4164                           	psect	text3
  4165  1DED                     __ptext3:	
  4166 ;; *************** function ___lldiv *****************
  4167 ;; Defined at:
  4168 ;;		line 5 in file "C:\Program Files\Microchip\xc8\v2.30\pic\sources\c90\common\__lldiv.c"
  4169 ;; Parameters:    Size  Location     Type
  4170 ;;  divisor         4    0[BANK1 ] unsigned long 
  4171 ;;  dividend        4    4[BANK1 ] unsigned long 
  4172 ;; Auto vars:     Size  Location     Type
  4173 ;;  quotient        4    9[BANK1 ] unsigned long 
  4174 ;;  counter         1   13[BANK1 ] unsigned char 
  4175 ;; Return value:  Size  Location     Type
  4176 ;;                  4    0[BANK1 ] unsigned long 
  4177 ;; Registers used:
  4178 ;;		wreg, status,2, status,0
  4179 ;; Tracked objects:
  4180 ;;		On entry : 0/0
  4181 ;;		On exit  : 0/0
  4182 ;;		Unchanged: 0/0
  4183 ;; Data sizes:     COMMON   BANK0   BANK1   BANK3   BANK2
  4184 ;;      Params:         0       0       8       0       0
  4185 ;;      Locals:         0       0       5       0       0
  4186 ;;      Temps:          0       0       1       0       0
  4187 ;;      Totals:         0       0      14       0       0
  4188 ;;Total ram usage:       14 bytes
  4189 ;; Hardware stack levels used:    1
  4190 ;; Hardware stack levels required when called:    5
  4191 ;; This function calls:
  4192 ;;		Nothing
  4193 ;; This function is called by:
  4194 ;;		_set_Tpwm
  4195 ;; This function uses a non-reentrant model
  4196 ;;
  4197                           
  4198                           
  4199                           ;psect for function ___lldiv
  4200  1DED                     ___lldiv:
  4201  1DED                     l3380:	
  4202                           ;incstack = 0
  4203                           ; Regs used in ___lldiv: [wreg+status,2+status,0]
  4204                           
  4205  1DED  3000               	movlw	0
  4206  1DEE  1683               	bsf	3,5	;RP0=1, select bank1
  4207  1DEF  1303               	bcf	3,6	;RP1=0, select bank1
  4208  1DF0  00AC               	movwf	(___lldiv@quotient+3)^(0+128)
  4209  1DF1  3000               	movlw	0
  4210  1DF2  00AB               	movwf	(___lldiv@quotient+2)^(0+128)
  4211  1DF3  3000               	movlw	0
  4212  1DF4  00AA               	movwf	(___lldiv@quotient+1)^(0+128)
  4213  1DF5  3000               	movlw	0
  4214  1DF6  00A9               	movwf	___lldiv@quotient^(0+128)
  4215  1DF7  0823               	movf	(___lldiv@divisor+3)^(0+128),w
  4216  1DF8  0422               	iorwf	(___lldiv@divisor+2)^(0+128),w
  4217  1DF9  0421               	iorwf	(___lldiv@divisor+1)^(0+128),w
  4218  1DFA  0420               	iorwf	___lldiv@divisor^(0+128),w
  4219  1DFB  1903               	skipnz
  4220  1DFC  2DFE               	goto	u5151
  4221  1DFD  2DFF               	goto	u5150
  4222  1DFE                     u5151:
  4223  1DFE  2E4C               	goto	l3400
  4224  1DFF                     u5150:
  4225  1DFF                     l3382:
  4226  1DFF  01AD               	clrf	___lldiv@counter^(0+128)
  4227  1E00  0AAD               	incf	___lldiv@counter^(0+128),f
  4228  1E01  2E0F               	goto	l3386
  4229  1E02                     l3384:
  4230  1E02  3001               	movlw	1
  4231  1E03  00A8               	movwf	??___lldiv^(0+128)
  4232  1E04                     u5165:
  4233  1E04  1003               	clrc
  4234  1E05  0DA0               	rlf	___lldiv@divisor^(0+128),f
  4235  1E06  0DA1               	rlf	(___lldiv@divisor+1)^(0+128),f
  4236  1E07  0DA2               	rlf	(___lldiv@divisor+2)^(0+128),f
  4237  1E08  0DA3               	rlf	(___lldiv@divisor+3)^(0+128),f
  4238  1E09  0BA8               	decfsz	??___lldiv^(0+128),f
  4239  1E0A  2E04               	goto	u5165
  4240  1E0B  3001               	movlw	1
  4241  1E0C  00A8               	movwf	??___lldiv^(0+128)
  4242  1E0D  0828               	movf	??___lldiv^(0+128),w
  4243  1E0E  07AD               	addwf	___lldiv@counter^(0+128),f
  4244  1E0F                     l3386:
  4245  1E0F  1FA3               	btfss	(___lldiv@divisor+3)^(0+128),7
  4246  1E10  2E12               	goto	u5171
  4247  1E11  2E13               	goto	u5170
  4248  1E12                     u5171:
  4249  1E12  2E02               	goto	l3384
  4250  1E13                     u5170:
  4251  1E13                     l3388:
  4252  1E13  3001               	movlw	1
  4253  1E14  00A8               	movwf	??___lldiv^(0+128)
  4254  1E15                     u5185:
  4255  1E15  1003               	clrc
  4256  1E16  0DA9               	rlf	___lldiv@quotient^(0+128),f
  4257  1E17  0DAA               	rlf	(___lldiv@quotient+1)^(0+128),f
  4258  1E18  0DAB               	rlf	(___lldiv@quotient+2)^(0+128),f
  4259  1E19  0DAC               	rlf	(___lldiv@quotient+3)^(0+128),f
  4260  1E1A  0BA8               	decfsz	??___lldiv^(0+128),f
  4261  1E1B  2E15               	goto	u5185
  4262  1E1C                     l3390:
  4263  1E1C  0823               	movf	(___lldiv@divisor+3)^(0+128),w
  4264  1E1D  0227               	subwf	(___lldiv@dividend+3)^(0+128),w
  4265  1E1E  1D03               	skipz
  4266  1E1F  2E2A               	goto	u5195
  4267  1E20  0822               	movf	(___lldiv@divisor+2)^(0+128),w
  4268  1E21  0226               	subwf	(___lldiv@dividend+2)^(0+128),w
  4269  1E22  1D03               	skipz
  4270  1E23  2E2A               	goto	u5195
  4271  1E24  0821               	movf	(___lldiv@divisor+1)^(0+128),w
  4272  1E25  0225               	subwf	(___lldiv@dividend+1)^(0+128),w
  4273  1E26  1D03               	skipz
  4274  1E27  2E2A               	goto	u5195
  4275  1E28  0820               	movf	___lldiv@divisor^(0+128),w
  4276  1E29  0224               	subwf	___lldiv@dividend^(0+128),w
  4277  1E2A                     u5195:
  4278  1E2A  1C03               	skipc
  4279  1E2B  2E2D               	goto	u5191
  4280  1E2C  2E2E               	goto	u5190
  4281  1E2D                     u5191:
  4282  1E2D  2E3D               	goto	l3396
  4283  1E2E                     u5190:
  4284  1E2E                     l3392:
  4285  1E2E  0820               	movf	___lldiv@divisor^(0+128),w
  4286  1E2F  02A4               	subwf	___lldiv@dividend^(0+128),f
  4287  1E30  0821               	movf	(___lldiv@divisor+1)^(0+128),w
  4288  1E31  1C03               	skipc
  4289  1E32  0F21               	incfsz	(___lldiv@divisor+1)^(0+128),w
  4290  1E33  02A5               	subwf	(___lldiv@dividend+1)^(0+128),f
  4291  1E34  0822               	movf	(___lldiv@divisor+2)^(0+128),w
  4292  1E35  1C03               	skipc
  4293  1E36  0F22               	incfsz	(___lldiv@divisor+2)^(0+128),w
  4294  1E37  02A6               	subwf	(___lldiv@dividend+2)^(0+128),f
  4295  1E38  0823               	movf	(___lldiv@divisor+3)^(0+128),w
  4296  1E39  1C03               	skipc
  4297  1E3A  0F23               	incfsz	(___lldiv@divisor+3)^(0+128),w
  4298  1E3B  02A7               	subwf	(___lldiv@dividend+3)^(0+128),f
  4299  1E3C                     l3394:
  4300  1E3C  1429               	bsf	___lldiv@quotient^(0+128),0
  4301  1E3D                     l3396:
  4302  1E3D  3001               	movlw	1
  4303  1E3E                     u5205:
  4304  1E3E  1003               	clrc
  4305  1E3F  0CA3               	rrf	(___lldiv@divisor+3)^(0+128),f
  4306  1E40  0CA2               	rrf	(___lldiv@divisor+2)^(0+128),f
  4307  1E41  0CA1               	rrf	(___lldiv@divisor+1)^(0+128),f
  4308  1E42  0CA0               	rrf	___lldiv@divisor^(0+128),f
  4309  1E43  3EFF               	addlw	-1
  4310  1E44  1D03               	skipz
  4311  1E45  2E3E               	goto	u5205
  4312  1E46                     l3398:
  4313  1E46  3001               	movlw	1
  4314  1E47  02AD               	subwf	___lldiv@counter^(0+128),f
  4315  1E48  1D03               	btfss	3,2
  4316  1E49  2E4B               	goto	u5211
  4317  1E4A  2E4C               	goto	u5210
  4318  1E4B                     u5211:
  4319  1E4B  2E13               	goto	l3388
  4320  1E4C                     u5210:
  4321  1E4C                     l3400:
  4322  1E4C  082C               	movf	(___lldiv@quotient+3)^(0+128),w
  4323  1E4D  00A3               	movwf	(?___lldiv+3)^(0+128)
  4324  1E4E  082B               	movf	(___lldiv@quotient+2)^(0+128),w
  4325  1E4F  00A2               	movwf	(?___lldiv+2)^(0+128)
  4326  1E50  082A               	movf	(___lldiv@quotient+1)^(0+128),w
  4327  1E51  00A1               	movwf	(?___lldiv+1)^(0+128)
  4328  1E52  0829               	movf	___lldiv@quotient^(0+128),w
  4329  1E53  00A0               	movwf	?___lldiv^(0+128)
  4330  1E54                     l510:
  4331  1E54  0008               	return
  4332  1E55                     __end_of___lldiv:
  4333                           
  4334                           	psect	text4
  4335  1ED1                     __ptext4:	
  4336 ;; *************** function ___fltol *****************
  4337 ;; Defined at:
  4338 ;;		line 43 in file "C:\Program Files\Microchip\xc8\v2.30\pic\sources\c90\common\fltol.c"
  4339 ;; Parameters:    Size  Location     Type
  4340 ;;  f1              4    0[BANK3 ] unsigned long 
  4341 ;; Auto vars:     Size  Location     Type
  4342 ;;  exp1            1   10[BANK3 ] unsigned char 
  4343 ;;  sign1           1    9[BANK3 ] unsigned char 
  4344 ;; Return value:  Size  Location     Type
  4345 ;;                  4    0[BANK3 ] long 
  4346 ;; Registers used:
  4347 ;;		wreg, status,2, status,0
  4348 ;; Tracked objects:
  4349 ;;		On entry : 0/0
  4350 ;;		On exit  : 0/0
  4351 ;;		Unchanged: 0/0
  4352 ;; Data sizes:     COMMON   BANK0   BANK1   BANK3   BANK2
  4353 ;;      Params:         0       0       0       4       0
  4354 ;;      Locals:         0       0       0       2       0
  4355 ;;      Temps:          0       0       0       5       0
  4356 ;;      Totals:         0       0       0      11       0
  4357 ;;Total ram usage:       11 bytes
  4358 ;; Hardware stack levels used:    1
  4359 ;; Hardware stack levels required when called:    5
  4360 ;; This function calls:
  4361 ;;		Nothing
  4362 ;; This function is called by:
  4363 ;;		_set_Tpwm
  4364 ;; This function uses a non-reentrant model
  4365 ;;
  4366                           
  4367                           
  4368                           ;psect for function ___fltol
  4369  1ED1                     ___fltol:
  4370  1ED1                     l4632:	
  4371                           ;incstack = 0
  4372                           ; Regs used in ___fltol: [wreg+status,2+status,0]
  4373                           
  4374  1ED1  1003               	clrc
  4375  1ED2  1683               	bsf	3,5	;RP0=1, select bank3
  4376  1ED3  1703               	bsf	3,6	;RP1=1, select bank3
  4377  1ED4  0D12               	rlf	(___fltol@f1+2)^(0+384),w
  4378  1ED5  0D13               	rlf	(___fltol@f1+3)^(0+384),w
  4379  1ED6  0094               	movwf	??___fltol^(0+384)
  4380  1ED7  0814               	movf	??___fltol^(0+384),w
  4381  1ED8  009A               	movwf	___fltol@exp1^(0+384)
  4382  1ED9  081A               	movf	___fltol@exp1^(0+384),w
  4383  1EDA  1D03               	btfss	3,2
  4384  1EDB  2EDD               	goto	u7331
  4385  1EDC  2EDE               	goto	u7330
  4386  1EDD                     u7331:
  4387  1EDD  2EE7               	goto	l4638
  4388  1EDE                     u7330:
  4389  1EDE                     l4634:
  4390  1EDE  3000               	movlw	0
  4391  1EDF  0093               	movwf	(?___fltol+3)^(0+384)
  4392  1EE0  3000               	movlw	0
  4393  1EE1  0092               	movwf	(?___fltol+2)^(0+384)
  4394  1EE2  3000               	movlw	0
  4395  1EE3  0091               	movwf	(?___fltol+1)^(0+384)
  4396  1EE4  3000               	movlw	0
  4397  1EE5  0090               	movwf	?___fltol^(0+384)
  4398  1EE6  2F4C               	goto	l660
  4399  1EE7                     l4638:
  4400  1EE7  0810               	movf	___fltol@f1^(0+384),w
  4401  1EE8  0094               	movwf	??___fltol^(0+384)
  4402  1EE9  0811               	movf	(___fltol@f1+1)^(0+384),w
  4403  1EEA  0095               	movwf	(??___fltol^(0+384)+1)
  4404  1EEB  0812               	movf	(___fltol@f1+2)^(0+384),w
  4405  1EEC  0096               	movwf	(??___fltol^(0+384)+2)
  4406  1EED  0813               	movf	(___fltol@f1+3)^(0+384),w
  4407  1EEE  0097               	movwf	(??___fltol^(0+384)+3)
  4408  1EEF  301F               	movlw	31
  4409  1EF0                     u7345:
  4410  1EF0  1003               	clrc
  4411  1EF1  0C97               	rrf	(??___fltol^(0+384)+3),f
  4412  1EF2  0C96               	rrf	(??___fltol^(0+384)+2),f
  4413  1EF3  0C95               	rrf	(??___fltol^(0+384)+1),f
  4414  1EF4  0C94               	rrf	??___fltol^(0+384),f
  4415  1EF5                     u7340:
  4416  1EF5  3EFF               	addlw	-1
  4417  1EF6  1D03               	skipz
  4418  1EF7  2EF0               	goto	u7345
  4419  1EF8  0814               	movf	??___fltol^(0+384),w
  4420  1EF9  0098               	movwf	(??___fltol+4)^(0+384)
  4421  1EFA  0818               	movf	(??___fltol+4)^(0+384),w
  4422  1EFB  0099               	movwf	___fltol@sign1^(0+384)
  4423  1EFC                     l4640:
  4424  1EFC  1792               	bsf	(___fltol@f1^(0+384)+2),7
  4425  1EFD                     l4642:
  4426  1EFD  30FF               	movlw	255
  4427  1EFE  0590               	andwf	___fltol@f1^(0+384),f
  4428  1EFF  30FF               	movlw	255
  4429  1F00  0591               	andwf	(___fltol@f1+1)^(0+384),f
  4430  1F01  30FF               	movlw	255
  4431  1F02  0592               	andwf	(___fltol@f1+2)^(0+384),f
  4432  1F03  3000               	movlw	0
  4433  1F04  0593               	andwf	(___fltol@f1+3)^(0+384),f
  4434  1F05                     l4644:
  4435  1F05  3096               	movlw	150
  4436  1F06  029A               	subwf	___fltol@exp1^(0+384),f
  4437  1F07                     l4646:
  4438  1F07  1F9A               	btfss	___fltol@exp1^(0+384),7
  4439  1F08  2F0A               	goto	u7351
  4440  1F09  2F0B               	goto	u7350
  4441  1F0A                     u7351:
  4442  1F0A  2F25               	goto	l4656
  4443  1F0B                     u7350:
  4444  1F0B                     l4648:
  4445  1F0B  081A               	movf	___fltol@exp1^(0+384),w
  4446  1F0C  3A80               	xorlw	128
  4447  1F0D  3E97               	addlw	151
  4448  1F0E  1803               	skipnc
  4449  1F0F  2F11               	goto	u7361
  4450  1F10  2F12               	goto	u7360
  4451  1F11                     u7361:
  4452  1F11  2F13               	goto	l4654
  4453  1F12                     u7360:
  4454  1F12  2EDE               	goto	l4634
  4455  1F13                     l4654:
  4456  1F13  3001               	movlw	1
  4457  1F14                     u7375:
  4458  1F14  1003               	clrc
  4459  1F15  0C93               	rrf	(___fltol@f1+3)^(0+384),f
  4460  1F16  0C92               	rrf	(___fltol@f1+2)^(0+384),f
  4461  1F17  0C91               	rrf	(___fltol@f1+1)^(0+384),f
  4462  1F18  0C90               	rrf	___fltol@f1^(0+384),f
  4463  1F19  3EFF               	addlw	-1
  4464  1F1A  1D03               	skipz
  4465  1F1B  2F14               	goto	u7375
  4466  1F1C  3001               	movlw	1
  4467  1F1D  0094               	movwf	??___fltol^(0+384)
  4468  1F1E  0814               	movf	??___fltol^(0+384),w
  4469  1F1F  079A               	addwf	___fltol@exp1^(0+384),f
  4470  1F20  1D03               	btfss	3,2
  4471  1F21  2F23               	goto	u7381
  4472  1F22  2F24               	goto	u7380
  4473  1F23                     u7381:
  4474  1F23  2F13               	goto	l4654
  4475  1F24                     u7380:
  4476  1F24  2F3C               	goto	l4664
  4477  1F25                     l4656:
  4478  1F25  3020               	movlw	32
  4479  1F26  021A               	subwf	___fltol@exp1^(0+384),w
  4480  1F27  1C03               	skipc
  4481  1F28  2F2A               	goto	u7391
  4482  1F29  2F2B               	goto	u7390
  4483  1F2A                     u7391:
  4484  1F2A  2F37               	goto	l667
  4485  1F2B                     u7390:
  4486  1F2B  2EDE               	goto	l4634
  4487  1F2C                     l4662:
  4488  1F2C  3001               	movlw	1
  4489  1F2D  0094               	movwf	??___fltol^(0+384)
  4490  1F2E                     u7405:
  4491  1F2E  1003               	clrc
  4492  1F2F  0D90               	rlf	___fltol@f1^(0+384),f
  4493  1F30  0D91               	rlf	(___fltol@f1+1)^(0+384),f
  4494  1F31  0D92               	rlf	(___fltol@f1+2)^(0+384),f
  4495  1F32  0D93               	rlf	(___fltol@f1+3)^(0+384),f
  4496  1F33  0B94               	decfsz	??___fltol^(0+384),f
  4497  1F34  2F2E               	goto	u7405
  4498  1F35  3001               	movlw	1
  4499  1F36  029A               	subwf	___fltol@exp1^(0+384),f
  4500  1F37                     l667:
  4501  1F37  081A               	movf	___fltol@exp1^(0+384),w
  4502  1F38  1D03               	btfss	3,2
  4503  1F39  2F3B               	goto	u7411
  4504  1F3A  2F3C               	goto	u7410
  4505  1F3B                     u7411:
  4506  1F3B  2F2C               	goto	l4662
  4507  1F3C                     u7410:
  4508  1F3C                     l4664:
  4509  1F3C  0819               	movf	___fltol@sign1^(0+384),w
  4510  1F3D  1903               	btfsc	3,2
  4511  1F3E  2F40               	goto	u7421
  4512  1F3F  2F41               	goto	u7420
  4513  1F40                     u7421:
  4514  1F40  2F4C               	goto	l670
  4515  1F41                     u7420:
  4516  1F41                     l4666:
  4517  1F41  0990               	comf	___fltol@f1^(0+384),f
  4518  1F42  0991               	comf	(___fltol@f1+1)^(0+384),f
  4519  1F43  0992               	comf	(___fltol@f1+2)^(0+384),f
  4520  1F44  0993               	comf	(___fltol@f1+3)^(0+384),f
  4521  1F45  0A90               	incf	___fltol@f1^(0+384),f
  4522  1F46  1903               	skipnz
  4523  1F47  0A91               	incf	(___fltol@f1+1)^(0+384),f
  4524  1F48  1903               	skipnz
  4525  1F49  0A92               	incf	(___fltol@f1+2)^(0+384),f
  4526  1F4A  1903               	skipnz
  4527  1F4B  0A93               	incf	(___fltol@f1+3)^(0+384),f
  4528  1F4C                     l670:
  4529  1F4C                     l660:
  4530  1F4C  0008               	return
  4531  1F4D                     __end_of___fltol:
  4532                           
  4533                           	psect	text5
  4534  083A                     __ptext5:	
  4535 ;; *************** function ___fldiv *****************
  4536 ;; Defined at:
  4537 ;;		line 8 in file "C:\Program Files\Microchip\xc8\v2.30\pic\sources\c90\common\sprcdiv.c"
  4538 ;; Parameters:    Size  Location     Type
  4539 ;;  a               4   28[BANK1 ] long 
  4540 ;;  b               4   32[BANK1 ] long 
  4541 ;; Auto vars:     Size  Location     Type
  4542 ;;  grs             4   48[BANK1 ] unsigned long 
  4543 ;;  rem             4   41[BANK1 ] unsigned long 
  4544 ;;  new_exp         2   46[BANK1 ] int 
  4545 ;;  aexp            1   53[BANK1 ] unsigned char 
  4546 ;;  bexp            1   52[BANK1 ] unsigned char 
  4547 ;;  sign            1   45[BANK1 ] unsigned char 
  4548 ;; Return value:  Size  Location     Type
  4549 ;;                  4   28[BANK1 ] unsigned char 
  4550 ;; Registers used:
  4551 ;;		wreg, status,2, status,0, btemp+1
  4552 ;; Tracked objects:
  4553 ;;		On entry : 0/0
  4554 ;;		On exit  : 0/0
  4555 ;;		Unchanged: 0/0
  4556 ;; Data sizes:     COMMON   BANK0   BANK1   BANK3   BANK2
  4557 ;;      Params:         0       0       8       0       0
  4558 ;;      Locals:         0       0      13       0       0
  4559 ;;      Temps:          0       0       5       0       0
  4560 ;;      Totals:         0       0      26       0       0
  4561 ;;Total ram usage:       26 bytes
  4562 ;; Hardware stack levels used:    1
  4563 ;; Hardware stack levels required when called:    5
  4564 ;; This function calls:
  4565 ;;		Nothing
  4566 ;; This function is called by:
  4567 ;;		_set_Tpwm
  4568 ;; This function uses a non-reentrant model
  4569 ;;
  4570                           
  4571                           
  4572                           ;psect for function ___fldiv
  4573  083A                     ___fldiv:
  4574  083A                     l3634:	
  4575                           ;incstack = 0
  4576                           ; Regs used in ___fldiv: [wreg+status,2+status,0+btemp+1]
  4577                           
  4578  083A  1683               	bsf	3,5	;RP0=1, select bank1
  4579  083B  1303               	bcf	3,6	;RP1=0, select bank1
  4580  083C  0843               	movf	(___fldiv@b^(0+128)+3),w
  4581  083D  3980               	andlw	128
  4582  083E  00C4               	movwf	??___fldiv^(0+128)
  4583  083F  0844               	movf	??___fldiv^(0+128),w
  4584  0840  00CD               	movwf	___fldiv@sign^(0+128)
  4585  0841                     l3636:
  4586  0841  0843               	movf	(___fldiv@b^(0+128)+3),w
  4587  0842  00C4               	movwf	??___fldiv^(0+128)
  4588  0843  0744               	addwf	??___fldiv^(0+128),w
  4589  0844  00C5               	movwf	(??___fldiv+1)^(0+128)
  4590  0845  0845               	movf	(??___fldiv+1)^(0+128),w
  4591  0846  00D4               	movwf	___fldiv@bexp^(0+128)
  4592  0847                     l3638:
  4593  0847  1FC2               	btfss	(___fldiv@b^(0+128)+2),7
  4594  0848  284A               	goto	u5781
  4595  0849  284B               	goto	u5780
  4596  084A                     u5781:
  4597  084A  284C               	goto	l3642
  4598  084B                     u5780:
  4599  084B                     l3640:
  4600  084B  1454               	bsf	___fldiv@bexp^(0+128),0
  4601  084C                     l3642:
  4602  084C  0854               	movf	___fldiv@bexp^(0+128),w
  4603  084D  1903               	btfsc	3,2
  4604  084E  2850               	goto	u5791
  4605  084F  2851               	goto	u5790
  4606  0850                     u5791:
  4607  0850  2861               	goto	l3652
  4608  0851                     u5790:
  4609  0851                     l3644:
  4610  0851  0A54               	incf	___fldiv@bexp^(0+128),w
  4611  0852  1D03               	btfss	3,2
  4612  0853  2855               	goto	u5801
  4613  0854  2856               	goto	u5800
  4614  0855                     u5801:
  4615  0855  285E               	goto	l3648
  4616  0856                     u5800:
  4617  0856                     l3646:
  4618  0856  3000               	movlw	0
  4619  0857  00C3               	movwf	(___fldiv@b+3)^(0+128)
  4620  0858  3000               	movlw	0
  4621  0859  00C2               	movwf	(___fldiv@b+2)^(0+128)
  4622  085A  3000               	movlw	0
  4623  085B  00C1               	movwf	(___fldiv@b+1)^(0+128)
  4624  085C  3000               	movlw	0
  4625  085D  00C0               	movwf	___fldiv@b^(0+128)
  4626  085E                     l3648:
  4627  085E  17C2               	bsf	(___fldiv@b^(0+128)+2),7
  4628  085F                     l3650:
  4629  085F  01C3               	clrf	(___fldiv@b^(0+128)+3)
  4630  0860  2869               	goto	l3654
  4631  0861                     l3652:
  4632  0861  3000               	movlw	0
  4633  0862  00C3               	movwf	(___fldiv@b+3)^(0+128)
  4634  0863  3000               	movlw	0
  4635  0864  00C2               	movwf	(___fldiv@b+2)^(0+128)
  4636  0865  3000               	movlw	0
  4637  0866  00C1               	movwf	(___fldiv@b+1)^(0+128)
  4638  0867  3000               	movlw	0
  4639  0868  00C0               	movwf	___fldiv@b^(0+128)
  4640  0869                     l3654:
  4641  0869  083F               	movf	(___fldiv@a^(0+128)+3),w
  4642  086A  3980               	andlw	128
  4643  086B  00C4               	movwf	??___fldiv^(0+128)
  4644  086C  0844               	movf	??___fldiv^(0+128),w
  4645  086D  06CD               	xorwf	___fldiv@sign^(0+128),f
  4646  086E                     l3656:
  4647  086E  083F               	movf	(___fldiv@a^(0+128)+3),w
  4648  086F  00C4               	movwf	??___fldiv^(0+128)
  4649  0870  0744               	addwf	??___fldiv^(0+128),w
  4650  0871  00C5               	movwf	(??___fldiv+1)^(0+128)
  4651  0872  0845               	movf	(??___fldiv+1)^(0+128),w
  4652  0873  00D5               	movwf	___fldiv@aexp^(0+128)
  4653  0874                     l3658:
  4654  0874  1FBE               	btfss	(___fldiv@a^(0+128)+2),7
  4655  0875  2877               	goto	u5811
  4656  0876  2878               	goto	u5810
  4657  0877                     u5811:
  4658  0877  2879               	goto	l3662
  4659  0878                     u5810:
  4660  0878                     l3660:
  4661  0878  1455               	bsf	___fldiv@aexp^(0+128),0
  4662  0879                     l3662:
  4663  0879  0855               	movf	___fldiv@aexp^(0+128),w
  4664  087A  1903               	btfsc	3,2
  4665  087B  287D               	goto	u5821
  4666  087C  287E               	goto	u5820
  4667  087D                     u5821:
  4668  087D  288E               	goto	l3672
  4669  087E                     u5820:
  4670  087E                     l3664:
  4671  087E  0A55               	incf	___fldiv@aexp^(0+128),w
  4672  087F  1D03               	btfss	3,2
  4673  0880  2882               	goto	u5831
  4674  0881  2883               	goto	u5830
  4675  0882                     u5831:
  4676  0882  288B               	goto	l3668
  4677  0883                     u5830:
  4678  0883                     l3666:
  4679  0883  3000               	movlw	0
  4680  0884  00BF               	movwf	(___fldiv@a+3)^(0+128)
  4681  0885  3000               	movlw	0
  4682  0886  00BE               	movwf	(___fldiv@a+2)^(0+128)
  4683  0887  3000               	movlw	0
  4684  0888  00BD               	movwf	(___fldiv@a+1)^(0+128)
  4685  0889  3000               	movlw	0
  4686  088A  00BC               	movwf	___fldiv@a^(0+128)
  4687  088B                     l3668:
  4688  088B  17BE               	bsf	(___fldiv@a^(0+128)+2),7
  4689  088C                     l3670:
  4690  088C  01BF               	clrf	(___fldiv@a^(0+128)+3)
  4691  088D  2896               	goto	l823
  4692  088E                     l3672:
  4693  088E  3000               	movlw	0
  4694  088F  00BF               	movwf	(___fldiv@a+3)^(0+128)
  4695  0890  3000               	movlw	0
  4696  0891  00BE               	movwf	(___fldiv@a+2)^(0+128)
  4697  0892  3000               	movlw	0
  4698  0893  00BD               	movwf	(___fldiv@a+1)^(0+128)
  4699  0894  3000               	movlw	0
  4700  0895  00BC               	movwf	___fldiv@a^(0+128)
  4701  0896                     l823:
  4702  0896  083F               	movf	(___fldiv@a+3)^(0+128),w
  4703  0897  043E               	iorwf	(___fldiv@a+2)^(0+128),w
  4704  0898  043D               	iorwf	(___fldiv@a+1)^(0+128),w
  4705  0899  043C               	iorwf	___fldiv@a^(0+128),w
  4706  089A  1D03               	skipz
  4707  089B  289D               	goto	u5841
  4708  089C  289E               	goto	u5840
  4709  089D                     u5841:
  4710  089D  28B7               	goto	l3682
  4711  089E                     u5840:
  4712  089E                     l3674:
  4713  089E  3000               	movlw	0
  4714  089F  00C3               	movwf	(___fldiv@b+3)^(0+128)
  4715  08A0  3000               	movlw	0
  4716  08A1  00C2               	movwf	(___fldiv@b+2)^(0+128)
  4717  08A2  3000               	movlw	0
  4718  08A3  00C1               	movwf	(___fldiv@b+1)^(0+128)
  4719  08A4  3000               	movlw	0
  4720  08A5  00C0               	movwf	___fldiv@b^(0+128)
  4721  08A6  3080               	movlw	128
  4722  08A7  04C2               	iorwf	(___fldiv@b^(0+128)+2),f
  4723  08A8  307F               	movlw	127
  4724  08A9  04C3               	iorwf	((___fldiv@b+1)^(0+128)+2),f
  4725  08AA                     l3676:
  4726  08AA  084D               	movf	___fldiv@sign^(0+128),w
  4727  08AB  00C4               	movwf	??___fldiv^(0+128)
  4728  08AC  0844               	movf	??___fldiv^(0+128),w
  4729  08AD  04C3               	iorwf	(___fldiv@b^(0+128)+3),f
  4730  08AE                     l3678:
  4731  08AE  0843               	movf	(___fldiv@b+3)^(0+128),w
  4732  08AF  00BF               	movwf	(?___fldiv+3)^(0+128)
  4733  08B0  0842               	movf	(___fldiv@b+2)^(0+128),w
  4734  08B1  00BE               	movwf	(?___fldiv+2)^(0+128)
  4735  08B2  0841               	movf	(___fldiv@b+1)^(0+128),w
  4736  08B3  00BD               	movwf	(?___fldiv+1)^(0+128)
  4737  08B4  0840               	movf	___fldiv@b^(0+128),w
  4738  08B5  00BC               	movwf	?___fldiv^(0+128)
  4739  08B6  2A16               	goto	l825
  4740  08B7                     l3682:
  4741  08B7  0854               	movf	___fldiv@bexp^(0+128),w
  4742  08B8  1D03               	btfss	3,2
  4743  08B9  28BB               	goto	u5851
  4744  08BA  28BC               	goto	u5850
  4745  08BB                     u5851:
  4746  08BB  28C5               	goto	l3688
  4747  08BC                     u5850:
  4748  08BC                     l3684:
  4749  08BC  3000               	movlw	0
  4750  08BD  00BF               	movwf	(?___fldiv+3)^(0+128)
  4751  08BE  3000               	movlw	0
  4752  08BF  00BE               	movwf	(?___fldiv+2)^(0+128)
  4753  08C0  3000               	movlw	0
  4754  08C1  00BD               	movwf	(?___fldiv+1)^(0+128)
  4755  08C2  3000               	movlw	0
  4756  08C3  00BC               	movwf	?___fldiv^(0+128)
  4757  08C4  2A16               	goto	l825
  4758  08C5                     l3688:
  4759  08C5  0854               	movf	___fldiv@bexp^(0+128),w
  4760  08C6  00C4               	movwf	??___fldiv^(0+128)
  4761  08C7  01C5               	clrf	(??___fldiv^(0+128)+1)
  4762  08C8  0845               	movf	(??___fldiv+1)^(0+128),w
  4763  08C9  00C7               	movwf	((??___fldiv+2)^(0+128)+1)
  4764  08CA  0855               	movf	___fldiv@aexp^(0+128),w
  4765  08CB  0244               	subwf	??___fldiv^(0+128),w
  4766  08CC  00C6               	movwf	(??___fldiv+2)^(0+128)
  4767  08CD  1C03               	skipc
  4768  08CE  03C7               	decf	((??___fldiv+2)^(0+128)+1),f
  4769  08CF  0846               	movf	(??___fldiv+2)^(0+128),w
  4770  08D0  3E7F               	addlw	127
  4771  08D1  00CE               	movwf	___fldiv@new_exp^(0+128)
  4772  08D2  0847               	movf	(??___fldiv+3)^(0+128),w
  4773  08D3  1803               	skipnc
  4774  08D4  3E01               	addlw	1
  4775  08D5  3E00               	addlw	0
  4776  08D6  00CF               	movwf	(___fldiv@new_exp+1)^(0+128)
  4777  08D7                     l3690:
  4778  08D7  0843               	movf	(___fldiv@b+3)^(0+128),w
  4779  08D8  00CC               	movwf	(___fldiv@rem+3)^(0+128)
  4780  08D9  0842               	movf	(___fldiv@b+2)^(0+128),w
  4781  08DA  00CB               	movwf	(___fldiv@rem+2)^(0+128)
  4782  08DB  0841               	movf	(___fldiv@b+1)^(0+128),w
  4783  08DC  00CA               	movwf	(___fldiv@rem+1)^(0+128)
  4784  08DD  0840               	movf	___fldiv@b^(0+128),w
  4785  08DE  00C9               	movwf	___fldiv@rem^(0+128)
  4786  08DF                     l3692:
  4787  08DF  3000               	movlw	0
  4788  08E0  00C3               	movwf	(___fldiv@b+3)^(0+128)
  4789  08E1  3000               	movlw	0
  4790  08E2  00C2               	movwf	(___fldiv@b+2)^(0+128)
  4791  08E3  3000               	movlw	0
  4792  08E4  00C1               	movwf	(___fldiv@b+1)^(0+128)
  4793  08E5  3000               	movlw	0
  4794  08E6  00C0               	movwf	___fldiv@b^(0+128)
  4795  08E7                     l3694:
  4796  08E7  3000               	movlw	0
  4797  08E8  00D3               	movwf	(___fldiv@grs+3)^(0+128)
  4798  08E9  3000               	movlw	0
  4799  08EA  00D2               	movwf	(___fldiv@grs+2)^(0+128)
  4800  08EB  3000               	movlw	0
  4801  08EC  00D1               	movwf	(___fldiv@grs+1)^(0+128)
  4802  08ED  3000               	movlw	0
  4803  08EE  00D0               	movwf	___fldiv@grs^(0+128)
  4804  08EF                     l3696:
  4805  08EF  01D5               	clrf	___fldiv@aexp^(0+128)
  4806  08F0  293B               	goto	l3716
  4807  08F1                     l3698:
  4808  08F1  0855               	movf	___fldiv@aexp^(0+128),w
  4809  08F2  1903               	btfsc	3,2
  4810  08F3  28F5               	goto	u5861
  4811  08F4  28F6               	goto	u5860
  4812  08F5                     u5861:
  4813  08F5  2916               	goto	l3708
  4814  08F6                     u5860:
  4815  08F6                     l3700:
  4816  08F6  3001               	movlw	1
  4817  08F7  00C4               	movwf	??___fldiv^(0+128)
  4818  08F8                     u5875:
  4819  08F8  1003               	clrc
  4820  08F9  0DC9               	rlf	___fldiv@rem^(0+128),f
  4821  08FA  0DCA               	rlf	(___fldiv@rem+1)^(0+128),f
  4822  08FB  0DCB               	rlf	(___fldiv@rem+2)^(0+128),f
  4823  08FC  0DCC               	rlf	(___fldiv@rem+3)^(0+128),f
  4824  08FD  0BC4               	decfsz	??___fldiv^(0+128),f
  4825  08FE  28F8               	goto	u5875
  4826  08FF  3001               	movlw	1
  4827  0900  00C4               	movwf	??___fldiv^(0+128)
  4828  0901                     u5885:
  4829  0901  1003               	clrc
  4830  0902  0DC0               	rlf	___fldiv@b^(0+128),f
  4831  0903  0DC1               	rlf	(___fldiv@b+1)^(0+128),f
  4832  0904  0DC2               	rlf	(___fldiv@b+2)^(0+128),f
  4833  0905  0DC3               	rlf	(___fldiv@b+3)^(0+128),f
  4834  0906  0BC4               	decfsz	??___fldiv^(0+128),f
  4835  0907  2901               	goto	u5885
  4836  0908                     l3702:
  4837  0908  1FD3               	btfss	(___fldiv@grs+3)^(0+128),7
  4838  0909  290B               	goto	u5891
  4839  090A  290C               	goto	u5890
  4840  090B                     u5891:
  4841  090B  290D               	goto	l3706
  4842  090C                     u5890:
  4843  090C                     l3704:
  4844  090C  1440               	bsf	___fldiv@b^(0+128),0
  4845  090D                     l3706:
  4846  090D  3001               	movlw	1
  4847  090E  00C4               	movwf	??___fldiv^(0+128)
  4848  090F                     u5905:
  4849  090F  1003               	clrc
  4850  0910  0DD0               	rlf	___fldiv@grs^(0+128),f
  4851  0911  0DD1               	rlf	(___fldiv@grs+1)^(0+128),f
  4852  0912  0DD2               	rlf	(___fldiv@grs+2)^(0+128),f
  4853  0913  0DD3               	rlf	(___fldiv@grs+3)^(0+128),f
  4854  0914  0BC4               	decfsz	??___fldiv^(0+128),f
  4855  0915  290F               	goto	u5905
  4856  0916                     l3708:
  4857  0916  083F               	movf	(___fldiv@a+3)^(0+128),w
  4858  0917  024C               	subwf	(___fldiv@rem+3)^(0+128),w
  4859  0918  1D03               	skipz
  4860  0919  2924               	goto	u5915
  4861  091A  083E               	movf	(___fldiv@a+2)^(0+128),w
  4862  091B  024B               	subwf	(___fldiv@rem+2)^(0+128),w
  4863  091C  1D03               	skipz
  4864  091D  2924               	goto	u5915
  4865  091E  083D               	movf	(___fldiv@a+1)^(0+128),w
  4866  091F  024A               	subwf	(___fldiv@rem+1)^(0+128),w
  4867  0920  1D03               	skipz
  4868  0921  2924               	goto	u5915
  4869  0922  083C               	movf	___fldiv@a^(0+128),w
  4870  0923  0249               	subwf	___fldiv@rem^(0+128),w
  4871  0924                     u5915:
  4872  0924  1C03               	skipc
  4873  0925  2927               	goto	u5911
  4874  0926  2928               	goto	u5910
  4875  0927                     u5911:
  4876  0927  2937               	goto	l3714
  4877  0928                     u5910:
  4878  0928                     l3710:
  4879  0928  1753               	bsf	(___fldiv@grs^(0+128)+3),6
  4880  0929                     l3712:
  4881  0929  083C               	movf	___fldiv@a^(0+128),w
  4882  092A  02C9               	subwf	___fldiv@rem^(0+128),f
  4883  092B  083D               	movf	(___fldiv@a+1)^(0+128),w
  4884  092C  1C03               	skipc
  4885  092D  0F3D               	incfsz	(___fldiv@a+1)^(0+128),w
  4886  092E  02CA               	subwf	(___fldiv@rem+1)^(0+128),f
  4887  092F  083E               	movf	(___fldiv@a+2)^(0+128),w
  4888  0930  1C03               	skipc
  4889  0931  0F3E               	incfsz	(___fldiv@a+2)^(0+128),w
  4890  0932  02CB               	subwf	(___fldiv@rem+2)^(0+128),f
  4891  0933  083F               	movf	(___fldiv@a+3)^(0+128),w
  4892  0934  1C03               	skipc
  4893  0935  0F3F               	incfsz	(___fldiv@a+3)^(0+128),w
  4894  0936  02CC               	subwf	(___fldiv@rem+3)^(0+128),f
  4895  0937                     l3714:
  4896  0937  3001               	movlw	1
  4897  0938  00C4               	movwf	??___fldiv^(0+128)
  4898  0939  0844               	movf	??___fldiv^(0+128),w
  4899  093A  07D5               	addwf	___fldiv@aexp^(0+128),f
  4900  093B                     l3716:
  4901  093B  301A               	movlw	26
  4902  093C  0255               	subwf	___fldiv@aexp^(0+128),w
  4903  093D  1C03               	skipc
  4904  093E  2940               	goto	u5921
  4905  093F  2941               	goto	u5920
  4906  0940                     u5921:
  4907  0940  28F1               	goto	l3698
  4908  0941                     u5920:
  4909  0941                     l3718:
  4910  0941  084C               	movf	(___fldiv@rem+3)^(0+128),w
  4911  0942  044B               	iorwf	(___fldiv@rem+2)^(0+128),w
  4912  0943  044A               	iorwf	(___fldiv@rem+1)^(0+128),w
  4913  0944  0449               	iorwf	___fldiv@rem^(0+128),w
  4914  0945  1903               	skipnz
  4915  0946  2948               	goto	u5931
  4916  0947  2949               	goto	u5930
  4917  0948                     u5931:
  4918  0948  2968               	goto	l3732
  4919  0949                     u5930:
  4920  0949                     l3720:
  4921  0949  1450               	bsf	___fldiv@grs^(0+128),0
  4922  094A  2968               	goto	l3732
  4923  094B                     l3722:
  4924  094B  3001               	movlw	1
  4925  094C  00C4               	movwf	??___fldiv^(0+128)
  4926  094D                     u5945:
  4927  094D  1003               	clrc
  4928  094E  0DC0               	rlf	___fldiv@b^(0+128),f
  4929  094F  0DC1               	rlf	(___fldiv@b+1)^(0+128),f
  4930  0950  0DC2               	rlf	(___fldiv@b+2)^(0+128),f
  4931  0951  0DC3               	rlf	(___fldiv@b+3)^(0+128),f
  4932  0952  0BC4               	decfsz	??___fldiv^(0+128),f
  4933  0953  294D               	goto	u5945
  4934  0954                     l3724:
  4935  0954  1FD3               	btfss	(___fldiv@grs+3)^(0+128),7
  4936  0955  2957               	goto	u5951
  4937  0956  2958               	goto	u5950
  4938  0957                     u5951:
  4939  0957  2959               	goto	l3728
  4940  0958                     u5950:
  4941  0958                     l3726:
  4942  0958  1440               	bsf	___fldiv@b^(0+128),0
  4943  0959                     l3728:
  4944  0959  3001               	movlw	1
  4945  095A  00C4               	movwf	??___fldiv^(0+128)
  4946  095B                     u5965:
  4947  095B  1003               	clrc
  4948  095C  0DD0               	rlf	___fldiv@grs^(0+128),f
  4949  095D  0DD1               	rlf	(___fldiv@grs+1)^(0+128),f
  4950  095E  0DD2               	rlf	(___fldiv@grs+2)^(0+128),f
  4951  095F  0DD3               	rlf	(___fldiv@grs+3)^(0+128),f
  4952  0960  0BC4               	decfsz	??___fldiv^(0+128),f
  4953  0961  295B               	goto	u5965
  4954  0962                     l3730:
  4955  0962  30FF               	movlw	255
  4956  0963  07CE               	addwf	___fldiv@new_exp^(0+128),f
  4957  0964  1803               	skipnc
  4958  0965  0ACF               	incf	(___fldiv@new_exp+1)^(0+128),f
  4959  0966  30FF               	movlw	255
  4960  0967  07CF               	addwf	(___fldiv@new_exp+1)^(0+128),f
  4961  0968                     l3732:
  4962  0968  1FC2               	btfss	(___fldiv@b+2)^(0+128),7
  4963  0969  296B               	goto	u5971
  4964  096A  296C               	goto	u5970
  4965  096B                     u5971:
  4966  096B  294B               	goto	l3722
  4967  096C                     u5970:
  4968  096C                     l3734:
  4969  096C  01D5               	clrf	___fldiv@aexp^(0+128)
  4970  096D                     l3736:
  4971  096D  1FD3               	btfss	(___fldiv@grs+3)^(0+128),7
  4972  096E  2970               	goto	u5981
  4973  096F  2971               	goto	u5980
  4974  0970                     u5981:
  4975  0970  298D               	goto	l3744
  4976  0971                     u5980:
  4977  0971                     l3738:
  4978  0971  30FF               	movlw	255
  4979  0972  0550               	andwf	___fldiv@grs^(0+128),w
  4980  0973  00C4               	movwf	??___fldiv^(0+128)
  4981  0974  30FF               	movlw	255
  4982  0975  0551               	andwf	(___fldiv@grs+1)^(0+128),w
  4983  0976  00C5               	movwf	(??___fldiv^(0+128)+1)
  4984  0977  30FF               	movlw	255
  4985  0978  0552               	andwf	(___fldiv@grs+2)^(0+128),w
  4986  0979  00C6               	movwf	(??___fldiv^(0+128)+2)
  4987  097A  307F               	movlw	127
  4988  097B  0553               	andwf	(___fldiv@grs+3)^(0+128),w
  4989  097C  00C7               	movwf	(??___fldiv^(0+128)+3)
  4990  097D  0847               	movf	(??___fldiv+3)^(0+128),w
  4991  097E  0446               	iorwf	(??___fldiv+2)^(0+128),w
  4992  097F  0445               	iorwf	(??___fldiv+1)^(0+128),w
  4993  0980  0444               	iorwf	??___fldiv^(0+128),w
  4994  0981  1903               	skipnz
  4995  0982  2984               	goto	u5991
  4996  0983  2985               	goto	u5990
  4997  0984                     u5991:
  4998  0984  2988               	goto	l839
  4999  0985                     u5990:
  5000  0985                     l3740:
  5001  0985  01D5               	clrf	___fldiv@aexp^(0+128)
  5002  0986  0AD5               	incf	___fldiv@aexp^(0+128),f
  5003  0987  298D               	goto	l3744
  5004  0988                     l839:
  5005  0988  1C40               	btfss	___fldiv@b^(0+128),0
  5006  0989  298B               	goto	u6001
  5007  098A  298C               	goto	u6000
  5008  098B                     u6001:
  5009  098B  298D               	goto	l3744
  5010  098C                     u6000:
  5011  098C  2985               	goto	l3740
  5012  098D                     l3744:
  5013  098D  0855               	movf	___fldiv@aexp^(0+128),w
  5014  098E  1903               	btfsc	3,2
  5015  098F  2991               	goto	u6011
  5016  0990  2992               	goto	u6010
  5017  0991                     u6011:
  5018  0991  29C3               	goto	l3754
  5019  0992                     u6010:
  5020  0992                     l3746:
  5021  0992  3001               	movlw	1
  5022  0993  07C0               	addwf	___fldiv@b^(0+128),f
  5023  0994  3000               	movlw	0
  5024  0995  1803               	skipnc
  5025  0996  3001               	movlw	1
  5026  0997  07C1               	addwf	(___fldiv@b+1)^(0+128),f
  5027  0998  3000               	movlw	0
  5028  0999  1803               	skipnc
  5029  099A  3001               	movlw	1
  5030  099B  07C2               	addwf	(___fldiv@b+2)^(0+128),f
  5031  099C  3000               	movlw	0
  5032  099D  1803               	skipnc
  5033  099E  3001               	movlw	1
  5034  099F  07C3               	addwf	(___fldiv@b+3)^(0+128),f
  5035  09A0                     l3748:
  5036  09A0  1C43               	btfss	(___fldiv@b+3)^(0+128),0
  5037  09A1  29A3               	goto	u6021
  5038  09A2  29A4               	goto	u6020
  5039  09A3                     u6021:
  5040  09A3  29C3               	goto	l3754
  5041  09A4                     u6020:
  5042  09A4                     l3750:
  5043  09A4  0840               	movf	___fldiv@b^(0+128),w
  5044  09A5  00C4               	movwf	??___fldiv^(0+128)
  5045  09A6  0841               	movf	(___fldiv@b+1)^(0+128),w
  5046  09A7  00C5               	movwf	(??___fldiv^(0+128)+1)
  5047  09A8  0842               	movf	(___fldiv@b+2)^(0+128),w
  5048  09A9  00C6               	movwf	(??___fldiv^(0+128)+2)
  5049  09AA  0843               	movf	(___fldiv@b+3)^(0+128),w
  5050  09AB  00C7               	movwf	(??___fldiv^(0+128)+3)
  5051  09AC  3001               	movlw	1
  5052  09AD  00C8               	movwf	(??___fldiv+4)^(0+128)
  5053  09AE                     u6035:
  5054  09AE  0D47               	rlf	(??___fldiv^(0+128)+3),w
  5055  09AF  0CC7               	rrf	(??___fldiv^(0+128)+3),f
  5056  09B0  0CC6               	rrf	(??___fldiv^(0+128)+2),f
  5057  09B1  0CC5               	rrf	(??___fldiv^(0+128)+1),f
  5058  09B2  0CC4               	rrf	??___fldiv^(0+128),f
  5059  09B3                     u6030:
  5060  09B3  0BC8               	decfsz	(??___fldiv+4)^(0+128),f
  5061  09B4  29AE               	goto	u6035
  5062  09B5  0847               	movf	(??___fldiv+3)^(0+128),w
  5063  09B6  00C3               	movwf	(___fldiv@b+3)^(0+128)
  5064  09B7  0846               	movf	(??___fldiv+2)^(0+128),w
  5065  09B8  00C2               	movwf	(___fldiv@b+2)^(0+128)
  5066  09B9  0845               	movf	(??___fldiv+1)^(0+128),w
  5067  09BA  00C1               	movwf	(___fldiv@b+1)^(0+128)
  5068  09BB  0844               	movf	??___fldiv^(0+128),w
  5069  09BC  00C0               	movwf	___fldiv@b^(0+128)
  5070  09BD                     l3752:
  5071  09BD  3001               	movlw	1
  5072  09BE  07CE               	addwf	___fldiv@new_exp^(0+128),f
  5073  09BF  1803               	skipnc
  5074  09C0  0ACF               	incf	(___fldiv@new_exp+1)^(0+128),f
  5075  09C1  3000               	movlw	0
  5076  09C2  07CF               	addwf	(___fldiv@new_exp+1)^(0+128),f
  5077  09C3                     l3754:
  5078  09C3  084F               	movf	(___fldiv@new_exp+1)^(0+128),w
  5079  09C4  3A80               	xorlw	128
  5080  09C5  00FF               	movwf	btemp+1
  5081  09C6  3080               	movlw	128
  5082  09C7  027F               	subwf	btemp+1,w
  5083  09C8  1D03               	skipz
  5084  09C9  29CC               	goto	u6045
  5085  09CA  30FF               	movlw	255
  5086  09CB  024E               	subwf	___fldiv@new_exp^(0+128),w
  5087  09CC                     u6045:
  5088  09CC  1C03               	skipc
  5089  09CD  29CF               	goto	u6041
  5090  09CE  29D0               	goto	u6040
  5091  09CF                     u6041:
  5092  09CF  29DE               	goto	l3758
  5093  09D0                     u6040:
  5094  09D0                     l3756:
  5095  09D0  30FF               	movlw	255
  5096  09D1  1683               	bsf	3,5	;RP0=1, select bank1
  5097  09D2  1303               	bcf	3,6	;RP1=0, select bank1
  5098  09D3  00CE               	movwf	___fldiv@new_exp^(0+128)
  5099  09D4  3000               	movlw	0
  5100  09D5  00CF               	movwf	(___fldiv@new_exp^(0+128)+1)
  5101  09D6  3000               	movlw	0
  5102  09D7  00C3               	movwf	(___fldiv@b+3)^(0+128)
  5103  09D8  3000               	movlw	0
  5104  09D9  00C2               	movwf	(___fldiv@b+2)^(0+128)
  5105  09DA  3000               	movlw	0
  5106  09DB  00C1               	movwf	(___fldiv@b+1)^(0+128)
  5107  09DC  3000               	movlw	0
  5108  09DD  00C0               	movwf	___fldiv@b^(0+128)
  5109  09DE                     l3758:
  5110  09DE  1683               	bsf	3,5	;RP0=1, select bank1
  5111  09DF  1303               	bcf	3,6	;RP1=0, select bank1
  5112  09E0  084F               	movf	(___fldiv@new_exp+1)^(0+128),w
  5113  09E1  3A80               	xorlw	128
  5114  09E2  00FF               	movwf	btemp+1
  5115  09E3  3080               	movlw	128
  5116  09E4  027F               	subwf	btemp+1,w
  5117  09E5  1D03               	skipz
  5118  09E6  29E9               	goto	u6055
  5119  09E7  3001               	movlw	1
  5120  09E8  024E               	subwf	___fldiv@new_exp^(0+128),w
  5121  09E9                     u6055:
  5122  09E9  1803               	skipnc
  5123  09EA  29EC               	goto	u6051
  5124  09EB  29ED               	goto	u6050
  5125  09EC                     u6051:
  5126  09EC  29FA               	goto	l845
  5127  09ED                     u6050:
  5128  09ED                     l3760:
  5129  09ED  1683               	bsf	3,5	;RP0=1, select bank1
  5130  09EE  1303               	bcf	3,6	;RP1=0, select bank1
  5131  09EF  01CE               	clrf	___fldiv@new_exp^(0+128)
  5132  09F0  01CF               	clrf	(___fldiv@new_exp+1)^(0+128)
  5133  09F1                     l3762:
  5134  09F1  3000               	movlw	0
  5135  09F2  00C3               	movwf	(___fldiv@b+3)^(0+128)
  5136  09F3  3000               	movlw	0
  5137  09F4  00C2               	movwf	(___fldiv@b+2)^(0+128)
  5138  09F5  3000               	movlw	0
  5139  09F6  00C1               	movwf	(___fldiv@b+1)^(0+128)
  5140  09F7  3000               	movlw	0
  5141  09F8  00C0               	movwf	___fldiv@b^(0+128)
  5142  09F9                     l3764:
  5143  09F9  01CD               	clrf	___fldiv@sign^(0+128)
  5144  09FA                     l845:
  5145  09FA  1683               	bsf	3,5	;RP0=1, select bank1
  5146  09FB  1303               	bcf	3,6	;RP1=0, select bank1
  5147  09FC  084E               	movf	___fldiv@new_exp^(0+128),w
  5148  09FD  00C4               	movwf	??___fldiv^(0+128)
  5149  09FE  0844               	movf	??___fldiv^(0+128),w
  5150  09FF  00D4               	movwf	___fldiv@bexp^(0+128)
  5151  0A00                     l3766:
  5152  0A00  1C54               	btfss	___fldiv@bexp^(0+128),0
  5153  0A01  2A03               	goto	u6061
  5154  0A02  2A04               	goto	u6060
  5155  0A03                     u6061:
  5156  0A03  2A06               	goto	l3770
  5157  0A04                     u6060:
  5158  0A04                     l3768:
  5159  0A04  17C2               	bsf	(___fldiv@b^(0+128)+2),7
  5160  0A05  2A0A               	goto	l847
  5161  0A06                     l3770:
  5162  0A06  307F               	movlw	127
  5163  0A07  00C4               	movwf	??___fldiv^(0+128)
  5164  0A08  0844               	movf	??___fldiv^(0+128),w
  5165  0A09  05C2               	andwf	(___fldiv@b^(0+128)+2),f
  5166  0A0A                     l847:
  5167  0A0A  0854               	movf	___fldiv@bexp^(0+128),w
  5168  0A0B  00C4               	movwf	??___fldiv^(0+128)
  5169  0A0C  1003               	clrc
  5170  0A0D  0C44               	rrf	??___fldiv^(0+128),w
  5171  0A0E  00C5               	movwf	(??___fldiv+1)^(0+128)
  5172  0A0F  0845               	movf	(??___fldiv+1)^(0+128),w
  5173  0A10  00C3               	movwf	(___fldiv@b^(0+128)+3)
  5174  0A11  084D               	movf	___fldiv@sign^(0+128),w
  5175  0A12  00C4               	movwf	??___fldiv^(0+128)
  5176  0A13  0844               	movf	??___fldiv^(0+128),w
  5177  0A14  04C3               	iorwf	(___fldiv@b^(0+128)+3),f
  5178  0A15  28AE               	goto	l3678
  5179  0A16                     l825:
  5180  0A16  0008               	return
  5181  0A17                     __end_of___fldiv:
  5182                           
  5183                           	psect	text6
  5184  0A17                     __ptext6:	
  5185 ;; *************** function ___fladd *****************
  5186 ;; Defined at:
  5187 ;;		line 10 in file "C:\Program Files\Microchip\xc8\v2.30\pic\sources\c90\common\sprcadd.c"
  5188 ;; Parameters:    Size  Location     Type
  5189 ;;  b               4   54[BANK1 ] unsigned char 
  5190 ;;  a               4   58[BANK1 ] unsigned char 
  5191 ;; Auto vars:     Size  Location     Type
  5192 ;;  grs             1   73[BANK1 ] unsigned char 
  5193 ;;  bexp            1   72[BANK1 ] unsigned char 
  5194 ;;  aexp            1   71[BANK1 ] unsigned char 
  5195 ;;  signs           1   70[BANK1 ] unsigned char 
  5196 ;; Return value:  Size  Location     Type
  5197 ;;                  4   54[BANK1 ] unsigned char 
  5198 ;; Registers used:
  5199 ;;		wreg, status,2, status,0, btemp+1
  5200 ;; Tracked objects:
  5201 ;;		On entry : 0/0
  5202 ;;		On exit  : 0/0
  5203 ;;		Unchanged: 0/0
  5204 ;; Data sizes:     COMMON   BANK0   BANK1   BANK3   BANK2
  5205 ;;      Params:         0       0       8       0       0
  5206 ;;      Locals:         0       0       4       0       0
  5207 ;;      Temps:          0       0       8       0       0
  5208 ;;      Totals:         0       0      20       0       0
  5209 ;;Total ram usage:       20 bytes
  5210 ;; Hardware stack levels used:    1
  5211 ;; Hardware stack levels required when called:    5
  5212 ;; This function calls:
  5213 ;;		Nothing
  5214 ;; This function is called by:
  5215 ;;		_set_Tpwm
  5216 ;; This function uses a non-reentrant model
  5217 ;;
  5218                           
  5219                           
  5220                           ;psect for function ___fladd
  5221  0A17                     ___fladd:
  5222  0A17                     l5462:	
  5223                           ;incstack = 0
  5224                           ; Regs used in ___fladd: [wreg+status,2+status,0+btemp+1]
  5225                           
  5226  0A17  1683               	bsf	3,5	;RP0=1, select bank1
  5227  0A18  1303               	bcf	3,6	;RP1=0, select bank1
  5228  0A19  0859               	movf	(___fladd@b^(0+128)+3),w
  5229  0A1A  3980               	andlw	128
  5230  0A1B  00DE               	movwf	??___fladd^(0+128)
  5231  0A1C  085E               	movf	??___fladd^(0+128),w
  5232  0A1D  00E6               	movwf	___fladd@signs^(0+128)
  5233  0A1E                     l5464:
  5234  0A1E  0859               	movf	(___fladd@b^(0+128)+3),w
  5235  0A1F  00DE               	movwf	??___fladd^(0+128)
  5236  0A20  075E               	addwf	??___fladd^(0+128),w
  5237  0A21  00DF               	movwf	(??___fladd+1)^(0+128)
  5238  0A22  085F               	movf	(??___fladd+1)^(0+128),w
  5239  0A23  00E8               	movwf	___fladd@bexp^(0+128)
  5240  0A24                     l5466:
  5241  0A24  1FD8               	btfss	(___fladd@b^(0+128)+2),7
  5242  0A25  2A27               	goto	u8651
  5243  0A26  2A28               	goto	u8650
  5244  0A27                     u8651:
  5245  0A27  2A29               	goto	l5470
  5246  0A28                     u8650:
  5247  0A28                     l5468:
  5248  0A28  1468               	bsf	___fladd@bexp^(0+128),0
  5249  0A29                     l5470:
  5250  0A29  0868               	movf	___fladd@bexp^(0+128),w
  5251  0A2A  1903               	btfsc	3,2
  5252  0A2B  2A2D               	goto	u8661
  5253  0A2C  2A2E               	goto	u8660
  5254  0A2D                     u8661:
  5255  0A2D  2A3E               	goto	l5480
  5256  0A2E                     u8660:
  5257  0A2E                     l5472:
  5258  0A2E  0A68               	incf	___fladd@bexp^(0+128),w
  5259  0A2F  1D03               	btfss	3,2
  5260  0A30  2A32               	goto	u8671
  5261  0A31  2A33               	goto	u8670
  5262  0A32                     u8671:
  5263  0A32  2A3B               	goto	l5476
  5264  0A33                     u8670:
  5265  0A33                     l5474:
  5266  0A33  3000               	movlw	0
  5267  0A34  00D9               	movwf	(___fladd@b+3)^(0+128)
  5268  0A35  3000               	movlw	0
  5269  0A36  00D8               	movwf	(___fladd@b+2)^(0+128)
  5270  0A37  3000               	movlw	0
  5271  0A38  00D7               	movwf	(___fladd@b+1)^(0+128)
  5272  0A39  3000               	movlw	0
  5273  0A3A  00D6               	movwf	___fladd@b^(0+128)
  5274  0A3B                     l5476:
  5275  0A3B  17D8               	bsf	(___fladd@b^(0+128)+2),7
  5276  0A3C                     l5478:
  5277  0A3C  01D9               	clrf	(___fladd@b^(0+128)+3)
  5278  0A3D  2A46               	goto	l5482
  5279  0A3E                     l5480:
  5280  0A3E  3000               	movlw	0
  5281  0A3F  00D9               	movwf	(___fladd@b+3)^(0+128)
  5282  0A40  3000               	movlw	0
  5283  0A41  00D8               	movwf	(___fladd@b+2)^(0+128)
  5284  0A42  3000               	movlw	0
  5285  0A43  00D7               	movwf	(___fladd@b+1)^(0+128)
  5286  0A44  3000               	movlw	0
  5287  0A45  00D6               	movwf	___fladd@b^(0+128)
  5288  0A46                     l5482:
  5289  0A46  085D               	movf	(___fladd@a^(0+128)+3),w
  5290  0A47  3980               	andlw	128
  5291  0A48  00DE               	movwf	??___fladd^(0+128)
  5292  0A49  085E               	movf	??___fladd^(0+128),w
  5293  0A4A  00E7               	movwf	___fladd@aexp^(0+128)
  5294  0A4B                     l5484:
  5295  0A4B  0867               	movf	___fladd@aexp^(0+128),w
  5296  0A4C  0666               	xorwf	___fladd@signs^(0+128),w
  5297  0A4D  1903               	skipnz
  5298  0A4E  2A50               	goto	u8681
  5299  0A4F  2A51               	goto	u8680
  5300  0A50                     u8681:
  5301  0A50  2A52               	goto	l5488
  5302  0A51                     u8680:
  5303  0A51                     l5486:
  5304  0A51  1766               	bsf	___fladd@signs^(0+128),6
  5305  0A52                     l5488:
  5306  0A52  085D               	movf	(___fladd@a^(0+128)+3),w
  5307  0A53  00DE               	movwf	??___fladd^(0+128)
  5308  0A54  075E               	addwf	??___fladd^(0+128),w
  5309  0A55  00DF               	movwf	(??___fladd+1)^(0+128)
  5310  0A56  085F               	movf	(??___fladd+1)^(0+128),w
  5311  0A57  00E7               	movwf	___fladd@aexp^(0+128)
  5312  0A58                     l5490:
  5313  0A58  1FDC               	btfss	(___fladd@a^(0+128)+2),7
  5314  0A59  2A5B               	goto	u8691
  5315  0A5A  2A5C               	goto	u8690
  5316  0A5B                     u8691:
  5317  0A5B  2A5D               	goto	l5494
  5318  0A5C                     u8690:
  5319  0A5C                     l5492:
  5320  0A5C  1467               	bsf	___fladd@aexp^(0+128),0
  5321  0A5D                     l5494:
  5322  0A5D  0867               	movf	___fladd@aexp^(0+128),w
  5323  0A5E  1903               	btfsc	3,2
  5324  0A5F  2A61               	goto	u8701
  5325  0A60  2A62               	goto	u8700
  5326  0A61                     u8701:
  5327  0A61  2A72               	goto	l5504
  5328  0A62                     u8700:
  5329  0A62                     l5496:
  5330  0A62  0A67               	incf	___fladd@aexp^(0+128),w
  5331  0A63  1D03               	btfss	3,2
  5332  0A64  2A66               	goto	u8711
  5333  0A65  2A67               	goto	u8710
  5334  0A66                     u8711:
  5335  0A66  2A6F               	goto	l5500
  5336  0A67                     u8710:
  5337  0A67                     l5498:
  5338  0A67  3000               	movlw	0
  5339  0A68  00DD               	movwf	(___fladd@a+3)^(0+128)
  5340  0A69  3000               	movlw	0
  5341  0A6A  00DC               	movwf	(___fladd@a+2)^(0+128)
  5342  0A6B  3000               	movlw	0
  5343  0A6C  00DB               	movwf	(___fladd@a+1)^(0+128)
  5344  0A6D  3000               	movlw	0
  5345  0A6E  00DA               	movwf	___fladd@a^(0+128)
  5346  0A6F                     l5500:
  5347  0A6F  17DC               	bsf	(___fladd@a^(0+128)+2),7
  5348  0A70                     l5502:
  5349  0A70  01DD               	clrf	(___fladd@a^(0+128)+3)
  5350  0A71  2A7A               	goto	l767
  5351  0A72                     l5504:
  5352  0A72  3000               	movlw	0
  5353  0A73  00DD               	movwf	(___fladd@a+3)^(0+128)
  5354  0A74  3000               	movlw	0
  5355  0A75  00DC               	movwf	(___fladd@a+2)^(0+128)
  5356  0A76  3000               	movlw	0
  5357  0A77  00DB               	movwf	(___fladd@a+1)^(0+128)
  5358  0A78  3000               	movlw	0
  5359  0A79  00DA               	movwf	___fladd@a^(0+128)
  5360  0A7A                     l767:
  5361  0A7A  0868               	movf	___fladd@bexp^(0+128),w
  5362  0A7B  0267               	subwf	___fladd@aexp^(0+128),w
  5363  0A7C  1803               	skipnc
  5364  0A7D  2A7F               	goto	u8721
  5365  0A7E  2A80               	goto	u8720
  5366  0A7F                     u8721:
  5367  0A7F  2AC4               	goto	l5540
  5368  0A80                     u8720:
  5369  0A80                     l5506:
  5370  0A80  1F66               	btfss	___fladd@signs^(0+128),6
  5371  0A81  2A83               	goto	u8731
  5372  0A82  2A84               	goto	u8730
  5373  0A83                     u8731:
  5374  0A83  2A88               	goto	l5510
  5375  0A84                     u8730:
  5376  0A84                     l5508:
  5377  0A84  3080               	movlw	128
  5378  0A85  00DE               	movwf	??___fladd^(0+128)
  5379  0A86  085E               	movf	??___fladd^(0+128),w
  5380  0A87  06E6               	xorwf	___fladd@signs^(0+128),f
  5381  0A88                     l5510:
  5382  0A88  0868               	movf	___fladd@bexp^(0+128),w
  5383  0A89  00DE               	movwf	??___fladd^(0+128)
  5384  0A8A  085E               	movf	??___fladd^(0+128),w
  5385  0A8B  00E9               	movwf	___fladd@grs^(0+128)
  5386  0A8C                     l5512:
  5387  0A8C  0867               	movf	___fladd@aexp^(0+128),w
  5388  0A8D  00DE               	movwf	??___fladd^(0+128)
  5389  0A8E  085E               	movf	??___fladd^(0+128),w
  5390  0A8F  00E8               	movwf	___fladd@bexp^(0+128)
  5391  0A90                     l5514:
  5392  0A90  0869               	movf	___fladd@grs^(0+128),w
  5393  0A91  00DE               	movwf	??___fladd^(0+128)
  5394  0A92  085E               	movf	??___fladd^(0+128),w
  5395  0A93  00E7               	movwf	___fladd@aexp^(0+128)
  5396  0A94                     l5516:
  5397  0A94  0856               	movf	___fladd@b^(0+128),w
  5398  0A95  00DE               	movwf	??___fladd^(0+128)
  5399  0A96  085E               	movf	??___fladd^(0+128),w
  5400  0A97  00E9               	movwf	___fladd@grs^(0+128)
  5401  0A98                     l5518:
  5402  0A98  085A               	movf	___fladd@a^(0+128),w
  5403  0A99  00DE               	movwf	??___fladd^(0+128)
  5404  0A9A  085E               	movf	??___fladd^(0+128),w
  5405  0A9B  00D6               	movwf	___fladd@b^(0+128)
  5406  0A9C                     l5520:
  5407  0A9C  0869               	movf	___fladd@grs^(0+128),w
  5408  0A9D  00DE               	movwf	??___fladd^(0+128)
  5409  0A9E  085E               	movf	??___fladd^(0+128),w
  5410  0A9F  00DA               	movwf	___fladd@a^(0+128)
  5411  0AA0                     l5522:
  5412  0AA0  0857               	movf	(___fladd@b^(0+128)+1),w
  5413  0AA1  00DE               	movwf	??___fladd^(0+128)
  5414  0AA2  085E               	movf	??___fladd^(0+128),w
  5415  0AA3  00E9               	movwf	___fladd@grs^(0+128)
  5416  0AA4                     l5524:
  5417  0AA4  085B               	movf	(___fladd@a^(0+128)+1),w
  5418  0AA5  00DE               	movwf	??___fladd^(0+128)
  5419  0AA6  085E               	movf	??___fladd^(0+128),w
  5420  0AA7  00D7               	movwf	(___fladd@b^(0+128)+1)
  5421  0AA8                     l5526:
  5422  0AA8  0869               	movf	___fladd@grs^(0+128),w
  5423  0AA9  00DE               	movwf	??___fladd^(0+128)
  5424  0AAA  085E               	movf	??___fladd^(0+128),w
  5425  0AAB  00DB               	movwf	(___fladd@a^(0+128)+1)
  5426  0AAC                     l5528:
  5427  0AAC  0858               	movf	(___fladd@b^(0+128)+2),w
  5428  0AAD  00DE               	movwf	??___fladd^(0+128)
  5429  0AAE  085E               	movf	??___fladd^(0+128),w
  5430  0AAF  00E9               	movwf	___fladd@grs^(0+128)
  5431  0AB0                     l5530:
  5432  0AB0  085C               	movf	(___fladd@a^(0+128)+2),w
  5433  0AB1  00DE               	movwf	??___fladd^(0+128)
  5434  0AB2  085E               	movf	??___fladd^(0+128),w
  5435  0AB3  00D8               	movwf	(___fladd@b^(0+128)+2)
  5436  0AB4                     l5532:
  5437  0AB4  0869               	movf	___fladd@grs^(0+128),w
  5438  0AB5  00DE               	movwf	??___fladd^(0+128)
  5439  0AB6  085E               	movf	??___fladd^(0+128),w
  5440  0AB7  00DC               	movwf	(___fladd@a^(0+128)+2)
  5441  0AB8                     l5534:
  5442  0AB8  0859               	movf	(___fladd@b^(0+128)+3),w
  5443  0AB9  00DE               	movwf	??___fladd^(0+128)
  5444  0ABA  085E               	movf	??___fladd^(0+128),w
  5445  0ABB  00E9               	movwf	___fladd@grs^(0+128)
  5446  0ABC                     l5536:
  5447  0ABC  085D               	movf	(___fladd@a^(0+128)+3),w
  5448  0ABD  00DE               	movwf	??___fladd^(0+128)
  5449  0ABE  085E               	movf	??___fladd^(0+128),w
  5450  0ABF  00D9               	movwf	(___fladd@b^(0+128)+3)
  5451  0AC0                     l5538:
  5452  0AC0  0869               	movf	___fladd@grs^(0+128),w
  5453  0AC1  00DE               	movwf	??___fladd^(0+128)
  5454  0AC2  085E               	movf	??___fladd^(0+128),w
  5455  0AC3  00DD               	movwf	(___fladd@a^(0+128)+3)
  5456  0AC4                     l5540:
  5457  0AC4  01E9               	clrf	___fladd@grs^(0+128)
  5458  0AC5                     l5542:
  5459  0AC5  0867               	movf	___fladd@aexp^(0+128),w
  5460  0AC6  00DE               	movwf	??___fladd^(0+128)
  5461  0AC7  01DF               	clrf	(??___fladd^(0+128)+1)
  5462  0AC8  085F               	movf	(??___fladd+1)^(0+128),w
  5463  0AC9  00E1               	movwf	((??___fladd+2)^(0+128)+1)
  5464  0ACA  0868               	movf	___fladd@bexp^(0+128),w
  5465  0ACB  025E               	subwf	??___fladd^(0+128),w
  5466  0ACC  00E0               	movwf	(??___fladd+2)^(0+128)
  5467  0ACD  1C03               	skipc
  5468  0ACE  03E1               	decf	((??___fladd+2)^(0+128)+1),f
  5469  0ACF  0861               	movf	(??___fladd+3)^(0+128),w
  5470  0AD0  3A80               	xorlw	128
  5471  0AD1  00FF               	movwf	btemp+1
  5472  0AD2  3080               	movlw	128
  5473  0AD3  027F               	subwf	btemp+1,w
  5474  0AD4  1D03               	skipz
  5475  0AD5  2AD8               	goto	u8745
  5476  0AD6  301A               	movlw	26
  5477  0AD7  0260               	subwf	(??___fladd+2)^(0+128),w
  5478  0AD8                     u8745:
  5479  0AD8  1C03               	skipc
  5480  0AD9  2ADB               	goto	u8741
  5481  0ADA  2ADC               	goto	u8740
  5482  0ADB                     u8741:
  5483  0ADB  2B19               	goto	l5558
  5484  0ADC                     u8740:
  5485  0ADC                     l5544:
  5486  0ADC  1683               	bsf	3,5	;RP0=1, select bank1
  5487  0ADD  1303               	bcf	3,6	;RP1=0, select bank1
  5488  0ADE  0859               	movf	(___fladd@b+3)^(0+128),w
  5489  0ADF  0458               	iorwf	(___fladd@b+2)^(0+128),w
  5490  0AE0  0457               	iorwf	(___fladd@b+1)^(0+128),w
  5491  0AE1  0456               	iorwf	___fladd@b^(0+128),w
  5492  0AE2  1D03               	skipz
  5493  0AE3  2AE5               	goto	u8751
  5494  0AE4  2AE7               	goto	u8750
  5495  0AE5                     u8751:
  5496  0AE5  3001               	movlw	1
  5497  0AE6  2AE8               	goto	u8760
  5498  0AE7                     u8750:
  5499  0AE7  3000               	movlw	0
  5500  0AE8                     u8760:
  5501  0AE8  00DE               	movwf	??___fladd^(0+128)
  5502  0AE9  085E               	movf	??___fladd^(0+128),w
  5503  0AEA  00E9               	movwf	___fladd@grs^(0+128)
  5504  0AEB  3000               	movlw	0
  5505  0AEC  00D9               	movwf	(___fladd@b+3)^(0+128)
  5506  0AED  3000               	movlw	0
  5507  0AEE  00D8               	movwf	(___fladd@b+2)^(0+128)
  5508  0AEF  3000               	movlw	0
  5509  0AF0  00D7               	movwf	(___fladd@b+1)^(0+128)
  5510  0AF1  3000               	movlw	0
  5511  0AF2  00D6               	movwf	___fladd@b^(0+128)
  5512  0AF3  0867               	movf	___fladd@aexp^(0+128),w
  5513  0AF4  00DE               	movwf	??___fladd^(0+128)
  5514  0AF5  085E               	movf	??___fladd^(0+128),w
  5515  0AF6  00E8               	movwf	___fladd@bexp^(0+128)
  5516  0AF7  2B21               	goto	l771
  5517  0AF8                     l773:
  5518  0AF8  1C69               	btfss	___fladd@grs^(0+128),0
  5519  0AF9  2AFB               	goto	u8771
  5520  0AFA  2AFC               	goto	u8770
  5521  0AFB                     u8771:
  5522  0AFB  2B05               	goto	l5548
  5523  0AFC                     u8770:
  5524  0AFC                     l5546:
  5525  0AFC  0869               	movf	___fladd@grs^(0+128),w
  5526  0AFD  00DE               	movwf	??___fladd^(0+128)
  5527  0AFE  1003               	clrc
  5528  0AFF  0C5E               	rrf	??___fladd^(0+128),w
  5529  0B00  3801               	iorlw	1
  5530  0B01  00DF               	movwf	(??___fladd+1)^(0+128)
  5531  0B02  085F               	movf	(??___fladd+1)^(0+128),w
  5532  0B03  00E9               	movwf	___fladd@grs^(0+128)
  5533  0B04  2B07               	goto	l5550
  5534  0B05                     l5548:
  5535  0B05  1003               	clrc
  5536  0B06  0CE9               	rrf	___fladd@grs^(0+128),f
  5537  0B07                     l5550:
  5538  0B07  1C56               	btfss	___fladd@b^(0+128),0
  5539  0B08  2B0A               	goto	u8781
  5540  0B09  2B0B               	goto	u8780
  5541  0B0A                     u8781:
  5542  0B0A  2B0C               	goto	l5554
  5543  0B0B                     u8780:
  5544  0B0B                     l5552:
  5545  0B0B  17E9               	bsf	___fladd@grs^(0+128),7
  5546  0B0C                     l5554:
  5547  0B0C  3001               	movlw	1
  5548  0B0D  00DE               	movwf	??___fladd^(0+128)
  5549  0B0E                     u8795:
  5550  0B0E  0D59               	rlf	(___fladd@b+3)^(0+128),w
  5551  0B0F  0CD9               	rrf	(___fladd@b+3)^(0+128),f
  5552  0B10  0CD8               	rrf	(___fladd@b+2)^(0+128),f
  5553  0B11  0CD7               	rrf	(___fladd@b+1)^(0+128),f
  5554  0B12  0CD6               	rrf	___fladd@b^(0+128),f
  5555  0B13  0BDE               	decfsz	(??___fladd^(0+128))& (0+127),f
  5556  0B14  2B0E               	goto	u8795
  5557  0B15                     l5556:
  5558  0B15  3001               	movlw	1
  5559  0B16  00DE               	movwf	??___fladd^(0+128)
  5560  0B17  085E               	movf	??___fladd^(0+128),w
  5561  0B18  07E8               	addwf	___fladd@bexp^(0+128),f
  5562  0B19                     l5558:
  5563  0B19  1683               	bsf	3,5	;RP0=1, select bank1
  5564  0B1A  1303               	bcf	3,6	;RP1=0, select bank1
  5565  0B1B  0867               	movf	___fladd@aexp^(0+128),w
  5566  0B1C  0268               	subwf	___fladd@bexp^(0+128),w
  5567  0B1D  1C03               	skipc
  5568  0B1E  2B20               	goto	u8801
  5569  0B1F  2B21               	goto	u8800
  5570  0B20                     u8801:
  5571  0B20  2AF8               	goto	l773
  5572  0B21                     u8800:
  5573  0B21                     l771:
  5574  0B21  1B66               	btfsc	___fladd@signs^(0+128),6
  5575  0B22  2B24               	goto	u8811
  5576  0B23  2B25               	goto	u8810
  5577  0B24                     u8811:
  5578  0B24  2B70               	goto	l5584
  5579  0B25                     u8810:
  5580  0B25                     l5560:
  5581  0B25  0868               	movf	___fladd@bexp^(0+128),w
  5582  0B26  1D03               	btfss	3,2
  5583  0B27  2B29               	goto	u8821
  5584  0B28  2B2A               	goto	u8820
  5585  0B29                     u8821:
  5586  0B29  2B33               	goto	l5566
  5587  0B2A                     u8820:
  5588  0B2A                     l5562:
  5589  0B2A  3000               	movlw	0
  5590  0B2B  00D9               	movwf	(?___fladd+3)^(0+128)
  5591  0B2C  3000               	movlw	0
  5592  0B2D  00D8               	movwf	(?___fladd+2)^(0+128)
  5593  0B2E  3000               	movlw	0
  5594  0B2F  00D7               	movwf	(?___fladd+1)^(0+128)
  5595  0B30  3000               	movlw	0
  5596  0B31  00D6               	movwf	?___fladd^(0+128)
  5597  0B32  2C9E               	goto	l780
  5598  0B33                     l5566:
  5599  0B33  085A               	movf	___fladd@a^(0+128),w
  5600  0B34  07D6               	addwf	___fladd@b^(0+128),f
  5601  0B35  085B               	movf	(___fladd@a+1)^(0+128),w
  5602  0B36  1103               	clrz
  5603  0B37  1803               	skipnc
  5604  0B38  3E01               	addlw	1
  5605  0B39  1903               	skipnz
  5606  0B3A  2B3C               	goto	u8831
  5607  0B3B  07D7               	addwf	(___fladd@b+1)^(0+128),f
  5608  0B3C                     u8831:
  5609  0B3C  085C               	movf	(___fladd@a+2)^(0+128),w
  5610  0B3D  1103               	clrz
  5611  0B3E  1803               	skipnc
  5612  0B3F  3E01               	addlw	1
  5613  0B40  1903               	skipnz
  5614  0B41  2B43               	goto	u8832
  5615  0B42  07D8               	addwf	(___fladd@b+2)^(0+128),f
  5616  0B43                     u8832:
  5617  0B43  085D               	movf	(___fladd@a+3)^(0+128),w
  5618  0B44  1103               	clrz
  5619  0B45  1803               	skipnc
  5620  0B46  3E01               	addlw	1
  5621  0B47  1903               	skipnz
  5622  0B48  2B4A               	goto	u8833
  5623  0B49  07D9               	addwf	(___fladd@b+3)^(0+128),f
  5624  0B4A                     u8833:
  5625  0B4A                     l5568:
  5626  0B4A  1C59               	btfss	(___fladd@b+3)^(0+128),0
  5627  0B4B  2B4D               	goto	u8841
  5628  0B4C  2B4E               	goto	u8840
  5629  0B4D                     u8841:
  5630  0B4D  2C24               	goto	l5618
  5631  0B4E                     u8840:
  5632  0B4E                     l5570:
  5633  0B4E  1C69               	btfss	___fladd@grs^(0+128),0
  5634  0B4F  2B51               	goto	u8851
  5635  0B50  2B52               	goto	u8850
  5636  0B51                     u8851:
  5637  0B51  2B5B               	goto	l5574
  5638  0B52                     u8850:
  5639  0B52                     l5572:
  5640  0B52  0869               	movf	___fladd@grs^(0+128),w
  5641  0B53  00DE               	movwf	??___fladd^(0+128)
  5642  0B54  1003               	clrc
  5643  0B55  0C5E               	rrf	??___fladd^(0+128),w
  5644  0B56  3801               	iorlw	1
  5645  0B57  00DF               	movwf	(??___fladd+1)^(0+128)
  5646  0B58  085F               	movf	(??___fladd+1)^(0+128),w
  5647  0B59  00E9               	movwf	___fladd@grs^(0+128)
  5648  0B5A  2B5D               	goto	l5576
  5649  0B5B                     l5574:
  5650  0B5B  1003               	clrc
  5651  0B5C  0CE9               	rrf	___fladd@grs^(0+128),f
  5652  0B5D                     l5576:
  5653  0B5D  1C56               	btfss	___fladd@b^(0+128),0
  5654  0B5E  2B60               	goto	u8861
  5655  0B5F  2B61               	goto	u8860
  5656  0B60                     u8861:
  5657  0B60  2B62               	goto	l5580
  5658  0B61                     u8860:
  5659  0B61                     l5578:
  5660  0B61  17E9               	bsf	___fladd@grs^(0+128),7
  5661  0B62                     l5580:
  5662  0B62  3001               	movlw	1
  5663  0B63  00DE               	movwf	??___fladd^(0+128)
  5664  0B64                     u8875:
  5665  0B64  0D59               	rlf	(___fladd@b+3)^(0+128),w
  5666  0B65  0CD9               	rrf	(___fladd@b+3)^(0+128),f
  5667  0B66  0CD8               	rrf	(___fladd@b+2)^(0+128),f
  5668  0B67  0CD7               	rrf	(___fladd@b+1)^(0+128),f
  5669  0B68  0CD6               	rrf	___fladd@b^(0+128),f
  5670  0B69  0BDE               	decfsz	(??___fladd^(0+128))& (0+127),f
  5671  0B6A  2B64               	goto	u8875
  5672  0B6B                     l5582:
  5673  0B6B  3001               	movlw	1
  5674  0B6C  00DE               	movwf	??___fladd^(0+128)
  5675  0B6D  085E               	movf	??___fladd^(0+128),w
  5676  0B6E  07E8               	addwf	___fladd@bexp^(0+128),f
  5677  0B6F  2C24               	goto	l5618
  5678  0B70                     l5584:
  5679  0B70  0859               	movf	(___fladd@b+3)^(0+128),w
  5680  0B71  3A80               	xorlw	128
  5681  0B72  00FF               	movwf	btemp+1
  5682  0B73  085D               	movf	(___fladd@a+3)^(0+128),w
  5683  0B74  3A80               	xorlw	128
  5684  0B75  027F               	subwf	btemp+1,w
  5685  0B76  1D03               	skipz
  5686  0B77  2B82               	goto	u8883
  5687  0B78  085C               	movf	(___fladd@a+2)^(0+128),w
  5688  0B79  0258               	subwf	(___fladd@b+2)^(0+128),w
  5689  0B7A  1D03               	skipz
  5690  0B7B  2B82               	goto	u8883
  5691  0B7C  085B               	movf	(___fladd@a+1)^(0+128),w
  5692  0B7D  0257               	subwf	(___fladd@b+1)^(0+128),w
  5693  0B7E  1D03               	skipz
  5694  0B7F  2B82               	goto	u8883
  5695  0B80  085A               	movf	___fladd@a^(0+128),w
  5696  0B81  0256               	subwf	___fladd@b^(0+128),w
  5697  0B82                     u8883:
  5698  0B82  1803               	skipnc
  5699  0B83  2B85               	goto	u8881
  5700  0B84  2B86               	goto	u8880
  5701  0B85                     u8881:
  5702  0B85  2BDE               	goto	l5594
  5703  0B86                     u8880:
  5704  0B86                     l5586:
  5705  0B86  30FF               	movlw	255
  5706  0B87  00DE               	movwf	??___fladd^(0+128)
  5707  0B88  30FF               	movlw	255
  5708  0B89  00DF               	movwf	(??___fladd^(0+128)+1)
  5709  0B8A  30FF               	movlw	255
  5710  0B8B  00E0               	movwf	(??___fladd^(0+128)+2)
  5711  0B8C  30FF               	movlw	255
  5712  0B8D  00E1               	movwf	(??___fladd^(0+128)+3)
  5713  0B8E  085A               	movf	___fladd@a^(0+128),w
  5714  0B8F  00E2               	movwf	(??___fladd+4)^(0+128)
  5715  0B90  085B               	movf	(___fladd@a+1)^(0+128),w
  5716  0B91  00E3               	movwf	((??___fladd+4)^(0+128)+1)
  5717  0B92  085C               	movf	(___fladd@a+2)^(0+128),w
  5718  0B93  00E4               	movwf	((??___fladd+4)^(0+128)+2)
  5719  0B94  085D               	movf	(___fladd@a+3)^(0+128),w
  5720  0B95  00E5               	movwf	((??___fladd+4)^(0+128)+3)
  5721  0B96  0856               	movf	___fladd@b^(0+128),w
  5722  0B97  02E2               	subwf	(??___fladd+4)^(0+128),f
  5723  0B98  0857               	movf	(___fladd@b+1)^(0+128),w
  5724  0B99  1C03               	skipc
  5725  0B9A  0F57               	incfsz	(___fladd@b+1)^(0+128),w
  5726  0B9B  2B9D               	goto	u8891
  5727  0B9C  2B9E               	goto	u8892
  5728  0B9D                     u8891:
  5729  0B9D  02E3               	subwf	((??___fladd+4)^(0+128)+1),f
  5730  0B9E                     u8892:
  5731  0B9E  0858               	movf	(___fladd@b+2)^(0+128),w
  5732  0B9F  1C03               	skipc
  5733  0BA0  0F58               	incfsz	(___fladd@b+2)^(0+128),w
  5734  0BA1  2BA3               	goto	u8893
  5735  0BA2  2BA4               	goto	u8894
  5736  0BA3                     u8893:
  5737  0BA3  02E4               	subwf	((??___fladd+4)^(0+128)+2),f
  5738  0BA4                     u8894:
  5739  0BA4  0859               	movf	(___fladd@b+3)^(0+128),w
  5740  0BA5  1C03               	skipc
  5741  0BA6  0F59               	incfsz	(___fladd@b+3)^(0+128),w
  5742  0BA7  2BA9               	goto	u8895
  5743  0BA8  2BAA               	goto	u8896
  5744  0BA9                     u8895:
  5745  0BA9  02E5               	subwf	((??___fladd+4)^(0+128)+3),f
  5746  0BAA                     u8896:
  5747  0BAA  0862               	movf	(??___fladd+4)^(0+128),w
  5748  0BAB  07DE               	addwf	??___fladd^(0+128),f
  5749  0BAC  0863               	movf	(??___fladd+5)^(0+128),w
  5750  0BAD  1803               	skipnc
  5751  0BAE  0F63               	incfsz	(??___fladd+5)^(0+128),w
  5752  0BAF  2BB1               	goto	u8900
  5753  0BB0  2BB2               	goto	u8901
  5754  0BB1                     u8900:
  5755  0BB1  07DF               	addwf	(??___fladd^(0+128)+1),f
  5756  0BB2                     u8901:
  5757  0BB2  0864               	movf	(??___fladd+6)^(0+128),w
  5758  0BB3  1803               	skipnc
  5759  0BB4  0F64               	incfsz	(??___fladd+6)^(0+128),w
  5760  0BB5  2BB7               	goto	u8902
  5761  0BB6  2BB8               	goto	u8903
  5762  0BB7                     u8902:
  5763  0BB7  07E0               	addwf	(??___fladd^(0+128)+2),f
  5764  0BB8                     u8903:
  5765  0BB8  0865               	movf	(??___fladd+7)^(0+128),w
  5766  0BB9  1803               	skipnc
  5767  0BBA  0A65               	incf	(??___fladd+7)^(0+128),w
  5768  0BBB  07E1               	addwf	(??___fladd^(0+128)+3),f
  5769  0BBC  0861               	movf	(??___fladd+3)^(0+128),w
  5770  0BBD  00D9               	movwf	(___fladd@b+3)^(0+128)
  5771  0BBE  0860               	movf	(??___fladd+2)^(0+128),w
  5772  0BBF  00D8               	movwf	(___fladd@b+2)^(0+128)
  5773  0BC0  085F               	movf	(??___fladd+1)^(0+128),w
  5774  0BC1  00D7               	movwf	(___fladd@b+1)^(0+128)
  5775  0BC2  085E               	movf	??___fladd^(0+128),w
  5776  0BC3  00D6               	movwf	___fladd@b^(0+128)
  5777  0BC4                     l5588:
  5778  0BC4  3080               	movlw	128
  5779  0BC5  00DE               	movwf	??___fladd^(0+128)
  5780  0BC6  085E               	movf	??___fladd^(0+128),w
  5781  0BC7  06E6               	xorwf	___fladd@signs^(0+128),f
  5782  0BC8  09E9               	comf	___fladd@grs^(0+128),f
  5783  0BC9  0AE9               	incf	___fladd@grs^(0+128),f
  5784  0BCA                     l5590:
  5785  0BCA  0869               	movf	___fladd@grs^(0+128),w
  5786  0BCB  1D03               	btfss	3,2
  5787  0BCC  2BCE               	goto	u8911
  5788  0BCD  2BCF               	goto	u8910
  5789  0BCE                     u8911:
  5790  0BCE  2BEC               	goto	l788
  5791  0BCF                     u8910:
  5792  0BCF                     l5592:
  5793  0BCF  3001               	movlw	1
  5794  0BD0  07D6               	addwf	___fladd@b^(0+128),f
  5795  0BD1  3000               	movlw	0
  5796  0BD2  1803               	skipnc
  5797  0BD3  3001               	movlw	1
  5798  0BD4  07D7               	addwf	(___fladd@b+1)^(0+128),f
  5799  0BD5  3000               	movlw	0
  5800  0BD6  1803               	skipnc
  5801  0BD7  3001               	movlw	1
  5802  0BD8  07D8               	addwf	(___fladd@b+2)^(0+128),f
  5803  0BD9  3000               	movlw	0
  5804  0BDA  1803               	skipnc
  5805  0BDB  3001               	movlw	1
  5806  0BDC  07D9               	addwf	(___fladd@b+3)^(0+128),f
  5807  0BDD  2BEC               	goto	l788
  5808  0BDE                     l5594:
  5809  0BDE  085A               	movf	___fladd@a^(0+128),w
  5810  0BDF  02D6               	subwf	___fladd@b^(0+128),f
  5811  0BE0  085B               	movf	(___fladd@a+1)^(0+128),w
  5812  0BE1  1C03               	skipc
  5813  0BE2  0F5B               	incfsz	(___fladd@a+1)^(0+128),w
  5814  0BE3  02D7               	subwf	(___fladd@b+1)^(0+128),f
  5815  0BE4  085C               	movf	(___fladd@a+2)^(0+128),w
  5816  0BE5  1C03               	skipc
  5817  0BE6  0F5C               	incfsz	(___fladd@a+2)^(0+128),w
  5818  0BE7  02D8               	subwf	(___fladd@b+2)^(0+128),f
  5819  0BE8  085D               	movf	(___fladd@a+3)^(0+128),w
  5820  0BE9  1C03               	skipc
  5821  0BEA  0F5D               	incfsz	(___fladd@a+3)^(0+128),w
  5822  0BEB  02D9               	subwf	(___fladd@b+3)^(0+128),f
  5823  0BEC                     l788:
  5824  0BEC  0859               	movf	(___fladd@b+3)^(0+128),w
  5825  0BED  0458               	iorwf	(___fladd@b+2)^(0+128),w
  5826  0BEE  0457               	iorwf	(___fladd@b+1)^(0+128),w
  5827  0BEF  0456               	iorwf	___fladd@b^(0+128),w
  5828  0BF0  1D03               	skipz
  5829  0BF1  2BF3               	goto	u8921
  5830  0BF2  2BF4               	goto	u8920
  5831  0BF3                     u8921:
  5832  0BF3  2C20               	goto	l5616
  5833  0BF4                     u8920:
  5834  0BF4                     l5596:
  5835  0BF4  0869               	movf	___fladd@grs^(0+128),w
  5836  0BF5  1D03               	btfss	3,2
  5837  0BF6  2BF8               	goto	u8931
  5838  0BF7  2BF9               	goto	u8930
  5839  0BF8                     u8931:
  5840  0BF8  2C20               	goto	l5616
  5841  0BF9                     u8930:
  5842  0BF9                     l5598:
  5843  0BF9  3000               	movlw	0
  5844  0BFA  00D9               	movwf	(?___fladd+3)^(0+128)
  5845  0BFB  3000               	movlw	0
  5846  0BFC  00D8               	movwf	(?___fladd+2)^(0+128)
  5847  0BFD  3000               	movlw	0
  5848  0BFE  00D7               	movwf	(?___fladd+1)^(0+128)
  5849  0BFF  3000               	movlw	0
  5850  0C00  00D6               	movwf	?___fladd^(0+128)
  5851  0C01  2C9E               	goto	l780
  5852  0C02                     l5602:
  5853  0C02  3001               	movlw	1
  5854  0C03  00DE               	movwf	??___fladd^(0+128)
  5855  0C04                     u8945:
  5856  0C04  1003               	clrc
  5857  0C05  0DD6               	rlf	___fladd@b^(0+128),f
  5858  0C06  0DD7               	rlf	(___fladd@b+1)^(0+128),f
  5859  0C07  0DD8               	rlf	(___fladd@b+2)^(0+128),f
  5860  0C08  0DD9               	rlf	(___fladd@b+3)^(0+128),f
  5861  0C09  0BDE               	decfsz	??___fladd^(0+128),f
  5862  0C0A  2C04               	goto	u8945
  5863  0C0B                     l5604:
  5864  0C0B  1FE9               	btfss	___fladd@grs^(0+128),7
  5865  0C0C  2C0E               	goto	u8951
  5866  0C0D  2C0F               	goto	u8950
  5867  0C0E                     u8951:
  5868  0C0E  2C10               	goto	l792
  5869  0C0F                     u8950:
  5870  0C0F                     l5606:
  5871  0C0F  1456               	bsf	___fladd@b^(0+128),0
  5872  0C10                     l792:
  5873  0C10  1C69               	btfss	___fladd@grs^(0+128),0
  5874  0C11  2C13               	goto	u8961
  5875  0C12  2C14               	goto	u8960
  5876  0C13                     u8961:
  5877  0C13  2C17               	goto	l5610
  5878  0C14                     u8960:
  5879  0C14                     l5608:
  5880  0C14  1403               	setc
  5881  0C15  0DE9               	rlf	___fladd@grs^(0+128),f
  5882  0C16  2C19               	goto	l5612
  5883  0C17                     l5610:
  5884  0C17  1003               	clrc
  5885  0C18  0DE9               	rlf	___fladd@grs^(0+128),f
  5886  0C19                     l5612:
  5887  0C19  0868               	movf	___fladd@bexp^(0+128),w
  5888  0C1A  1903               	btfsc	3,2
  5889  0C1B  2C1D               	goto	u8971
  5890  0C1C  2C1E               	goto	u8970
  5891  0C1D                     u8971:
  5892  0C1D  2C20               	goto	l5616
  5893  0C1E                     u8970:
  5894  0C1E                     l5614:
  5895  0C1E  3001               	movlw	1
  5896  0C1F  02E8               	subwf	___fladd@bexp^(0+128),f
  5897  0C20                     l5616:
  5898  0C20  1FD8               	btfss	(___fladd@b+2)^(0+128),7
  5899  0C21  2C23               	goto	u8981
  5900  0C22  2C24               	goto	u8980
  5901  0C23                     u8981:
  5902  0C23  2C02               	goto	l5602
  5903  0C24                     u8980:
  5904  0C24                     l5618:
  5905  0C24  01E7               	clrf	___fladd@aexp^(0+128)
  5906  0C25                     l5620:
  5907  0C25  1FE9               	btfss	___fladd@grs^(0+128),7
  5908  0C26  2C28               	goto	u8991
  5909  0C27  2C29               	goto	u8990
  5910  0C28                     u8991:
  5911  0C28  2C37               	goto	l5628
  5912  0C29                     u8990:
  5913  0C29                     l5622:
  5914  0C29  0869               	movf	___fladd@grs^(0+128),w
  5915  0C2A  397F               	andlw	127
  5916  0C2B  1903               	btfsc	3,2
  5917  0C2C  2C2E               	goto	u9001
  5918  0C2D  2C2F               	goto	u9000
  5919  0C2E                     u9001:
  5920  0C2E  2C32               	goto	l798
  5921  0C2F                     u9000:
  5922  0C2F                     l5624:
  5923  0C2F  01E7               	clrf	___fladd@aexp^(0+128)
  5924  0C30  0AE7               	incf	___fladd@aexp^(0+128),f
  5925  0C31  2C37               	goto	l5628
  5926  0C32                     l798:
  5927  0C32  1C56               	btfss	___fladd@b^(0+128),0
  5928  0C33  2C35               	goto	u9011
  5929  0C34  2C36               	goto	u9010
  5930  0C35                     u9011:
  5931  0C35  2C37               	goto	l5628
  5932  0C36                     u9010:
  5933  0C36  2C2F               	goto	l5624
  5934  0C37                     l5628:
  5935  0C37  0867               	movf	___fladd@aexp^(0+128),w
  5936  0C38  1903               	btfsc	3,2
  5937  0C39  2C3B               	goto	u9021
  5938  0C3A  2C3C               	goto	u9020
  5939  0C3B                     u9021:
  5940  0C3B  2C70               	goto	l801
  5941  0C3C                     u9020:
  5942  0C3C                     l5630:
  5943  0C3C  3001               	movlw	1
  5944  0C3D  07D6               	addwf	___fladd@b^(0+128),f
  5945  0C3E  3000               	movlw	0
  5946  0C3F  1803               	skipnc
  5947  0C40  3001               	movlw	1
  5948  0C41  07D7               	addwf	(___fladd@b+1)^(0+128),f
  5949  0C42  3000               	movlw	0
  5950  0C43  1803               	skipnc
  5951  0C44  3001               	movlw	1
  5952  0C45  07D8               	addwf	(___fladd@b+2)^(0+128),f
  5953  0C46  3000               	movlw	0
  5954  0C47  1803               	skipnc
  5955  0C48  3001               	movlw	1
  5956  0C49  07D9               	addwf	(___fladd@b+3)^(0+128),f
  5957  0C4A                     l5632:
  5958  0C4A  1C59               	btfss	(___fladd@b+3)^(0+128),0
  5959  0C4B  2C4D               	goto	u9031
  5960  0C4C  2C4E               	goto	u9030
  5961  0C4D                     u9031:
  5962  0C4D  2C70               	goto	l801
  5963  0C4E                     u9030:
  5964  0C4E                     l5634:
  5965  0C4E  0856               	movf	___fladd@b^(0+128),w
  5966  0C4F  00DE               	movwf	??___fladd^(0+128)
  5967  0C50  0857               	movf	(___fladd@b+1)^(0+128),w
  5968  0C51  00DF               	movwf	(??___fladd^(0+128)+1)
  5969  0C52  0858               	movf	(___fladd@b+2)^(0+128),w
  5970  0C53  00E0               	movwf	(??___fladd^(0+128)+2)
  5971  0C54  0859               	movf	(___fladd@b+3)^(0+128),w
  5972  0C55  00E1               	movwf	(??___fladd^(0+128)+3)
  5973  0C56  3001               	movlw	1
  5974  0C57  00E2               	movwf	(??___fladd+4)^(0+128)
  5975  0C58                     u9045:
  5976  0C58  0D61               	rlf	(??___fladd^(0+128)+3),w
  5977  0C59  0CE1               	rrf	(??___fladd^(0+128)+3),f
  5978  0C5A  0CE0               	rrf	(??___fladd^(0+128)+2),f
  5979  0C5B  0CDF               	rrf	(??___fladd^(0+128)+1),f
  5980  0C5C  0CDE               	rrf	??___fladd^(0+128),f
  5981  0C5D                     u9040:
  5982  0C5D  0BE2               	decfsz	(??___fladd+4)^(0+128),f
  5983  0C5E  2C58               	goto	u9045
  5984  0C5F  0861               	movf	(??___fladd+3)^(0+128),w
  5985  0C60  00D9               	movwf	(___fladd@b+3)^(0+128)
  5986  0C61  0860               	movf	(??___fladd+2)^(0+128),w
  5987  0C62  00D8               	movwf	(___fladd@b+2)^(0+128)
  5988  0C63  085F               	movf	(??___fladd+1)^(0+128),w
  5989  0C64  00D7               	movwf	(___fladd@b+1)^(0+128)
  5990  0C65  085E               	movf	??___fladd^(0+128),w
  5991  0C66  00D6               	movwf	___fladd@b^(0+128)
  5992  0C67  0A68               	incf	___fladd@bexp^(0+128),w
  5993  0C68  1903               	btfsc	3,2
  5994  0C69  2C6B               	goto	u9051
  5995  0C6A  2C6C               	goto	u9050
  5996  0C6B                     u9051:
  5997  0C6B  2C70               	goto	l801
  5998  0C6C                     u9050:
  5999  0C6C                     l5636:
  6000  0C6C  3001               	movlw	1
  6001  0C6D  00DE               	movwf	??___fladd^(0+128)
  6002  0C6E  085E               	movf	??___fladd^(0+128),w
  6003  0C6F  07E8               	addwf	___fladd@bexp^(0+128),f
  6004  0C70                     l801:
  6005  0C70  0A68               	incf	___fladd@bexp^(0+128),w
  6006  0C71  1903               	btfsc	3,2
  6007  0C72  2C74               	goto	u9061
  6008  0C73  2C75               	goto	u9060
  6009  0C74                     u9061:
  6010  0C74  2C7A               	goto	l5640
  6011  0C75                     u9060:
  6012  0C75                     l5638:
  6013  0C75  0868               	movf	___fladd@bexp^(0+128),w
  6014  0C76  1D03               	btfss	3,2
  6015  0C77  2C79               	goto	u9071
  6016  0C78  2C7A               	goto	u9070
  6017  0C79                     u9071:
  6018  0C79  2C88               	goto	l5646
  6019  0C7A                     u9070:
  6020  0C7A                     l5640:
  6021  0C7A  3000               	movlw	0
  6022  0C7B  00D9               	movwf	(___fladd@b+3)^(0+128)
  6023  0C7C  3000               	movlw	0
  6024  0C7D  00D8               	movwf	(___fladd@b+2)^(0+128)
  6025  0C7E  3000               	movlw	0
  6026  0C7F  00D7               	movwf	(___fladd@b+1)^(0+128)
  6027  0C80  3000               	movlw	0
  6028  0C81  00D6               	movwf	___fladd@b^(0+128)
  6029  0C82                     l5642:
  6030  0C82  0868               	movf	___fladd@bexp^(0+128),w
  6031  0C83  1D03               	btfss	3,2
  6032  0C84  2C86               	goto	u9081
  6033  0C85  2C87               	goto	u9080
  6034  0C86                     u9081:
  6035  0C86  2C88               	goto	l5646
  6036  0C87                     u9080:
  6037  0C87                     l5644:
  6038  0C87  01E6               	clrf	___fladd@signs^(0+128)
  6039  0C88                     l5646:
  6040  0C88  1C68               	btfss	___fladd@bexp^(0+128),0
  6041  0C89  2C8B               	goto	u9091
  6042  0C8A  2C8C               	goto	u9090
  6043  0C8B                     u9091:
  6044  0C8B  2C8E               	goto	l5650
  6045  0C8C                     u9090:
  6046  0C8C                     l5648:
  6047  0C8C  17D8               	bsf	(___fladd@b^(0+128)+2),7
  6048  0C8D  2C92               	goto	l809
  6049  0C8E                     l5650:
  6050  0C8E  307F               	movlw	127
  6051  0C8F  00DE               	movwf	??___fladd^(0+128)
  6052  0C90  085E               	movf	??___fladd^(0+128),w
  6053  0C91  05D8               	andwf	(___fladd@b^(0+128)+2),f
  6054  0C92                     l809:
  6055  0C92  0868               	movf	___fladd@bexp^(0+128),w
  6056  0C93  00DE               	movwf	??___fladd^(0+128)
  6057  0C94  1003               	clrc
  6058  0C95  0C5E               	rrf	??___fladd^(0+128),w
  6059  0C96  00DF               	movwf	(??___fladd+1)^(0+128)
  6060  0C97  085F               	movf	(??___fladd+1)^(0+128),w
  6061  0C98  00D9               	movwf	(___fladd@b^(0+128)+3)
  6062  0C99                     l5652:
  6063  0C99  1FE6               	btfss	___fladd@signs^(0+128),7
  6064  0C9A  2C9C               	goto	u9101
  6065  0C9B  2C9D               	goto	u9100
  6066  0C9C                     u9101:
  6067  0C9C  2C9E               	goto	l810
  6068  0C9D                     u9100:
  6069  0C9D                     l5654:
  6070  0C9D  17D9               	bsf	(___fladd@b^(0+128)+3),7
  6071  0C9E                     l810:
  6072  0C9E                     l780:
  6073  0C9E  0008               	return
  6074  0C9F                     __end_of___fladd:
  6075                           
  6076                           	psect	text7
  6077  1BE4                     __ptext7:	
  6078 ;; *************** function _init_PWM *****************
  6079 ;; Defined at:
  6080 ;;		line 2 in file "./moto.h"
  6081 ;; Parameters:    Size  Location     Type
  6082 ;;		None
  6083 ;; Auto vars:     Size  Location     Type
  6084 ;;		None
  6085 ;; Return value:  Size  Location     Type
  6086 ;;                  1    wreg      void 
  6087 ;; Registers used:
  6088 ;;		None
  6089 ;; Tracked objects:
  6090 ;;		On entry : 0/0
  6091 ;;		On exit  : 0/0
  6092 ;;		Unchanged: 0/0
  6093 ;; Data sizes:     COMMON   BANK0   BANK1   BANK3   BANK2
  6094 ;;      Params:         0       0       0       0       0
  6095 ;;      Locals:         0       0       0       0       0
  6096 ;;      Temps:          0       0       0       0       0
  6097 ;;      Totals:         0       0       0       0       0
  6098 ;;Total ram usage:        0 bytes
  6099 ;; Hardware stack levels used:    1
  6100 ;; Hardware stack levels required when called:    5
  6101 ;; This function calls:
  6102 ;;		Nothing
  6103 ;; This function is called by:
  6104 ;;		_main
  6105 ;; This function uses a non-reentrant model
  6106 ;;
  6107                           
  6108                           
  6109                           ;psect for function _init_PWM
  6110  1BE4                     _init_PWM:
  6111  1BE4                     l3906:	
  6112                           ;incstack = 0
  6113                           ; Regs used in _init_PWM: []
  6114                           
  6115                           
  6116                           ;./moto.h: 4:     CCP1M2 = 1;
  6117  1BE4  1283               	bcf	3,5	;RP0=0, select bank0
  6118  1BE5  1303               	bcf	3,6	;RP1=0, select bank0
  6119  1BE6  1517               	bsf	23,2	;volatile
  6120                           
  6121                           ;./moto.h: 5:     CCP1M3 = 1;
  6122  1BE7  1597               	bsf	23,3	;volatile
  6123                           
  6124                           ;./moto.h: 7:     TRISC2 = 0;
  6125  1BE8  1683               	bsf	3,5	;RP0=1, select bank1
  6126  1BE9  1303               	bcf	3,6	;RP1=0, select bank1
  6127  1BEA  1107               	bcf	7,2	;volatile
  6128  1BEB                     l273:
  6129  1BEB  0008               	return
  6130  1BEC                     __end_of_init_PWM:
  6131                           
  6132                           	psect	text8
  6133  1003                     __ptext8:	
  6134 ;; *************** function _Lcd_Write_String *****************
  6135 ;; Defined at:
  6136 ;;		line 95 in file "./lcd.h"
  6137 ;; Parameters:    Size  Location     Type
  6138 ;;  a               1    wreg     PTR unsigned char 
  6139 ;;		 -> STR_35(15), STR_34(15), STR_33(1), STR_32(7), 
  6140 ;;		 -> STR_31(9), STR_30(9), STR_29(11), STR_28(17), 
  6141 ;;		 -> STR_27(5), STR_26(9), STR_25(9), STR_24(1), 
  6142 ;;		 -> STR_23(9), STR_22(11), STR_21(13), STR_20(13), 
  6143 ;;		 -> STR_19(18), STR_18(1), STR_17(7), STR_16(9), 
  6144 ;;		 -> STR_15(1), STR_14(7), STR_13(9), STR_12(14), 
  6145 ;;		 -> STR_11(9), STR_10(18), STR_9(1), STR_8(8), 
  6146 ;;		 -> STR_7(9), STR_6(1), STR_5(9), STR_4(11), 
  6147 ;;		 -> STR_3(5), STR_2(1), STR_1(9), 
  6148 ;; Auto vars:     Size  Location     Type
  6149 ;;  a               1    7[BANK1 ] PTR unsigned char 
  6150 ;;		 -> STR_35(15), STR_34(15), STR_33(1), STR_32(7), 
  6151 ;;		 -> STR_31(9), STR_30(9), STR_29(11), STR_28(17), 
  6152 ;;		 -> STR_27(5), STR_26(9), STR_25(9), STR_24(1), 
  6153 ;;		 -> STR_23(9), STR_22(11), STR_21(13), STR_20(13), 
  6154 ;;		 -> STR_19(18), STR_18(1), STR_17(7), STR_16(9), 
  6155 ;;		 -> STR_15(1), STR_14(7), STR_13(9), STR_12(14), 
  6156 ;;		 -> STR_11(9), STR_10(18), STR_9(1), STR_8(8), 
  6157 ;;		 -> STR_7(9), STR_6(1), STR_5(9), STR_4(11), 
  6158 ;;		 -> STR_3(5), STR_2(1), STR_1(9), 
  6159 ;;  i               2    5[BANK1 ] int 
  6160 ;; Return value:  Size  Location     Type
  6161 ;;                  1    wreg      void 
  6162 ;; Registers used:
  6163 ;;		wreg, fsr0l, fsr0h, status,2, status,0, pclath, cstack
  6164 ;; Tracked objects:
  6165 ;;		On entry : 0/0
  6166 ;;		On exit  : 0/0
  6167 ;;		Unchanged: 0/0
  6168 ;; Data sizes:     COMMON   BANK0   BANK1   BANK3   BANK2
  6169 ;;      Params:         0       0       0       0       0
  6170 ;;      Locals:         0       0       3       0       0
  6171 ;;      Temps:          0       0       0       0       0
  6172 ;;      Totals:         0       0       3       0       0
  6173 ;;Total ram usage:        3 bytes
  6174 ;; Hardware stack levels used:    1
  6175 ;; Hardware stack levels required when called:    7
  6176 ;; This function calls:
  6177 ;;		_Lcd_Write_Char
  6178 ;; This function is called by:
  6179 ;;		_main
  6180 ;; This function uses a non-reentrant model
  6181 ;;
  6182                           
  6183                           
  6184                           ;psect for function _Lcd_Write_String
  6185  1003                     _Lcd_Write_String:
  6186                           
  6187                           ;incstack = 0
  6188 ;; using string table level
  6189                           ; Regs used in _Lcd_Write_String: [wreg-fsr0h+status,2+status,0+pclath+cstack]
  6190                           ;Lcd_Write_String@a stored from wreg
  6191  1003  1683               	bsf	3,5	;RP0=1, select bank1
  6192  1004  1303               	bcf	3,6	;RP1=0, select bank1
  6193  1005  00A7               	movwf	Lcd_Write_String@a^(0+128)
  6194  1006                     l3852:
  6195                           
  6196                           ;./lcd.h: 95: void Lcd_Write_String(char *a);./lcd.h: 96: {;./lcd.h: 97:  int i;;./lcd.h
      +                          : 98:  for(i=0;a[i]!='\0';i++)
  6197  1006  01A5               	clrf	Lcd_Write_String@i^(0+128)
  6198  1007  01A6               	clrf	(Lcd_Write_String@i+1)^(0+128)
  6199  1008  281E               	goto	l3858
  6200  1009                     l3854:
  6201                           
  6202                           ;./lcd.h: 99:     Lcd_Write_Char(a[i]);
  6203  1009  0825               	movf	Lcd_Write_String@i^(0+128),w
  6204  100A  0727               	addwf	Lcd_Write_String@a^(0+128),w
  6205  100B  0084               	movwf	4
  6206  100C  160A  158A  2000  160A  118A  	fcall	stringdir
  6207  1011  160A  158A  24EE  160A  118A  	fcall	_Lcd_Write_Char
  6208  1016                     l3856:
  6209  1016  3001               	movlw	1
  6210  1017  1683               	bsf	3,5	;RP0=1, select bank1
  6211  1018  1303               	bcf	3,6	;RP1=0, select bank1
  6212  1019  07A5               	addwf	Lcd_Write_String@i^(0+128),f
  6213  101A  1803               	skipnc
  6214  101B  0AA6               	incf	(Lcd_Write_String@i+1)^(0+128),f
  6215  101C  3000               	movlw	0
  6216  101D  07A6               	addwf	(Lcd_Write_String@i+1)^(0+128),f
  6217  101E                     l3858:
  6218  101E  0825               	movf	Lcd_Write_String@i^(0+128),w
  6219  101F  0727               	addwf	Lcd_Write_String@a^(0+128),w
  6220  1020  0084               	movwf	4
  6221  1021  160A  158A  2000  160A  118A  	fcall	stringdir
  6222  1026  3A00               	xorlw	0
  6223  1027  1D03               	skipz
  6224  1028  282A               	goto	u6251
  6225  1029  282B               	goto	u6250
  6226  102A                     u6251:
  6227  102A  2809               	goto	l3854
  6228  102B                     u6250:
  6229  102B                     l147:
  6230  102B  0008               	return
  6231  102C                     __end_of_Lcd_Write_String:
  6232                           
  6233                           	psect	text9
  6234  1CEE                     __ptext9:	
  6235 ;; *************** function _Lcd_Write_Char *****************
  6236 ;; Defined at:
  6237 ;;		line 79 in file "./lcd.h"
  6238 ;; Parameters:    Size  Location     Type
  6239 ;;  a               1    wreg     unsigned char 
  6240 ;; Auto vars:     Size  Location     Type
  6241 ;;  a               1    4[BANK1 ] unsigned char 
  6242 ;;  y               1    3[BANK1 ] unsigned char 
  6243 ;;  temp            1    2[BANK1 ] unsigned char 
  6244 ;; Return value:  Size  Location     Type
  6245 ;;                  1    wreg      void 
  6246 ;; Registers used:
  6247 ;;		wreg, status,2, status,0, pclath, cstack
  6248 ;; Tracked objects:
  6249 ;;		On entry : 0/0
  6250 ;;		On exit  : 0/0
  6251 ;;		Unchanged: 0/0
  6252 ;; Data sizes:     COMMON   BANK0   BANK1   BANK3   BANK2
  6253 ;;      Params:         0       0       0       0       0
  6254 ;;      Locals:         0       0       3       0       0
  6255 ;;      Temps:          0       0       1       0       0
  6256 ;;      Totals:         0       0       4       0       0
  6257 ;;Total ram usage:        4 bytes
  6258 ;; Hardware stack levels used:    1
  6259 ;; Hardware stack levels required when called:    6
  6260 ;; This function calls:
  6261 ;;		_Lcd_Port
  6262 ;; This function is called by:
  6263 ;;		_Lcd_Write_String
  6264 ;;		_main
  6265 ;; This function uses a non-reentrant model
  6266 ;;
  6267                           
  6268                           
  6269                           ;psect for function _Lcd_Write_Char
  6270  1CEE                     _Lcd_Write_Char:
  6271                           
  6272                           ;incstack = 0
  6273                           ; Regs used in _Lcd_Write_Char: [wreg+status,2+status,0+pclath+cstack]
  6274                           ;Lcd_Write_Char@a stored from wreg
  6275  1CEE  1683               	bsf	3,5	;RP0=1, select bank1
  6276  1CEF  1303               	bcf	3,6	;RP1=0, select bank1
  6277  1CF0  00A4               	movwf	Lcd_Write_Char@a^(0+128)
  6278  1CF1                     l3202:
  6279                           
  6280                           ;./lcd.h: 79: void Lcd_Write_Char(char a);./lcd.h: 80: {;./lcd.h: 81:    char temp,y;;./
      +                          lcd.h: 82:    temp = a&0x0F;
  6281  1CF1  0824               	movf	Lcd_Write_Char@a^(0+128),w
  6282  1CF2  390F               	andlw	15
  6283  1CF3  00A1               	movwf	??_Lcd_Write_Char^(0+128)
  6284  1CF4  0821               	movf	??_Lcd_Write_Char^(0+128),w
  6285  1CF5  00A2               	movwf	Lcd_Write_Char@temp^(0+128)
  6286                           
  6287                           ;./lcd.h: 83:    y = a&0xF0;
  6288  1CF6  0824               	movf	Lcd_Write_Char@a^(0+128),w
  6289  1CF7  39F0               	andlw	240
  6290  1CF8  00A1               	movwf	??_Lcd_Write_Char^(0+128)
  6291  1CF9  0821               	movf	??_Lcd_Write_Char^(0+128),w
  6292  1CFA  00A3               	movwf	Lcd_Write_Char@y^(0+128)
  6293  1CFB                     l3204:
  6294                           
  6295                           ;./lcd.h: 84:    RD2 = 1;
  6296  1CFB  1283               	bcf	3,5	;RP0=0, select bank0
  6297  1CFC  1303               	bcf	3,6	;RP1=0, select bank0
  6298  1CFD  1508               	bsf	8,2	;volatile
  6299  1CFE                     l3206:
  6300                           
  6301                           ;./lcd.h: 85:    Lcd_Port(y>>4);
  6302  1CFE  1683               	bsf	3,5	;RP0=1, select bank1
  6303  1CFF  1303               	bcf	3,6	;RP1=0, select bank1
  6304  1D00  0823               	movf	Lcd_Write_Char@y^(0+128),w
  6305  1D01  00A1               	movwf	??_Lcd_Write_Char^(0+128)
  6306  1D02  3004               	movlw	4
  6307  1D03                     u4645:
  6308  1D03  1003               	clrc
  6309  1D04  0CA1               	rrf	??_Lcd_Write_Char^(0+128),f
  6310  1D05  3EFF               	addlw	-1
  6311  1D06  1D03               	skipz
  6312  1D07  2D03               	goto	u4645
  6313  1D08  0821               	movf	??_Lcd_Write_Char^(0+128),w
  6314  1D09  120A  158A  2004  160A  158A  	fcall	_Lcd_Port
  6315  1D0E                     l3208:
  6316                           
  6317                           ;./lcd.h: 86:    RD3 = 1;
  6318  1D0E  1283               	bcf	3,5	;RP0=0, select bank0
  6319  1D0F  1303               	bcf	3,6	;RP1=0, select bank0
  6320  1D10  1588               	bsf	8,3	;volatile
  6321  1D11                     l3210:
  6322                           
  6323                           ;./lcd.h: 87:    _delay((unsigned long)((40)*(16000000/4000000.0)));
  6324  1D11  3034               	movlw	52
  6325  1D12  1683               	bsf	3,5	;RP0=1, select bank1
  6326  1D13  1303               	bcf	3,6	;RP1=0, select bank1
  6327  1D14  00A1               	movwf	??_Lcd_Write_Char^(0+128)
  6328  1D15                     u10217:
  6329  1D15  0BA1               	decfsz	??_Lcd_Write_Char^(0+128),f
  6330  1D16  2D15               	goto	u10217
  6331  1D17  0000               	nop
  6332  1D18                     l3212:
  6333                           
  6334                           ;./lcd.h: 88:    RD3 = 0;
  6335  1D18  1283               	bcf	3,5	;RP0=0, select bank0
  6336  1D19  1303               	bcf	3,6	;RP1=0, select bank0
  6337  1D1A  1188               	bcf	8,3	;volatile
  6338  1D1B                     l3214:
  6339                           
  6340                           ;./lcd.h: 89:    Lcd_Port(temp);
  6341  1D1B  1683               	bsf	3,5	;RP0=1, select bank1
  6342  1D1C  1303               	bcf	3,6	;RP1=0, select bank1
  6343  1D1D  0822               	movf	Lcd_Write_Char@temp^(0+128),w
  6344  1D1E  120A  158A  2004  160A  158A  	fcall	_Lcd_Port
  6345  1D23                     l3216:
  6346                           
  6347                           ;./lcd.h: 90:    RD3 = 1;
  6348  1D23  1283               	bcf	3,5	;RP0=0, select bank0
  6349  1D24  1303               	bcf	3,6	;RP1=0, select bank0
  6350  1D25  1588               	bsf	8,3	;volatile
  6351  1D26                     l3218:
  6352                           
  6353                           ;./lcd.h: 91:    _delay((unsigned long)((40)*(16000000/4000000.0)));
  6354  1D26  3034               	movlw	52
  6355  1D27  1683               	bsf	3,5	;RP0=1, select bank1
  6356  1D28  1303               	bcf	3,6	;RP1=0, select bank1
  6357  1D29  00A1               	movwf	??_Lcd_Write_Char^(0+128)
  6358  1D2A                     u10227:
  6359  1D2A  0BA1               	decfsz	??_Lcd_Write_Char^(0+128),f
  6360  1D2B  2D2A               	goto	u10227
  6361  1D2C  0000               	nop
  6362  1D2D                     l3220:
  6363                           
  6364                           ;./lcd.h: 92:    RD3 = 0;
  6365  1D2D  1283               	bcf	3,5	;RP0=0, select bank0
  6366  1D2E  1303               	bcf	3,6	;RP1=0, select bank0
  6367  1D2F  1188               	bcf	8,3	;volatile
  6368  1D30                     l141:
  6369  1D30  0008               	return
  6370  1D31                     __end_of_Lcd_Write_Char:
  6371                           
  6372                           	psect	text10
  6373  1D31                     __ptext10:	
  6374 ;; *************** function _Lcd_Set_Cursor *****************
  6375 ;; Defined at:
  6376 ;;		line 39 in file "./lcd.h"
  6377 ;; Parameters:    Size  Location     Type
  6378 ;;  a               1    wreg     unsigned char 
  6379 ;;  b               1    4[BANK1 ] unsigned char 
  6380 ;; Auto vars:     Size  Location     Type
  6381 ;;  a               1    7[BANK1 ] unsigned char 
  6382 ;;  temp            1   10[BANK1 ] unsigned char 
  6383 ;;  y               1    9[BANK1 ] unsigned char 
  6384 ;;  z               1    8[BANK1 ] unsigned char 
  6385 ;; Return value:  Size  Location     Type
  6386 ;;                  1    wreg      void 
  6387 ;; Registers used:
  6388 ;;		wreg, status,2, status,0, pclath, cstack
  6389 ;; Tracked objects:
  6390 ;;		On entry : 0/0
  6391 ;;		On exit  : 0/0
  6392 ;;		Unchanged: 0/0
  6393 ;; Data sizes:     COMMON   BANK0   BANK1   BANK3   BANK2
  6394 ;;      Params:         0       0       1       0       0
  6395 ;;      Locals:         0       0       4       0       0
  6396 ;;      Temps:          0       0       2       0       0
  6397 ;;      Totals:         0       0       7       0       0
  6398 ;;Total ram usage:        7 bytes
  6399 ;; Hardware stack levels used:    1
  6400 ;; Hardware stack levels required when called:    7
  6401 ;; This function calls:
  6402 ;;		_Lcd_Cmd
  6403 ;; This function is called by:
  6404 ;;		_main
  6405 ;; This function uses a non-reentrant model
  6406 ;;
  6407                           
  6408                           
  6409                           ;psect for function _Lcd_Set_Cursor
  6410  1D31                     _Lcd_Set_Cursor:
  6411                           
  6412                           ;incstack = 0
  6413                           ; Regs used in _Lcd_Set_Cursor: [wreg+status,2+status,0+pclath+cstack]
  6414                           ;Lcd_Set_Cursor@a stored from wreg
  6415  1D31  1683               	bsf	3,5	;RP0=1, select bank1
  6416  1D32  1303               	bcf	3,6	;RP1=0, select bank1
  6417  1D33  00A7               	movwf	Lcd_Set_Cursor@a^(0+128)
  6418  1D34                     l3822:
  6419                           
  6420                           ;./lcd.h: 39: void Lcd_Set_Cursor(char a, char b);./lcd.h: 40: {;./lcd.h: 41:  char temp
      +                          ,z,y;;./lcd.h: 42:  if(a == 1)
  6421  1D34  0327               	decf	Lcd_Set_Cursor@a^(0+128),w
  6422  1D35  1D03               	btfss	3,2
  6423  1D36  2D38               	goto	u6211
  6424  1D37  2D39               	goto	u6210
  6425  1D38                     u6211:
  6426  1D38  2D5E               	goto	l3832
  6427  1D39                     u6210:
  6428  1D39                     l3824:
  6429                           
  6430                           ;./lcd.h: 43:  {;./lcd.h: 44:    temp = 0x80 + b - 1;
  6431  1D39  0824               	movf	Lcd_Set_Cursor@b^(0+128),w
  6432  1D3A  3E7F               	addlw	127
  6433  1D3B  00A5               	movwf	??_Lcd_Set_Cursor^(0+128)
  6434  1D3C  0825               	movf	??_Lcd_Set_Cursor^(0+128),w
  6435  1D3D  00AA               	movwf	Lcd_Set_Cursor@temp^(0+128)
  6436                           
  6437                           ;./lcd.h: 45:   z = temp>>4;
  6438  1D3E  082A               	movf	Lcd_Set_Cursor@temp^(0+128),w
  6439  1D3F  00A5               	movwf	??_Lcd_Set_Cursor^(0+128)
  6440  1D40  3004               	movlw	4
  6441  1D41                     u6225:
  6442  1D41  1003               	clrc
  6443  1D42  0CA5               	rrf	??_Lcd_Set_Cursor^(0+128),f
  6444  1D43  3EFF               	addlw	-1
  6445  1D44  1D03               	skipz
  6446  1D45  2D41               	goto	u6225
  6447  1D46  0825               	movf	??_Lcd_Set_Cursor^(0+128),w
  6448  1D47  00A6               	movwf	(??_Lcd_Set_Cursor+1)^(0+128)
  6449  1D48  0826               	movf	(??_Lcd_Set_Cursor+1)^(0+128),w
  6450  1D49  00A8               	movwf	Lcd_Set_Cursor@z^(0+128)
  6451  1D4A                     l3826:
  6452                           
  6453                           ;./lcd.h: 46:   y = temp & 0x0F;
  6454  1D4A  082A               	movf	Lcd_Set_Cursor@temp^(0+128),w
  6455  1D4B  390F               	andlw	15
  6456  1D4C  00A5               	movwf	??_Lcd_Set_Cursor^(0+128)
  6457  1D4D  0825               	movf	??_Lcd_Set_Cursor^(0+128),w
  6458  1D4E  00A9               	movwf	Lcd_Set_Cursor@y^(0+128)
  6459  1D4F                     l3828:
  6460                           
  6461                           ;./lcd.h: 47:   Lcd_Cmd(z);
  6462  1D4F  0828               	movf	Lcd_Set_Cursor@z^(0+128),w
  6463  1D50  160A  158A  2484  160A  158A  	fcall	_Lcd_Cmd
  6464  1D55                     l3830:
  6465                           
  6466                           ;./lcd.h: 48:   Lcd_Cmd(y);
  6467  1D55  1683               	bsf	3,5	;RP0=1, select bank1
  6468  1D56  1303               	bcf	3,6	;RP1=0, select bank1
  6469  1D57  0829               	movf	Lcd_Set_Cursor@y^(0+128),w
  6470  1D58  160A  158A  2484  160A  158A  	fcall	_Lcd_Cmd
  6471                           
  6472                           ;./lcd.h: 49:  }
  6473  1D5D  2D88               	goto	l135
  6474  1D5E                     l3832:
  6475  1D5E  3002               	movlw	2
  6476  1D5F  0627               	xorwf	Lcd_Set_Cursor@a^(0+128),w
  6477  1D60  1D03               	btfss	3,2
  6478  1D61  2D63               	goto	u6231
  6479  1D62  2D64               	goto	u6230
  6480  1D63                     u6231:
  6481  1D63  2D88               	goto	l135
  6482  1D64                     u6230:
  6483  1D64                     l3834:
  6484                           
  6485                           ;./lcd.h: 51:  {;./lcd.h: 52:   temp = 0xC0 + b - 1;
  6486  1D64  0824               	movf	Lcd_Set_Cursor@b^(0+128),w
  6487  1D65  3EBF               	addlw	191
  6488  1D66  00A5               	movwf	??_Lcd_Set_Cursor^(0+128)
  6489  1D67  0825               	movf	??_Lcd_Set_Cursor^(0+128),w
  6490  1D68  00AA               	movwf	Lcd_Set_Cursor@temp^(0+128)
  6491                           
  6492                           ;./lcd.h: 53:   z = temp>>4;
  6493  1D69  082A               	movf	Lcd_Set_Cursor@temp^(0+128),w
  6494  1D6A  00A5               	movwf	??_Lcd_Set_Cursor^(0+128)
  6495  1D6B  3004               	movlw	4
  6496  1D6C                     u6245:
  6497  1D6C  1003               	clrc
  6498  1D6D  0CA5               	rrf	??_Lcd_Set_Cursor^(0+128),f
  6499  1D6E  3EFF               	addlw	-1
  6500  1D6F  1D03               	skipz
  6501  1D70  2D6C               	goto	u6245
  6502  1D71  0825               	movf	??_Lcd_Set_Cursor^(0+128),w
  6503  1D72  00A6               	movwf	(??_Lcd_Set_Cursor+1)^(0+128)
  6504  1D73  0826               	movf	(??_Lcd_Set_Cursor+1)^(0+128),w
  6505  1D74  00A8               	movwf	Lcd_Set_Cursor@z^(0+128)
  6506  1D75                     l3836:
  6507                           
  6508                           ;./lcd.h: 54:   y = temp & 0x0F;
  6509  1D75  082A               	movf	Lcd_Set_Cursor@temp^(0+128),w
  6510  1D76  390F               	andlw	15
  6511  1D77  00A5               	movwf	??_Lcd_Set_Cursor^(0+128)
  6512  1D78  0825               	movf	??_Lcd_Set_Cursor^(0+128),w
  6513  1D79  00A9               	movwf	Lcd_Set_Cursor@y^(0+128)
  6514  1D7A                     l3838:
  6515                           
  6516                           ;./lcd.h: 55:   Lcd_Cmd(z);
  6517  1D7A  0828               	movf	Lcd_Set_Cursor@z^(0+128),w
  6518  1D7B  160A  158A  2484  160A  158A  	fcall	_Lcd_Cmd
  6519  1D80                     l3840:
  6520                           
  6521                           ;./lcd.h: 56:   Lcd_Cmd(y);
  6522  1D80  1683               	bsf	3,5	;RP0=1, select bank1
  6523  1D81  1303               	bcf	3,6	;RP1=0, select bank1
  6524  1D82  0829               	movf	Lcd_Set_Cursor@y^(0+128),w
  6525  1D83  160A  158A  2484  160A  158A  	fcall	_Lcd_Cmd
  6526  1D88                     l135:
  6527  1D88  0008               	return
  6528  1D89                     __end_of_Lcd_Set_Cursor:
  6529                           
  6530                           	psect	text11
  6531  1D89                     __ptext11:	
  6532 ;; *************** function _Lcd_Init *****************
  6533 ;; Defined at:
  6534 ;;		line 60 in file "./lcd.h"
  6535 ;; Parameters:    Size  Location     Type
  6536 ;;		None
  6537 ;; Auto vars:     Size  Location     Type
  6538 ;;		None
  6539 ;; Return value:  Size  Location     Type
  6540 ;;                  1    wreg      void 
  6541 ;; Registers used:
  6542 ;;		wreg, status,2, status,0, pclath, cstack
  6543 ;; Tracked objects:
  6544 ;;		On entry : 0/0
  6545 ;;		On exit  : 0/0
  6546 ;;		Unchanged: 0/0
  6547 ;; Data sizes:     COMMON   BANK0   BANK1   BANK3   BANK2
  6548 ;;      Params:         0       0       0       0       0
  6549 ;;      Locals:         0       0       0       0       0
  6550 ;;      Temps:          0       0       2       0       0
  6551 ;;      Totals:         0       0       2       0       0
  6552 ;;Total ram usage:        2 bytes
  6553 ;; Hardware stack levels used:    1
  6554 ;; Hardware stack levels required when called:    7
  6555 ;; This function calls:
  6556 ;;		_Lcd_Cmd
  6557 ;;		_Lcd_Port
  6558 ;; This function is called by:
  6559 ;;		_main
  6560 ;; This function uses a non-reentrant model
  6561 ;;
  6562                           
  6563                           
  6564                           ;psect for function _Lcd_Init
  6565  1D89                     _Lcd_Init:
  6566  1D89                     l3842:	
  6567                           ;incstack = 0
  6568                           ; Regs used in _Lcd_Init: [wreg+status,2+status,0+pclath+cstack]
  6569                           
  6570                           
  6571                           ;./lcd.h: 62:   Lcd_Port(0x00);
  6572  1D89  3000               	movlw	0
  6573  1D8A  120A  158A  2004  160A  158A  	fcall	_Lcd_Port
  6574  1D8F                     l3844:
  6575                           
  6576                           ;./lcd.h: 63:    _delay((unsigned long)((20)*(16000000/4000.0)));
  6577  1D8F  3068               	movlw	104
  6578  1D90  1683               	bsf	3,5	;RP0=1, select bank1
  6579  1D91  1303               	bcf	3,6	;RP1=0, select bank1
  6580  1D92  00A5               	movwf	(??_Lcd_Init^(0+128)+1)
  6581  1D93  30E3               	movlw	227
  6582  1D94  00A4               	movwf	??_Lcd_Init^(0+128)
  6583  1D95                     u10237:
  6584  1D95  0BA4               	decfsz	??_Lcd_Init^(0+128),f
  6585  1D96  2D95               	goto	u10237
  6586  1D97  0BA5               	decfsz	(??_Lcd_Init^(0+128)+1),f
  6587  1D98  2D95               	goto	u10237
  6588  1D99  2D9A               	nop2
  6589  1D9A                     l3846:
  6590                           
  6591                           ;./lcd.h: 64:   Lcd_Cmd(0x03);
  6592  1D9A  3003               	movlw	3
  6593  1D9B  160A  158A  2484  160A  158A  	fcall	_Lcd_Cmd
  6594                           
  6595                           ;./lcd.h: 65:  _delay((unsigned long)((5)*(16000000/4000.0)));
  6596  1DA0  301A               	movlw	26
  6597  1DA1  1683               	bsf	3,5	;RP0=1, select bank1
  6598  1DA2  1303               	bcf	3,6	;RP1=0, select bank1
  6599  1DA3  00A5               	movwf	(??_Lcd_Init^(0+128)+1)
  6600  1DA4  30F7               	movlw	247
  6601  1DA5  00A4               	movwf	??_Lcd_Init^(0+128)
  6602  1DA6                     u10247:
  6603  1DA6  0BA4               	decfsz	??_Lcd_Init^(0+128),f
  6604  1DA7  2DA6               	goto	u10247
  6605  1DA8  0BA5               	decfsz	(??_Lcd_Init^(0+128)+1),f
  6606  1DA9  2DA6               	goto	u10247
  6607  1DAA  2DAB               	nop2
  6608  1DAB                     l3848:
  6609                           
  6610                           ;./lcd.h: 66:   Lcd_Cmd(0x03);
  6611  1DAB  3003               	movlw	3
  6612  1DAC  160A  158A  2484  160A  158A  	fcall	_Lcd_Cmd
  6613  1DB1                     l3850:
  6614                           
  6615                           ;./lcd.h: 67:  _delay((unsigned long)((11)*(16000000/4000.0)));
  6616  1DB1  303A               	movlw	58
  6617  1DB2  1683               	bsf	3,5	;RP0=1, select bank1
  6618  1DB3  1303               	bcf	3,6	;RP1=0, select bank1
  6619  1DB4  00A5               	movwf	(??_Lcd_Init^(0+128)+1)
  6620  1DB5  3022               	movlw	34
  6621  1DB6  00A4               	movwf	??_Lcd_Init^(0+128)
  6622  1DB7                     u10257:
  6623  1DB7  0BA4               	decfsz	??_Lcd_Init^(0+128),f
  6624  1DB8  2DB7               	goto	u10257
  6625  1DB9  0BA5               	decfsz	(??_Lcd_Init^(0+128)+1),f
  6626  1DBA  2DB7               	goto	u10257
  6627  1DBB  0000               	nop
  6628                           
  6629                           ;./lcd.h: 68:   Lcd_Cmd(0x03);
  6630  1DBC  3003               	movlw	3
  6631  1DBD  160A  158A  2484  160A  158A  	fcall	_Lcd_Cmd
  6632                           
  6633                           ;./lcd.h: 70:   Lcd_Cmd(0x02);
  6634  1DC2  3002               	movlw	2
  6635  1DC3  160A  158A  2484  160A  158A  	fcall	_Lcd_Cmd
  6636                           
  6637                           ;./lcd.h: 71:   Lcd_Cmd(0x02);
  6638  1DC8  3002               	movlw	2
  6639  1DC9  160A  158A  2484  160A  158A  	fcall	_Lcd_Cmd
  6640                           
  6641                           ;./lcd.h: 72:   Lcd_Cmd(0x08);
  6642  1DCE  3008               	movlw	8
  6643  1DCF  160A  158A  2484  160A  158A  	fcall	_Lcd_Cmd
  6644                           
  6645                           ;./lcd.h: 73:   Lcd_Cmd(0x00);
  6646  1DD4  3000               	movlw	0
  6647  1DD5  160A  158A  2484  160A  158A  	fcall	_Lcd_Cmd
  6648                           
  6649                           ;./lcd.h: 74:   Lcd_Cmd(0x0C);
  6650  1DDA  300C               	movlw	12
  6651  1DDB  160A  158A  2484  160A  158A  	fcall	_Lcd_Cmd
  6652                           
  6653                           ;./lcd.h: 75:   Lcd_Cmd(0x00);
  6654  1DE0  3000               	movlw	0
  6655  1DE1  160A  158A  2484  160A  158A  	fcall	_Lcd_Cmd
  6656                           
  6657                           ;./lcd.h: 76:   Lcd_Cmd(0x06);
  6658  1DE6  3006               	movlw	6
  6659  1DE7  160A  158A  2484  160A  158A  	fcall	_Lcd_Cmd
  6660  1DEC                     l138:
  6661  1DEC  0008               	return
  6662  1DED                     __end_of_Lcd_Init:
  6663                           
  6664                           	psect	text12
  6665  1BEC                     __ptext12:	
  6666 ;; *************** function _Lcd_Clear *****************
  6667 ;; Defined at:
  6668 ;;		line 33 in file "./lcd.h"
  6669 ;; Parameters:    Size  Location     Type
  6670 ;;		None
  6671 ;; Auto vars:     Size  Location     Type
  6672 ;;		None
  6673 ;; Return value:  Size  Location     Type
  6674 ;;                  2  128[None  ] int 
  6675 ;; Registers used:
  6676 ;;		wreg, status,2, status,0, pclath, cstack
  6677 ;; Tracked objects:
  6678 ;;		On entry : 0/0
  6679 ;;		On exit  : 0/0
  6680 ;;		Unchanged: 0/0
  6681 ;; Data sizes:     COMMON   BANK0   BANK1   BANK3   BANK2
  6682 ;;      Params:         0       0       0       0       0
  6683 ;;      Locals:         0       0       0       0       0
  6684 ;;      Temps:          0       0       0       0       0
  6685 ;;      Totals:         0       0       0       0       0
  6686 ;;Total ram usage:        0 bytes
  6687 ;; Hardware stack levels used:    1
  6688 ;; Hardware stack levels required when called:    7
  6689 ;; This function calls:
  6690 ;;		_Lcd_Cmd
  6691 ;; This function is called by:
  6692 ;;		_main
  6693 ;; This function uses a non-reentrant model
  6694 ;;
  6695                           
  6696                           
  6697                           ;psect for function _Lcd_Clear
  6698  1BEC                     _Lcd_Clear:
  6699  1BEC                     l3820:	
  6700                           ;incstack = 0
  6701                           ; Regs used in _Lcd_Clear: [wreg+status,2+status,0+pclath+cstack]
  6702                           
  6703                           
  6704                           ;./lcd.h: 35:  Lcd_Cmd(0);
  6705  1BEC  3000               	movlw	0
  6706  1BED  160A  158A  2484  160A  158A  	fcall	_Lcd_Cmd
  6707                           
  6708                           ;./lcd.h: 36:  Lcd_Cmd(1);
  6709  1BF2  3001               	movlw	1
  6710  1BF3  160A  158A  2484  160A  158A  	fcall	_Lcd_Cmd
  6711  1BF8                     l129:
  6712  1BF8  0008               	return
  6713  1BF9                     __end_of_Lcd_Clear:
  6714                           
  6715                           	psect	text13
  6716  1C84                     __ptext13:	
  6717 ;; *************** function _Lcd_Cmd *****************
  6718 ;; Defined at:
  6719 ;;		line 24 in file "./lcd.h"
  6720 ;; Parameters:    Size  Location     Type
  6721 ;;  a               1    wreg     unsigned char 
  6722 ;; Auto vars:     Size  Location     Type
  6723 ;;  a               1    3[BANK1 ] unsigned char 
  6724 ;; Return value:  Size  Location     Type
  6725 ;;                  1    wreg      void 
  6726 ;; Registers used:
  6727 ;;		wreg, status,2, status,0, pclath, cstack
  6728 ;; Tracked objects:
  6729 ;;		On entry : 0/0
  6730 ;;		On exit  : 0/0
  6731 ;;		Unchanged: 0/0
  6732 ;; Data sizes:     COMMON   BANK0   BANK1   BANK3   BANK2
  6733 ;;      Params:         0       0       0       0       0
  6734 ;;      Locals:         0       0       1       0       0
  6735 ;;      Temps:          0       0       2       0       0
  6736 ;;      Totals:         0       0       3       0       0
  6737 ;;Total ram usage:        3 bytes
  6738 ;; Hardware stack levels used:    1
  6739 ;; Hardware stack levels required when called:    6
  6740 ;; This function calls:
  6741 ;;		_Lcd_Port
  6742 ;; This function is called by:
  6743 ;;		_Lcd_Clear
  6744 ;;		_Lcd_Set_Cursor
  6745 ;;		_Lcd_Init
  6746 ;;		_Lcd_Shift_Right
  6747 ;;		_Lcd_Shift_Left
  6748 ;; This function uses a non-reentrant model
  6749 ;;
  6750                           
  6751                           
  6752                           ;psect for function _Lcd_Cmd
  6753  1C84                     _Lcd_Cmd:
  6754                           
  6755                           ;incstack = 0
  6756                           ; Regs used in _Lcd_Cmd: [wreg+status,2+status,0+pclath+cstack]
  6757                           ;Lcd_Cmd@a stored from wreg
  6758  1C84  1683               	bsf	3,5	;RP0=1, select bank1
  6759  1C85  1303               	bcf	3,6	;RP1=0, select bank1
  6760  1C86  00A3               	movwf	Lcd_Cmd@a^(0+128)
  6761  1C87                     l3192:
  6762                           
  6763                           ;./lcd.h: 24: void Lcd_Cmd(char a);./lcd.h: 25: {;./lcd.h: 26:  RD2 = 0;
  6764  1C87  1283               	bcf	3,5	;RP0=0, select bank0
  6765  1C88  1303               	bcf	3,6	;RP1=0, select bank0
  6766  1C89  1108               	bcf	8,2	;volatile
  6767  1C8A                     l3194:
  6768                           
  6769                           ;./lcd.h: 27:  Lcd_Port(a);
  6770  1C8A  1683               	bsf	3,5	;RP0=1, select bank1
  6771  1C8B  1303               	bcf	3,6	;RP1=0, select bank1
  6772  1C8C  0823               	movf	Lcd_Cmd@a^(0+128),w
  6773  1C8D  120A  158A  2004  160A  158A  	fcall	_Lcd_Port
  6774  1C92                     l3196:
  6775                           
  6776                           ;./lcd.h: 28:  RD3 = 1;
  6777  1C92  1283               	bcf	3,5	;RP0=0, select bank0
  6778  1C93  1303               	bcf	3,6	;RP1=0, select bank0
  6779  1C94  1588               	bsf	8,3	;volatile
  6780  1C95                     l3198:
  6781                           
  6782                           ;./lcd.h: 29:         _delay((unsigned long)((4)*(16000000/4000.0)));
  6783  1C95  3015               	movlw	21
  6784  1C96  1683               	bsf	3,5	;RP0=1, select bank1
  6785  1C97  1303               	bcf	3,6	;RP1=0, select bank1
  6786  1C98  00A2               	movwf	(??_Lcd_Cmd^(0+128)+1)
  6787  1C99  30C5               	movlw	197
  6788  1C9A  00A1               	movwf	??_Lcd_Cmd^(0+128)
  6789  1C9B                     u10267:
  6790  1C9B  0BA1               	decfsz	??_Lcd_Cmd^(0+128),f
  6791  1C9C  2C9B               	goto	u10267
  6792  1C9D  0BA2               	decfsz	(??_Lcd_Cmd^(0+128)+1),f
  6793  1C9E  2C9B               	goto	u10267
  6794  1C9F  2CA0               	nop2
  6795  1CA0                     l3200:
  6796                           
  6797                           ;./lcd.h: 30:         RD3 = 0;
  6798  1CA0  1283               	bcf	3,5	;RP0=0, select bank0
  6799  1CA1  1303               	bcf	3,6	;RP1=0, select bank0
  6800  1CA2  1188               	bcf	8,3	;volatile
  6801  1CA3                     l126:
  6802  1CA3  0008               	return
  6803  1CA4                     __end_of_Lcd_Cmd:
  6804                           
  6805                           	psect	text14
  6806  0804                     __ptext14:	
  6807 ;; *************** function _Lcd_Port *****************
  6808 ;; Defined at:
  6809 ;;		line 2 in file "./lcd.h"
  6810 ;; Parameters:    Size  Location     Type
  6811 ;;  a               1    wreg     unsigned char 
  6812 ;; Auto vars:     Size  Location     Type
  6813 ;;  a               1    0[BANK1 ] unsigned char 
  6814 ;; Return value:  Size  Location     Type
  6815 ;;                  1    wreg      void 
  6816 ;; Registers used:
  6817 ;;		wreg
  6818 ;; Tracked objects:
  6819 ;;		On entry : 0/0
  6820 ;;		On exit  : 0/0
  6821 ;;		Unchanged: 0/0
  6822 ;; Data sizes:     COMMON   BANK0   BANK1   BANK3   BANK2
  6823 ;;      Params:         0       0       0       0       0
  6824 ;;      Locals:         0       0       1       0       0
  6825 ;;      Temps:          0       0       0       0       0
  6826 ;;      Totals:         0       0       1       0       0
  6827 ;;Total ram usage:        1 bytes
  6828 ;; Hardware stack levels used:    1
  6829 ;; Hardware stack levels required when called:    5
  6830 ;; This function calls:
  6831 ;;		Nothing
  6832 ;; This function is called by:
  6833 ;;		_Lcd_Cmd
  6834 ;;		_Lcd_Init
  6835 ;;		_Lcd_Write_Char
  6836 ;; This function uses a non-reentrant model
  6837 ;;
  6838                           
  6839                           
  6840                           ;psect for function _Lcd_Port
  6841  0804                     _Lcd_Port:
  6842                           
  6843                           ;incstack = 0
  6844                           ; Regs used in _Lcd_Port: [wreg]
  6845                           ;Lcd_Port@a stored from wreg
  6846  0804  1683               	bsf	3,5	;RP0=1, select bank1
  6847  0805  1303               	bcf	3,6	;RP1=0, select bank1
  6848  0806  00A0               	movwf	Lcd_Port@a^(0+128)
  6849  0807                     l2820:
  6850                           
  6851                           ;./lcd.h: 2: void Lcd_Port(char a);./lcd.h: 3: {;./lcd.h: 4:  if(a & 1)
  6852  0807  1C20               	btfss	Lcd_Port@a^(0+128),0
  6853  0808  280A               	goto	u3701
  6854  0809  280B               	goto	u3700
  6855  080A                     u3701:
  6856  080A  280F               	goto	l115
  6857  080B                     u3700:
  6858  080B                     l2822:
  6859                           
  6860                           ;./lcd.h: 5:   RD4 = 1;
  6861  080B  1283               	bcf	3,5	;RP0=0, select bank0
  6862  080C  1303               	bcf	3,6	;RP1=0, select bank0
  6863  080D  1608               	bsf	8,4	;volatile
  6864  080E  2812               	goto	l116
  6865  080F                     l115:	
  6866                           ;./lcd.h: 6:  else
  6867                           
  6868                           
  6869                           ;./lcd.h: 7:   RD4 = 0;
  6870  080F  1283               	bcf	3,5	;RP0=0, select bank0
  6871  0810  1303               	bcf	3,6	;RP1=0, select bank0
  6872  0811  1208               	bcf	8,4	;volatile
  6873  0812                     l116:
  6874                           
  6875                           ;./lcd.h: 9:  if(a & 2)
  6876  0812  1683               	bsf	3,5	;RP0=1, select bank1
  6877  0813  1303               	bcf	3,6	;RP1=0, select bank1
  6878  0814  1CA0               	btfss	Lcd_Port@a^(0+128),1
  6879  0815  2817               	goto	u3711
  6880  0816  2818               	goto	u3710
  6881  0817                     u3711:
  6882  0817  281C               	goto	l117
  6883  0818                     u3710:
  6884  0818                     l2824:
  6885                           
  6886                           ;./lcd.h: 10:   RD5 = 1;
  6887  0818  1283               	bcf	3,5	;RP0=0, select bank0
  6888  0819  1303               	bcf	3,6	;RP1=0, select bank0
  6889  081A  1688               	bsf	8,5	;volatile
  6890  081B  281F               	goto	l118
  6891  081C                     l117:	
  6892                           ;./lcd.h: 11:  else
  6893                           
  6894                           
  6895                           ;./lcd.h: 12:   RD5 = 0;
  6896  081C  1283               	bcf	3,5	;RP0=0, select bank0
  6897  081D  1303               	bcf	3,6	;RP1=0, select bank0
  6898  081E  1288               	bcf	8,5	;volatile
  6899  081F                     l118:
  6900                           
  6901                           ;./lcd.h: 14:  if(a & 4)
  6902  081F  1683               	bsf	3,5	;RP0=1, select bank1
  6903  0820  1303               	bcf	3,6	;RP1=0, select bank1
  6904  0821  1D20               	btfss	Lcd_Port@a^(0+128),2
  6905  0822  2824               	goto	u3721
  6906  0823  2825               	goto	u3720
  6907  0824                     u3721:
  6908  0824  2829               	goto	l119
  6909  0825                     u3720:
  6910  0825                     l2826:
  6911                           
  6912                           ;./lcd.h: 15:   RD6 = 1;
  6913  0825  1283               	bcf	3,5	;RP0=0, select bank0
  6914  0826  1303               	bcf	3,6	;RP1=0, select bank0
  6915  0827  1708               	bsf	8,6	;volatile
  6916  0828  282C               	goto	l120
  6917  0829                     l119:	
  6918                           ;./lcd.h: 16:  else
  6919                           
  6920                           
  6921                           ;./lcd.h: 17:   RD6 = 0;
  6922  0829  1283               	bcf	3,5	;RP0=0, select bank0
  6923  082A  1303               	bcf	3,6	;RP1=0, select bank0
  6924  082B  1308               	bcf	8,6	;volatile
  6925  082C                     l120:
  6926                           
  6927                           ;./lcd.h: 19:  if(a & 8)
  6928  082C  1683               	bsf	3,5	;RP0=1, select bank1
  6929  082D  1303               	bcf	3,6	;RP1=0, select bank1
  6930  082E  1DA0               	btfss	Lcd_Port@a^(0+128),3
  6931  082F  2831               	goto	u3731
  6932  0830  2832               	goto	u3730
  6933  0831                     u3731:
  6934  0831  2836               	goto	l121
  6935  0832                     u3730:
  6936  0832                     l2828:
  6937                           
  6938                           ;./lcd.h: 20:   RD7 = 1;
  6939  0832  1283               	bcf	3,5	;RP0=0, select bank0
  6940  0833  1303               	bcf	3,6	;RP1=0, select bank0
  6941  0834  1788               	bsf	8,7	;volatile
  6942  0835  2839               	goto	l123
  6943  0836                     l121:	
  6944                           ;./lcd.h: 21:  else
  6945                           
  6946                           
  6947                           ;./lcd.h: 22:   RD7 = 0;
  6948  0836  1283               	bcf	3,5	;RP0=0, select bank0
  6949  0837  1303               	bcf	3,6	;RP1=0, select bank0
  6950  0838  1388               	bcf	8,7	;volatile
  6951  0839                     l123:
  6952  0839  0008               	return
  6953  083A                     __end_of_Lcd_Port:
  6954                           
  6955                           	psect	text15
  6956  07EE                     __ptext15:	
  6957 ;; *************** function _InitKeypad *****************
  6958 ;; Defined at:
  6959 ;;		line 2 in file "./keypad.h"
  6960 ;; Parameters:    Size  Location     Type
  6961 ;;		None
  6962 ;; Auto vars:     Size  Location     Type
  6963 ;;		None
  6964 ;; Return value:  Size  Location     Type
  6965 ;;                  1    wreg      void 
  6966 ;; Registers used:
  6967 ;;		wreg, status,2, status,0
  6968 ;; Tracked objects:
  6969 ;;		On entry : 0/0
  6970 ;;		On exit  : 0/0
  6971 ;;		Unchanged: 0/0
  6972 ;; Data sizes:     COMMON   BANK0   BANK1   BANK3   BANK2
  6973 ;;      Params:         0       0       0       0       0
  6974 ;;      Locals:         0       0       0       0       0
  6975 ;;      Temps:          0       0       1       0       0
  6976 ;;      Totals:         0       0       1       0       0
  6977 ;;Total ram usage:        1 bytes
  6978 ;; Hardware stack levels used:    1
  6979 ;; Hardware stack levels required when called:    5
  6980 ;; This function calls:
  6981 ;;		Nothing
  6982 ;; This function is called by:
  6983 ;;		_main
  6984 ;; This function uses a non-reentrant model
  6985 ;;
  6986                           
  6987                           
  6988                           ;psect for function _InitKeypad
  6989  07EE                     _InitKeypad:
  6990  07EE                     l3886:	
  6991                           ;incstack = 0
  6992                           ; Regs used in _InitKeypad: [wreg+status,2+status,0]
  6993                           
  6994                           
  6995                           ;./keypad.h: 4:  PORTB = 0x00;
  6996  07EE  1283               	bcf	3,5	;RP0=0, select bank0
  6997  07EF  1303               	bcf	3,6	;RP1=0, select bank0
  6998  07F0  0186               	clrf	6	;volatile
  6999  07F1                     l3888:
  7000                           
  7001                           ;./keypad.h: 5:  TRISB = 0xFF;
  7002  07F1  30FF               	movlw	255
  7003  07F2  1683               	bsf	3,5	;RP0=1, select bank1
  7004  07F3  1303               	bcf	3,6	;RP1=0, select bank1
  7005  07F4  0086               	movwf	6	;volatile
  7006  07F5                     l3890:
  7007                           
  7008                           ;./keypad.h: 6:  TRISC=0x00;
  7009  07F5  0187               	clrf	7	;volatile
  7010  07F6                     l3892:
  7011                           
  7012                           ;./keypad.h: 7:  PORTC=0x00;
  7013  07F6  1283               	bcf	3,5	;RP0=0, select bank0
  7014  07F7  1303               	bcf	3,6	;RP1=0, select bank0
  7015  07F8  0187               	clrf	7	;volatile
  7016  07F9                     l3894:
  7017                           
  7018                           ;./keypad.h: 8:  OPTION_REG &= 0x7F;
  7019  07F9  307F               	movlw	127
  7020  07FA  1683               	bsf	3,5	;RP0=1, select bank1
  7021  07FB  1303               	bcf	3,6	;RP1=0, select bank1
  7022  07FC  00A0               	movwf	??_InitKeypad^(0+128)
  7023  07FD  0820               	movf	??_InitKeypad^(0+128),w
  7024  07FE  0581               	andwf	1,f	;volatile
  7025  07FF                     l165:
  7026  07FF  0008               	return
  7027  0800                     __end_of_InitKeypad:
  7028                           
  7029                           	psect	text16
  7030  1C51                     __ptext16:	
  7031 ;; *************** function _GetKey *****************
  7032 ;; Defined at:
  7033 ;;		line 48 in file "./keypad.h"
  7034 ;; Parameters:    Size  Location     Type
  7035 ;;		None
  7036 ;; Auto vars:     Size  Location     Type
  7037 ;;  key             1    4[BANK1 ] unsigned char 
  7038 ;; Return value:  Size  Location     Type
  7039 ;;                  1    wreg      unsigned char 
  7040 ;; Registers used:
  7041 ;;		wreg, status,2, status,0, pclath, cstack
  7042 ;; Tracked objects:
  7043 ;;		On entry : 0/0
  7044 ;;		On exit  : 0/0
  7045 ;;		Unchanged: 0/0
  7046 ;; Data sizes:     COMMON   BANK0   BANK1   BANK3   BANK2
  7047 ;;      Params:         0       0       0       0       0
  7048 ;;      Locals:         0       0       1       0       0
  7049 ;;      Temps:          0       0       1       0       0
  7050 ;;      Totals:         0       0       2       0       0
  7051 ;;Total ram usage:        2 bytes
  7052 ;; Hardware stack levels used:    1
  7053 ;; Hardware stack levels required when called:    6
  7054 ;; This function calls:
  7055 ;;		_READ_SWITCHES
  7056 ;; This function is called by:
  7057 ;;		_main
  7058 ;; This function uses a non-reentrant model
  7059 ;;
  7060                           
  7061                           
  7062                           ;psect for function _GetKey
  7063  1C51                     _GetKey:
  7064  1C51                     l3896:	
  7065                           ;incstack = 0
  7066                           ; Regs used in _GetKey: [wreg+status,2+status,0+pclath+cstack]
  7067                           
  7068                           
  7069                           ;./keypad.h: 50:  char key = 'n';
  7070  1C51  306E               	movlw	110
  7071  1C52  1683               	bsf	3,5	;RP0=1, select bank1
  7072  1C53  1303               	bcf	3,6	;RP1=0, select bank1
  7073  1C54  00A3               	movwf	??_GetKey^(0+128)
  7074  1C55  0823               	movf	??_GetKey^(0+128),w
  7075  1C56  00A4               	movwf	GetKey@key^(0+128)
  7076                           
  7077                           ;./keypad.h: 51:  while(key=='n')
  7078  1C57  2C62               	goto	l3900
  7079  1C58                     l3898:
  7080                           
  7081                           ;./keypad.h: 52:   key = READ_SWITCHES();
  7082  1C58  160A  118A  2582  160A  158A  	fcall	_READ_SWITCHES
  7083  1C5D  1683               	bsf	3,5	;RP0=1, select bank1
  7084  1C5E  1303               	bcf	3,6	;RP1=0, select bank1
  7085  1C5F  00A3               	movwf	??_GetKey^(0+128)
  7086  1C60  0823               	movf	??_GetKey^(0+128),w
  7087  1C61  00A4               	movwf	GetKey@key^(0+128)
  7088  1C62                     l3900:
  7089                           
  7090                           ;./keypad.h: 51:  while(key=='n')
  7091  1C62  306E               	movlw	110
  7092  1C63  0624               	xorwf	GetKey@key^(0+128),w
  7093  1C64  1903               	btfsc	3,2
  7094  1C65  2C67               	goto	u6271
  7095  1C66  2C68               	goto	u6270
  7096  1C67                     u6271:
  7097  1C67  2C58               	goto	l3898
  7098  1C68                     u6270:
  7099  1C68                     l3902:
  7100                           
  7101                           ;./keypad.h: 53:  return key;
  7102  1C68  0824               	movf	GetKey@key^(0+128),w
  7103  1C69                     l270:
  7104  1C69  0008               	return
  7105  1C6A                     __end_of_GetKey:
  7106                           
  7107                           	psect	text17
  7108  1582                     __ptext17:	
  7109 ;; *************** function _READ_SWITCHES *****************
  7110 ;; Defined at:
  7111 ;;		line 11 in file "./keypad.h"
  7112 ;; Parameters:    Size  Location     Type
  7113 ;;		None
  7114 ;; Auto vars:     Size  Location     Type
  7115 ;;		None
  7116 ;; Return value:  Size  Location     Type
  7117 ;;                  1    wreg      unsigned char 
  7118 ;; Registers used:
  7119 ;;		wreg
  7120 ;; Tracked objects:
  7121 ;;		On entry : 0/0
  7122 ;;		On exit  : 0/0
  7123 ;;		Unchanged: 0/0
  7124 ;; Data sizes:     COMMON   BANK0   BANK1   BANK3   BANK2
  7125 ;;      Params:         0       0       0       0       0
  7126 ;;      Locals:         0       0       0       0       0
  7127 ;;      Temps:          0       0       3       0       0
  7128 ;;      Totals:         0       0       3       0       0
  7129 ;;Total ram usage:        3 bytes
  7130 ;; Hardware stack levels used:    1
  7131 ;; Hardware stack levels required when called:    5
  7132 ;; This function calls:
  7133 ;;		Nothing
  7134 ;; This function is called by:
  7135 ;;		_GetKey
  7136 ;; This function uses a non-reentrant model
  7137 ;;
  7138                           
  7139                           
  7140                           ;psect for function _READ_SWITCHES
  7141  1582                     _READ_SWITCHES:
  7142  1582                     l3222:	
  7143                           ;incstack = 0
  7144                           ; Regs used in _READ_SWITCHES: [wreg]
  7145                           
  7146                           
  7147                           ;./keypad.h: 13:  RC4 = 0; RC5 = 1; RC6 = 1; RC7 = 1;
  7148  1582  1283               	bcf	3,5	;RP0=0, select bank0
  7149  1583  1303               	bcf	3,6	;RP1=0, select bank0
  7150  1584  1207               	bcf	7,4	;volatile
  7151  1585  1687               	bsf	7,5	;volatile
  7152  1586  1707               	bsf	7,6	;volatile
  7153  1587  1787               	bsf	7,7	;volatile
  7154                           
  7155                           ;./keypad.h: 15:  if (RB0 == 0) { _delay((unsigned long)((250)*(16000000/4000.0))); whil
      +                          e (RB0==0); return 'D'; }
  7156  1588  1806               	btfsc	6,0	;volatile
  7157  1589  2D8B               	goto	u4651
  7158  158A  2D8C               	goto	u4650
  7159  158B                     u4651:
  7160  158B  2DA2               	goto	l168
  7161  158C                     u4650:
  7162  158C                     l3224:
  7163  158C  3006               	movlw	6
  7164  158D  1683               	bsf	3,5	;RP0=1, select bank1
  7165  158E  1303               	bcf	3,6	;RP1=0, select bank1
  7166  158F  00A2               	movwf	(??_READ_SWITCHES^(0+128)+2)
  7167  1590  3013               	movlw	19
  7168  1591  00A1               	movwf	(??_READ_SWITCHES^(0+128)+1)
  7169  1592  30AD               	movlw	173
  7170  1593  00A0               	movwf	??_READ_SWITCHES^(0+128)
  7171  1594                     u10277:
  7172  1594  0BA0               	decfsz	??_READ_SWITCHES^(0+128),f
  7173  1595  2D94               	goto	u10277
  7174  1596  0BA1               	decfsz	(??_READ_SWITCHES^(0+128)+1),f
  7175  1597  2D94               	goto	u10277
  7176  1598  0BA2               	decfsz	(??_READ_SWITCHES^(0+128)+2),f
  7177  1599  2D94               	goto	u10277
  7178  159A                     l169:
  7179  159A  1283               	bcf	3,5	;RP0=0, select bank0
  7180  159B  1303               	bcf	3,6	;RP1=0, select bank0
  7181  159C  1C06               	btfss	6,0	;volatile
  7182  159D  2D9F               	goto	u4661
  7183  159E  2DA0               	goto	u4660
  7184  159F                     u4661:
  7185  159F  2D9A               	goto	l169
  7186  15A0                     u4660:
  7187  15A0                     l3226:
  7188  15A0  3044               	movlw	68
  7189  15A1  2FFF               	goto	l172
  7190  15A2                     l168:
  7191                           
  7192                           ;./keypad.h: 16:  if (RB1 == 0) { _delay((unsigned long)((250)*(16000000/4000.0))); whil
      +                          e (RB1==0); return '#'; }
  7193  15A2  1886               	btfsc	6,1	;volatile
  7194  15A3  2DA5               	goto	u4671
  7195  15A4  2DA6               	goto	u4670
  7196  15A5                     u4671:
  7197  15A5  2DBC               	goto	l173
  7198  15A6                     u4670:
  7199  15A6                     l3230:
  7200  15A6  3006               	movlw	6
  7201  15A7  1683               	bsf	3,5	;RP0=1, select bank1
  7202  15A8  1303               	bcf	3,6	;RP1=0, select bank1
  7203  15A9  00A2               	movwf	(??_READ_SWITCHES^(0+128)+2)
  7204  15AA  3013               	movlw	19
  7205  15AB  00A1               	movwf	(??_READ_SWITCHES^(0+128)+1)
  7206  15AC  30AD               	movlw	173
  7207  15AD  00A0               	movwf	??_READ_SWITCHES^(0+128)
  7208  15AE                     u10287:
  7209  15AE  0BA0               	decfsz	??_READ_SWITCHES^(0+128),f
  7210  15AF  2DAE               	goto	u10287
  7211  15B0  0BA1               	decfsz	(??_READ_SWITCHES^(0+128)+1),f
  7212  15B1  2DAE               	goto	u10287
  7213  15B2  0BA2               	decfsz	(??_READ_SWITCHES^(0+128)+2),f
  7214  15B3  2DAE               	goto	u10287
  7215  15B4                     l174:
  7216  15B4  1283               	bcf	3,5	;RP0=0, select bank0
  7217  15B5  1303               	bcf	3,6	;RP1=0, select bank0
  7218  15B6  1C86               	btfss	6,1	;volatile
  7219  15B7  2DB9               	goto	u4681
  7220  15B8  2DBA               	goto	u4680
  7221  15B9                     u4681:
  7222  15B9  2DB4               	goto	l174
  7223  15BA                     u4680:
  7224  15BA                     l3232:
  7225  15BA  3023               	movlw	35
  7226  15BB  2FFF               	goto	l172
  7227  15BC                     l173:
  7228                           
  7229                           ;./keypad.h: 17:  if (RB2 == 0) { _delay((unsigned long)((250)*(16000000/4000.0))); whil
      +                          e (RB2==0); return '0'; }
  7230  15BC  1906               	btfsc	6,2	;volatile
  7231  15BD  2DBF               	goto	u4691
  7232  15BE  2DC0               	goto	u4690
  7233  15BF                     u4691:
  7234  15BF  2DD6               	goto	l177
  7235  15C0                     u4690:
  7236  15C0                     l3236:
  7237  15C0  3006               	movlw	6
  7238  15C1  1683               	bsf	3,5	;RP0=1, select bank1
  7239  15C2  1303               	bcf	3,6	;RP1=0, select bank1
  7240  15C3  00A2               	movwf	(??_READ_SWITCHES^(0+128)+2)
  7241  15C4  3013               	movlw	19
  7242  15C5  00A1               	movwf	(??_READ_SWITCHES^(0+128)+1)
  7243  15C6  30AD               	movlw	173
  7244  15C7  00A0               	movwf	??_READ_SWITCHES^(0+128)
  7245  15C8                     u10297:
  7246  15C8  0BA0               	decfsz	??_READ_SWITCHES^(0+128),f
  7247  15C9  2DC8               	goto	u10297
  7248  15CA  0BA1               	decfsz	(??_READ_SWITCHES^(0+128)+1),f
  7249  15CB  2DC8               	goto	u10297
  7250  15CC  0BA2               	decfsz	(??_READ_SWITCHES^(0+128)+2),f
  7251  15CD  2DC8               	goto	u10297
  7252  15CE                     l178:
  7253  15CE  1283               	bcf	3,5	;RP0=0, select bank0
  7254  15CF  1303               	bcf	3,6	;RP1=0, select bank0
  7255  15D0  1D06               	btfss	6,2	;volatile
  7256  15D1  2DD3               	goto	u4701
  7257  15D2  2DD4               	goto	u4700
  7258  15D3                     u4701:
  7259  15D3  2DCE               	goto	l178
  7260  15D4                     u4700:
  7261  15D4                     l3238:
  7262  15D4  3030               	movlw	48
  7263  15D5  2FFF               	goto	l172
  7264  15D6                     l177:
  7265                           
  7266                           ;./keypad.h: 18:  if (RB3 == 0) { _delay((unsigned long)((250)*(16000000/4000.0))); whil
      +                          e (RB3==0); return '*'; }
  7267  15D6  1986               	btfsc	6,3	;volatile
  7268  15D7  2DD9               	goto	u4711
  7269  15D8  2DDA               	goto	u4710
  7270  15D9                     u4711:
  7271  15D9  2DF0               	goto	l181
  7272  15DA                     u4710:
  7273  15DA                     l3242:
  7274  15DA  3006               	movlw	6
  7275  15DB  1683               	bsf	3,5	;RP0=1, select bank1
  7276  15DC  1303               	bcf	3,6	;RP1=0, select bank1
  7277  15DD  00A2               	movwf	(??_READ_SWITCHES^(0+128)+2)
  7278  15DE  3013               	movlw	19
  7279  15DF  00A1               	movwf	(??_READ_SWITCHES^(0+128)+1)
  7280  15E0  30AD               	movlw	173
  7281  15E1  00A0               	movwf	??_READ_SWITCHES^(0+128)
  7282  15E2                     u10307:
  7283  15E2  0BA0               	decfsz	??_READ_SWITCHES^(0+128),f
  7284  15E3  2DE2               	goto	u10307
  7285  15E4  0BA1               	decfsz	(??_READ_SWITCHES^(0+128)+1),f
  7286  15E5  2DE2               	goto	u10307
  7287  15E6  0BA2               	decfsz	(??_READ_SWITCHES^(0+128)+2),f
  7288  15E7  2DE2               	goto	u10307
  7289  15E8                     l182:
  7290  15E8  1283               	bcf	3,5	;RP0=0, select bank0
  7291  15E9  1303               	bcf	3,6	;RP1=0, select bank0
  7292  15EA  1D86               	btfss	6,3	;volatile
  7293  15EB  2DED               	goto	u4721
  7294  15EC  2DEE               	goto	u4720
  7295  15ED                     u4721:
  7296  15ED  2DE8               	goto	l182
  7297  15EE                     u4720:
  7298  15EE                     l3244:
  7299  15EE  302A               	movlw	42
  7300  15EF  2FFF               	goto	l172
  7301  15F0                     l181:
  7302                           
  7303                           ;./keypad.h: 19:  if (RD1 == 0) { _delay((unsigned long)((250)*(16000000/4000.0))); whil
      +                          e (RD1==0); return 'p'; }
  7304  15F0  1888               	btfsc	8,1	;volatile
  7305  15F1  2DF3               	goto	u4731
  7306  15F2  2DF4               	goto	u4730
  7307  15F3                     u4731:
  7308  15F3  2E0A               	goto	l185
  7309  15F4                     u4730:
  7310  15F4                     l3248:
  7311  15F4  3006               	movlw	6
  7312  15F5  1683               	bsf	3,5	;RP0=1, select bank1
  7313  15F6  1303               	bcf	3,6	;RP1=0, select bank1
  7314  15F7  00A2               	movwf	(??_READ_SWITCHES^(0+128)+2)
  7315  15F8  3013               	movlw	19
  7316  15F9  00A1               	movwf	(??_READ_SWITCHES^(0+128)+1)
  7317  15FA  30AD               	movlw	173
  7318  15FB  00A0               	movwf	??_READ_SWITCHES^(0+128)
  7319  15FC                     u10317:
  7320  15FC  0BA0               	decfsz	??_READ_SWITCHES^(0+128),f
  7321  15FD  2DFC               	goto	u10317
  7322  15FE  0BA1               	decfsz	(??_READ_SWITCHES^(0+128)+1),f
  7323  15FF  2DFC               	goto	u10317
  7324  1600  0BA2               	decfsz	(??_READ_SWITCHES^(0+128)+2),f
  7325  1601  2DFC               	goto	u10317
  7326  1602                     l186:
  7327  1602  1283               	bcf	3,5	;RP0=0, select bank0
  7328  1603  1303               	bcf	3,6	;RP1=0, select bank0
  7329  1604  1C88               	btfss	8,1	;volatile
  7330  1605  2E07               	goto	u4741
  7331  1606  2E08               	goto	u4740
  7332  1607                     u4741:
  7333  1607  2E02               	goto	l186
  7334  1608                     u4740:
  7335  1608                     l3250:
  7336  1608  3070               	movlw	112
  7337  1609  2FFF               	goto	l172
  7338  160A                     l185:
  7339                           
  7340                           ;./keypad.h: 20:  if (RD0 == 0) { _delay((unsigned long)((250)*(16000000/4000.0))); whil
      +                          e (RD0==0); return 'm'; }
  7341  160A  1808               	btfsc	8,0	;volatile
  7342  160B  2E0D               	goto	u4751
  7343  160C  2E0E               	goto	u4750
  7344  160D                     u4751:
  7345  160D  2E24               	goto	l189
  7346  160E                     u4750:
  7347  160E                     l3254:
  7348  160E  3006               	movlw	6
  7349  160F  1683               	bsf	3,5	;RP0=1, select bank1
  7350  1610  1303               	bcf	3,6	;RP1=0, select bank1
  7351  1611  00A2               	movwf	(??_READ_SWITCHES^(0+128)+2)
  7352  1612  3013               	movlw	19
  7353  1613  00A1               	movwf	(??_READ_SWITCHES^(0+128)+1)
  7354  1614  30AD               	movlw	173
  7355  1615  00A0               	movwf	??_READ_SWITCHES^(0+128)
  7356  1616                     u10327:
  7357  1616  0BA0               	decfsz	??_READ_SWITCHES^(0+128),f
  7358  1617  2E16               	goto	u10327
  7359  1618  0BA1               	decfsz	(??_READ_SWITCHES^(0+128)+1),f
  7360  1619  2E16               	goto	u10327
  7361  161A  0BA2               	decfsz	(??_READ_SWITCHES^(0+128)+2),f
  7362  161B  2E16               	goto	u10327
  7363  161C                     l190:
  7364  161C  1283               	bcf	3,5	;RP0=0, select bank0
  7365  161D  1303               	bcf	3,6	;RP1=0, select bank0
  7366  161E  1C08               	btfss	8,0	;volatile
  7367  161F  2E21               	goto	u4761
  7368  1620  2E22               	goto	u4760
  7369  1621                     u4761:
  7370  1621  2E1C               	goto	l190
  7371  1622                     u4760:
  7372  1622                     l3256:
  7373  1622  306D               	movlw	109
  7374  1623  2FFF               	goto	l172
  7375  1624                     l189:
  7376                           
  7377                           ;./keypad.h: 21:  RC4 = 1; RC5 = 0; RC6 = 1; RC7 = 1;
  7378  1624  1607               	bsf	7,4	;volatile
  7379  1625  1287               	bcf	7,5	;volatile
  7380  1626  1707               	bsf	7,6	;volatile
  7381  1627  1787               	bsf	7,7	;volatile
  7382                           
  7383                           ;./keypad.h: 23:  if (RB0 == 0) { _delay((unsigned long)((250)*(16000000/4000.0))); whil
      +                          e (RB0==0); return 'C'; }
  7384  1628  1806               	btfsc	6,0	;volatile
  7385  1629  2E2B               	goto	u4771
  7386  162A  2E2C               	goto	u4770
  7387  162B                     u4771:
  7388  162B  2E42               	goto	l193
  7389  162C                     u4770:
  7390  162C                     l3260:
  7391  162C  3006               	movlw	6
  7392  162D  1683               	bsf	3,5	;RP0=1, select bank1
  7393  162E  1303               	bcf	3,6	;RP1=0, select bank1
  7394  162F  00A2               	movwf	(??_READ_SWITCHES^(0+128)+2)
  7395  1630  3013               	movlw	19
  7396  1631  00A1               	movwf	(??_READ_SWITCHES^(0+128)+1)
  7397  1632  30AD               	movlw	173
  7398  1633  00A0               	movwf	??_READ_SWITCHES^(0+128)
  7399  1634                     u10337:
  7400  1634  0BA0               	decfsz	??_READ_SWITCHES^(0+128),f
  7401  1635  2E34               	goto	u10337
  7402  1636  0BA1               	decfsz	(??_READ_SWITCHES^(0+128)+1),f
  7403  1637  2E34               	goto	u10337
  7404  1638  0BA2               	decfsz	(??_READ_SWITCHES^(0+128)+2),f
  7405  1639  2E34               	goto	u10337
  7406  163A                     l194:
  7407  163A  1283               	bcf	3,5	;RP0=0, select bank0
  7408  163B  1303               	bcf	3,6	;RP1=0, select bank0
  7409  163C  1C06               	btfss	6,0	;volatile
  7410  163D  2E3F               	goto	u4781
  7411  163E  2E40               	goto	u4780
  7412  163F                     u4781:
  7413  163F  2E3A               	goto	l194
  7414  1640                     u4780:
  7415  1640                     l3262:
  7416  1640  3043               	movlw	67
  7417  1641  2FFF               	goto	l172
  7418  1642                     l193:
  7419                           
  7420                           ;./keypad.h: 24:  if (RB1 == 0) { _delay((unsigned long)((250)*(16000000/4000.0))); whil
      +                          e (RB1==0); return '9'; }
  7421  1642  1886               	btfsc	6,1	;volatile
  7422  1643  2E45               	goto	u4791
  7423  1644  2E46               	goto	u4790
  7424  1645                     u4791:
  7425  1645  2E5C               	goto	l197
  7426  1646                     u4790:
  7427  1646                     l3266:
  7428  1646  3006               	movlw	6
  7429  1647  1683               	bsf	3,5	;RP0=1, select bank1
  7430  1648  1303               	bcf	3,6	;RP1=0, select bank1
  7431  1649  00A2               	movwf	(??_READ_SWITCHES^(0+128)+2)
  7432  164A  3013               	movlw	19
  7433  164B  00A1               	movwf	(??_READ_SWITCHES^(0+128)+1)
  7434  164C  30AD               	movlw	173
  7435  164D  00A0               	movwf	??_READ_SWITCHES^(0+128)
  7436  164E                     u10347:
  7437  164E  0BA0               	decfsz	??_READ_SWITCHES^(0+128),f
  7438  164F  2E4E               	goto	u10347
  7439  1650  0BA1               	decfsz	(??_READ_SWITCHES^(0+128)+1),f
  7440  1651  2E4E               	goto	u10347
  7441  1652  0BA2               	decfsz	(??_READ_SWITCHES^(0+128)+2),f
  7442  1653  2E4E               	goto	u10347
  7443  1654                     l198:
  7444  1654  1283               	bcf	3,5	;RP0=0, select bank0
  7445  1655  1303               	bcf	3,6	;RP1=0, select bank0
  7446  1656  1C86               	btfss	6,1	;volatile
  7447  1657  2E59               	goto	u4801
  7448  1658  2E5A               	goto	u4800
  7449  1659                     u4801:
  7450  1659  2E54               	goto	l198
  7451  165A                     u4800:
  7452  165A                     l3268:
  7453  165A  3039               	movlw	57
  7454  165B  2FFF               	goto	l172
  7455  165C                     l197:
  7456                           
  7457                           ;./keypad.h: 25:  if (RB2 == 0) { _delay((unsigned long)((250)*(16000000/4000.0))); whil
      +                          e (RB2==0); return '8'; }
  7458  165C  1906               	btfsc	6,2	;volatile
  7459  165D  2E5F               	goto	u4811
  7460  165E  2E60               	goto	u4810
  7461  165F                     u4811:
  7462  165F  2E76               	goto	l201
  7463  1660                     u4810:
  7464  1660                     l3272:
  7465  1660  3006               	movlw	6
  7466  1661  1683               	bsf	3,5	;RP0=1, select bank1
  7467  1662  1303               	bcf	3,6	;RP1=0, select bank1
  7468  1663  00A2               	movwf	(??_READ_SWITCHES^(0+128)+2)
  7469  1664  3013               	movlw	19
  7470  1665  00A1               	movwf	(??_READ_SWITCHES^(0+128)+1)
  7471  1666  30AD               	movlw	173
  7472  1667  00A0               	movwf	??_READ_SWITCHES^(0+128)
  7473  1668                     u10357:
  7474  1668  0BA0               	decfsz	??_READ_SWITCHES^(0+128),f
  7475  1669  2E68               	goto	u10357
  7476  166A  0BA1               	decfsz	(??_READ_SWITCHES^(0+128)+1),f
  7477  166B  2E68               	goto	u10357
  7478  166C  0BA2               	decfsz	(??_READ_SWITCHES^(0+128)+2),f
  7479  166D  2E68               	goto	u10357
  7480  166E                     l202:
  7481  166E  1283               	bcf	3,5	;RP0=0, select bank0
  7482  166F  1303               	bcf	3,6	;RP1=0, select bank0
  7483  1670  1D06               	btfss	6,2	;volatile
  7484  1671  2E73               	goto	u4821
  7485  1672  2E74               	goto	u4820
  7486  1673                     u4821:
  7487  1673  2E6E               	goto	l202
  7488  1674                     u4820:
  7489  1674                     l3274:
  7490  1674  3038               	movlw	56
  7491  1675  2FFF               	goto	l172
  7492  1676                     l201:
  7493                           
  7494                           ;./keypad.h: 26:  if (RB3 == 0) { _delay((unsigned long)((250)*(16000000/4000.0))); whil
      +                          e (RB3==0); return '7'; }
  7495  1676  1986               	btfsc	6,3	;volatile
  7496  1677  2E79               	goto	u4831
  7497  1678  2E7A               	goto	u4830
  7498  1679                     u4831:
  7499  1679  2E90               	goto	l205
  7500  167A                     u4830:
  7501  167A                     l3278:
  7502  167A  3006               	movlw	6
  7503  167B  1683               	bsf	3,5	;RP0=1, select bank1
  7504  167C  1303               	bcf	3,6	;RP1=0, select bank1
  7505  167D  00A2               	movwf	(??_READ_SWITCHES^(0+128)+2)
  7506  167E  3013               	movlw	19
  7507  167F  00A1               	movwf	(??_READ_SWITCHES^(0+128)+1)
  7508  1680  30AD               	movlw	173
  7509  1681  00A0               	movwf	??_READ_SWITCHES^(0+128)
  7510  1682                     u10367:
  7511  1682  0BA0               	decfsz	??_READ_SWITCHES^(0+128),f
  7512  1683  2E82               	goto	u10367
  7513  1684  0BA1               	decfsz	(??_READ_SWITCHES^(0+128)+1),f
  7514  1685  2E82               	goto	u10367
  7515  1686  0BA2               	decfsz	(??_READ_SWITCHES^(0+128)+2),f
  7516  1687  2E82               	goto	u10367
  7517  1688                     l206:
  7518  1688  1283               	bcf	3,5	;RP0=0, select bank0
  7519  1689  1303               	bcf	3,6	;RP1=0, select bank0
  7520  168A  1D86               	btfss	6,3	;volatile
  7521  168B  2E8D               	goto	u4841
  7522  168C  2E8E               	goto	u4840
  7523  168D                     u4841:
  7524  168D  2E88               	goto	l206
  7525  168E                     u4840:
  7526  168E                     l3280:
  7527  168E  3037               	movlw	55
  7528  168F  2FFF               	goto	l172
  7529  1690                     l205:
  7530                           
  7531                           ;./keypad.h: 27:  if (RD1 == 0) { _delay((unsigned long)((250)*(16000000/4000.0))); whil
      +                          e (RD1==0); return 'p'; }
  7532  1690  1888               	btfsc	8,1	;volatile
  7533  1691  2E93               	goto	u4851
  7534  1692  2E94               	goto	u4850
  7535  1693                     u4851:
  7536  1693  2EA9               	goto	l209
  7537  1694                     u4850:
  7538  1694                     l3284:
  7539  1694  3006               	movlw	6
  7540  1695  1683               	bsf	3,5	;RP0=1, select bank1
  7541  1696  1303               	bcf	3,6	;RP1=0, select bank1
  7542  1697  00A2               	movwf	(??_READ_SWITCHES^(0+128)+2)
  7543  1698  3013               	movlw	19
  7544  1699  00A1               	movwf	(??_READ_SWITCHES^(0+128)+1)
  7545  169A  30AD               	movlw	173
  7546  169B  00A0               	movwf	??_READ_SWITCHES^(0+128)
  7547  169C                     u10377:
  7548  169C  0BA0               	decfsz	??_READ_SWITCHES^(0+128),f
  7549  169D  2E9C               	goto	u10377
  7550  169E  0BA1               	decfsz	(??_READ_SWITCHES^(0+128)+1),f
  7551  169F  2E9C               	goto	u10377
  7552  16A0  0BA2               	decfsz	(??_READ_SWITCHES^(0+128)+2),f
  7553  16A1  2E9C               	goto	u10377
  7554  16A2                     l210:
  7555  16A2  1283               	bcf	3,5	;RP0=0, select bank0
  7556  16A3  1303               	bcf	3,6	;RP1=0, select bank0
  7557  16A4  1C88               	btfss	8,1	;volatile
  7558  16A5  2EA7               	goto	u4861
  7559  16A6  2EA8               	goto	u4860
  7560  16A7                     u4861:
  7561  16A7  2EA2               	goto	l210
  7562  16A8                     u4860:
  7563  16A8  2E08               	goto	l3250
  7564  16A9                     l209:
  7565                           
  7566                           ;./keypad.h: 28:  if (RD0 == 0) { _delay((unsigned long)((250)*(16000000/4000.0))); whil
      +                          e (RD0==0); return 'm'; }
  7567  16A9  1808               	btfsc	8,0	;volatile
  7568  16AA  2EAC               	goto	u4871
  7569  16AB  2EAD               	goto	u4870
  7570  16AC                     u4871:
  7571  16AC  2EC2               	goto	l213
  7572  16AD                     u4870:
  7573  16AD                     l3290:
  7574  16AD  3006               	movlw	6
  7575  16AE  1683               	bsf	3,5	;RP0=1, select bank1
  7576  16AF  1303               	bcf	3,6	;RP1=0, select bank1
  7577  16B0  00A2               	movwf	(??_READ_SWITCHES^(0+128)+2)
  7578  16B1  3013               	movlw	19
  7579  16B2  00A1               	movwf	(??_READ_SWITCHES^(0+128)+1)
  7580  16B3  30AD               	movlw	173
  7581  16B4  00A0               	movwf	??_READ_SWITCHES^(0+128)
  7582  16B5                     u10387:
  7583  16B5  0BA0               	decfsz	??_READ_SWITCHES^(0+128),f
  7584  16B6  2EB5               	goto	u10387
  7585  16B7  0BA1               	decfsz	(??_READ_SWITCHES^(0+128)+1),f
  7586  16B8  2EB5               	goto	u10387
  7587  16B9  0BA2               	decfsz	(??_READ_SWITCHES^(0+128)+2),f
  7588  16BA  2EB5               	goto	u10387
  7589  16BB                     l214:
  7590  16BB  1283               	bcf	3,5	;RP0=0, select bank0
  7591  16BC  1303               	bcf	3,6	;RP1=0, select bank0
  7592  16BD  1C08               	btfss	8,0	;volatile
  7593  16BE  2EC0               	goto	u4881
  7594  16BF  2EC1               	goto	u4880
  7595  16C0                     u4881:
  7596  16C0  2EBB               	goto	l214
  7597  16C1                     u4880:
  7598  16C1  2E22               	goto	l3256
  7599  16C2                     l213:
  7600                           
  7601                           ;./keypad.h: 29:  RC4 = 1; RC5 = 1; RC6 = 0; RC7 = 1;
  7602  16C2  1607               	bsf	7,4	;volatile
  7603  16C3  1687               	bsf	7,5	;volatile
  7604  16C4  1307               	bcf	7,6	;volatile
  7605  16C5  1787               	bsf	7,7	;volatile
  7606                           
  7607                           ;./keypad.h: 31:  if (RB0 == 0) { _delay((unsigned long)((250)*(16000000/4000.0))); whil
      +                          e (RB0==0); return 'B'; }
  7608  16C6  1806               	btfsc	6,0	;volatile
  7609  16C7  2EC9               	goto	u4891
  7610  16C8  2ECA               	goto	u4890
  7611  16C9                     u4891:
  7612  16C9  2EE0               	goto	l217
  7613  16CA                     u4890:
  7614  16CA                     l3296:
  7615  16CA  3006               	movlw	6
  7616  16CB  1683               	bsf	3,5	;RP0=1, select bank1
  7617  16CC  1303               	bcf	3,6	;RP1=0, select bank1
  7618  16CD  00A2               	movwf	(??_READ_SWITCHES^(0+128)+2)
  7619  16CE  3013               	movlw	19
  7620  16CF  00A1               	movwf	(??_READ_SWITCHES^(0+128)+1)
  7621  16D0  30AD               	movlw	173
  7622  16D1  00A0               	movwf	??_READ_SWITCHES^(0+128)
  7623  16D2                     u10397:
  7624  16D2  0BA0               	decfsz	??_READ_SWITCHES^(0+128),f
  7625  16D3  2ED2               	goto	u10397
  7626  16D4  0BA1               	decfsz	(??_READ_SWITCHES^(0+128)+1),f
  7627  16D5  2ED2               	goto	u10397
  7628  16D6  0BA2               	decfsz	(??_READ_SWITCHES^(0+128)+2),f
  7629  16D7  2ED2               	goto	u10397
  7630  16D8                     l218:
  7631  16D8  1283               	bcf	3,5	;RP0=0, select bank0
  7632  16D9  1303               	bcf	3,6	;RP1=0, select bank0
  7633  16DA  1C06               	btfss	6,0	;volatile
  7634  16DB  2EDD               	goto	u4901
  7635  16DC  2EDE               	goto	u4900
  7636  16DD                     u4901:
  7637  16DD  2ED8               	goto	l218
  7638  16DE                     u4900:
  7639  16DE                     l3298:
  7640  16DE  3042               	movlw	66
  7641  16DF  2FFF               	goto	l172
  7642  16E0                     l217:
  7643                           
  7644                           ;./keypad.h: 32:  if (RB1 == 0) { _delay((unsigned long)((250)*(16000000/4000.0))); whil
      +                          e (RB1==0); return '6'; }
  7645  16E0  1886               	btfsc	6,1	;volatile
  7646  16E1  2EE3               	goto	u4911
  7647  16E2  2EE4               	goto	u4910
  7648  16E3                     u4911:
  7649  16E3  2EFA               	goto	l221
  7650  16E4                     u4910:
  7651  16E4                     l3302:
  7652  16E4  3006               	movlw	6
  7653  16E5  1683               	bsf	3,5	;RP0=1, select bank1
  7654  16E6  1303               	bcf	3,6	;RP1=0, select bank1
  7655  16E7  00A2               	movwf	(??_READ_SWITCHES^(0+128)+2)
  7656  16E8  3013               	movlw	19
  7657  16E9  00A1               	movwf	(??_READ_SWITCHES^(0+128)+1)
  7658  16EA  30AD               	movlw	173
  7659  16EB  00A0               	movwf	??_READ_SWITCHES^(0+128)
  7660  16EC                     u10407:
  7661  16EC  0BA0               	decfsz	??_READ_SWITCHES^(0+128),f
  7662  16ED  2EEC               	goto	u10407
  7663  16EE  0BA1               	decfsz	(??_READ_SWITCHES^(0+128)+1),f
  7664  16EF  2EEC               	goto	u10407
  7665  16F0  0BA2               	decfsz	(??_READ_SWITCHES^(0+128)+2),f
  7666  16F1  2EEC               	goto	u10407
  7667  16F2                     l222:
  7668  16F2  1283               	bcf	3,5	;RP0=0, select bank0
  7669  16F3  1303               	bcf	3,6	;RP1=0, select bank0
  7670  16F4  1C86               	btfss	6,1	;volatile
  7671  16F5  2EF7               	goto	u4921
  7672  16F6  2EF8               	goto	u4920
  7673  16F7                     u4921:
  7674  16F7  2EF2               	goto	l222
  7675  16F8                     u4920:
  7676  16F8                     l3304:
  7677  16F8  3036               	movlw	54
  7678  16F9  2FFF               	goto	l172
  7679  16FA                     l221:
  7680                           
  7681                           ;./keypad.h: 33:  if (RB2 == 0) { _delay((unsigned long)((250)*(16000000/4000.0))); whil
      +                          e (RB2==0); return '5'; }
  7682  16FA  1906               	btfsc	6,2	;volatile
  7683  16FB  2EFD               	goto	u4931
  7684  16FC  2EFE               	goto	u4930
  7685  16FD                     u4931:
  7686  16FD  2F14               	goto	l225
  7687  16FE                     u4930:
  7688  16FE                     l3308:
  7689  16FE  3006               	movlw	6
  7690  16FF  1683               	bsf	3,5	;RP0=1, select bank1
  7691  1700  1303               	bcf	3,6	;RP1=0, select bank1
  7692  1701  00A2               	movwf	(??_READ_SWITCHES^(0+128)+2)
  7693  1702  3013               	movlw	19
  7694  1703  00A1               	movwf	(??_READ_SWITCHES^(0+128)+1)
  7695  1704  30AD               	movlw	173
  7696  1705  00A0               	movwf	??_READ_SWITCHES^(0+128)
  7697  1706                     u10417:
  7698  1706  0BA0               	decfsz	??_READ_SWITCHES^(0+128),f
  7699  1707  2F06               	goto	u10417
  7700  1708  0BA1               	decfsz	(??_READ_SWITCHES^(0+128)+1),f
  7701  1709  2F06               	goto	u10417
  7702  170A  0BA2               	decfsz	(??_READ_SWITCHES^(0+128)+2),f
  7703  170B  2F06               	goto	u10417
  7704  170C                     l226:
  7705  170C  1283               	bcf	3,5	;RP0=0, select bank0
  7706  170D  1303               	bcf	3,6	;RP1=0, select bank0
  7707  170E  1D06               	btfss	6,2	;volatile
  7708  170F  2F11               	goto	u4941
  7709  1710  2F12               	goto	u4940
  7710  1711                     u4941:
  7711  1711  2F0C               	goto	l226
  7712  1712                     u4940:
  7713  1712                     l3310:
  7714  1712  3035               	movlw	53
  7715  1713  2FFF               	goto	l172
  7716  1714                     l225:
  7717                           
  7718                           ;./keypad.h: 34:  if (RB3 == 0) { _delay((unsigned long)((250)*(16000000/4000.0))); whil
      +                          e (RB3==0); return '4'; }
  7719  1714  1986               	btfsc	6,3	;volatile
  7720  1715  2F17               	goto	u4951
  7721  1716  2F18               	goto	u4950
  7722  1717                     u4951:
  7723  1717  2F2E               	goto	l229
  7724  1718                     u4950:
  7725  1718                     l3314:
  7726  1718  3006               	movlw	6
  7727  1719  1683               	bsf	3,5	;RP0=1, select bank1
  7728  171A  1303               	bcf	3,6	;RP1=0, select bank1
  7729  171B  00A2               	movwf	(??_READ_SWITCHES^(0+128)+2)
  7730  171C  3013               	movlw	19
  7731  171D  00A1               	movwf	(??_READ_SWITCHES^(0+128)+1)
  7732  171E  30AD               	movlw	173
  7733  171F  00A0               	movwf	??_READ_SWITCHES^(0+128)
  7734  1720                     u10427:
  7735  1720  0BA0               	decfsz	??_READ_SWITCHES^(0+128),f
  7736  1721  2F20               	goto	u10427
  7737  1722  0BA1               	decfsz	(??_READ_SWITCHES^(0+128)+1),f
  7738  1723  2F20               	goto	u10427
  7739  1724  0BA2               	decfsz	(??_READ_SWITCHES^(0+128)+2),f
  7740  1725  2F20               	goto	u10427
  7741  1726                     l230:
  7742  1726  1283               	bcf	3,5	;RP0=0, select bank0
  7743  1727  1303               	bcf	3,6	;RP1=0, select bank0
  7744  1728  1D86               	btfss	6,3	;volatile
  7745  1729  2F2B               	goto	u4961
  7746  172A  2F2C               	goto	u4960
  7747  172B                     u4961:
  7748  172B  2F26               	goto	l230
  7749  172C                     u4960:
  7750  172C                     l3316:
  7751  172C  3034               	movlw	52
  7752  172D  2FFF               	goto	l172
  7753  172E                     l229:
  7754                           
  7755                           ;./keypad.h: 35:  if (RD1 == 0) { _delay((unsigned long)((250)*(16000000/4000.0))); whil
      +                          e (RD1==0); return 'p'; }
  7756  172E  1888               	btfsc	8,1	;volatile
  7757  172F  2F31               	goto	u4971
  7758  1730  2F32               	goto	u4970
  7759  1731                     u4971:
  7760  1731  2F47               	goto	l233
  7761  1732                     u4970:
  7762  1732                     l3320:
  7763  1732  3006               	movlw	6
  7764  1733  1683               	bsf	3,5	;RP0=1, select bank1
  7765  1734  1303               	bcf	3,6	;RP1=0, select bank1
  7766  1735  00A2               	movwf	(??_READ_SWITCHES^(0+128)+2)
  7767  1736  3013               	movlw	19
  7768  1737  00A1               	movwf	(??_READ_SWITCHES^(0+128)+1)
  7769  1738  30AD               	movlw	173
  7770  1739  00A0               	movwf	??_READ_SWITCHES^(0+128)
  7771  173A                     u10437:
  7772  173A  0BA0               	decfsz	??_READ_SWITCHES^(0+128),f
  7773  173B  2F3A               	goto	u10437
  7774  173C  0BA1               	decfsz	(??_READ_SWITCHES^(0+128)+1),f
  7775  173D  2F3A               	goto	u10437
  7776  173E  0BA2               	decfsz	(??_READ_SWITCHES^(0+128)+2),f
  7777  173F  2F3A               	goto	u10437
  7778  1740                     l234:
  7779  1740  1283               	bcf	3,5	;RP0=0, select bank0
  7780  1741  1303               	bcf	3,6	;RP1=0, select bank0
  7781  1742  1C88               	btfss	8,1	;volatile
  7782  1743  2F45               	goto	u4981
  7783  1744  2F46               	goto	u4980
  7784  1745                     u4981:
  7785  1745  2F40               	goto	l234
  7786  1746                     u4980:
  7787  1746  2E08               	goto	l3250
  7788  1747                     l233:
  7789                           
  7790                           ;./keypad.h: 36:  if (RD0 == 0) { _delay((unsigned long)((250)*(16000000/4000.0))); whil
      +                          e (RD0==0); return 'm'; }
  7791  1747  1808               	btfsc	8,0	;volatile
  7792  1748  2F4A               	goto	u4991
  7793  1749  2F4B               	goto	u4990
  7794  174A                     u4991:
  7795  174A  2F60               	goto	l237
  7796  174B                     u4990:
  7797  174B                     l3326:
  7798  174B  3006               	movlw	6
  7799  174C  1683               	bsf	3,5	;RP0=1, select bank1
  7800  174D  1303               	bcf	3,6	;RP1=0, select bank1
  7801  174E  00A2               	movwf	(??_READ_SWITCHES^(0+128)+2)
  7802  174F  3013               	movlw	19
  7803  1750  00A1               	movwf	(??_READ_SWITCHES^(0+128)+1)
  7804  1751  30AD               	movlw	173
  7805  1752  00A0               	movwf	??_READ_SWITCHES^(0+128)
  7806  1753                     u10447:
  7807  1753  0BA0               	decfsz	??_READ_SWITCHES^(0+128),f
  7808  1754  2F53               	goto	u10447
  7809  1755  0BA1               	decfsz	(??_READ_SWITCHES^(0+128)+1),f
  7810  1756  2F53               	goto	u10447
  7811  1757  0BA2               	decfsz	(??_READ_SWITCHES^(0+128)+2),f
  7812  1758  2F53               	goto	u10447
  7813  1759                     l238:
  7814  1759  1283               	bcf	3,5	;RP0=0, select bank0
  7815  175A  1303               	bcf	3,6	;RP1=0, select bank0
  7816  175B  1C08               	btfss	8,0	;volatile
  7817  175C  2F5E               	goto	u5001
  7818  175D  2F5F               	goto	u5000
  7819  175E                     u5001:
  7820  175E  2F59               	goto	l238
  7821  175F                     u5000:
  7822  175F  2E22               	goto	l3256
  7823  1760                     l237:
  7824                           
  7825                           ;./keypad.h: 37:  RC4 = 1; RC5 = 1; RC6 = 1; RC7 = 0;
  7826  1760  1607               	bsf	7,4	;volatile
  7827  1761  1687               	bsf	7,5	;volatile
  7828  1762  1707               	bsf	7,6	;volatile
  7829  1763  1387               	bcf	7,7	;volatile
  7830                           
  7831                           ;./keypad.h: 39:  if (RB0 == 0) { _delay((unsigned long)((250)*(16000000/4000.0))); whil
      +                          e (RB0==0); return 'A'; }
  7832  1764  1806               	btfsc	6,0	;volatile
  7833  1765  2F67               	goto	u5011
  7834  1766  2F68               	goto	u5010
  7835  1767                     u5011:
  7836  1767  2F7E               	goto	l241
  7837  1768                     u5010:
  7838  1768                     l3332:
  7839  1768  3006               	movlw	6
  7840  1769  1683               	bsf	3,5	;RP0=1, select bank1
  7841  176A  1303               	bcf	3,6	;RP1=0, select bank1
  7842  176B  00A2               	movwf	(??_READ_SWITCHES^(0+128)+2)
  7843  176C  3013               	movlw	19
  7844  176D  00A1               	movwf	(??_READ_SWITCHES^(0+128)+1)
  7845  176E  30AD               	movlw	173
  7846  176F  00A0               	movwf	??_READ_SWITCHES^(0+128)
  7847  1770                     u10457:
  7848  1770  0BA0               	decfsz	??_READ_SWITCHES^(0+128),f
  7849  1771  2F70               	goto	u10457
  7850  1772  0BA1               	decfsz	(??_READ_SWITCHES^(0+128)+1),f
  7851  1773  2F70               	goto	u10457
  7852  1774  0BA2               	decfsz	(??_READ_SWITCHES^(0+128)+2),f
  7853  1775  2F70               	goto	u10457
  7854  1776                     l242:
  7855  1776  1283               	bcf	3,5	;RP0=0, select bank0
  7856  1777  1303               	bcf	3,6	;RP1=0, select bank0
  7857  1778  1C06               	btfss	6,0	;volatile
  7858  1779  2F7B               	goto	u5021
  7859  177A  2F7C               	goto	u5020
  7860  177B                     u5021:
  7861  177B  2F76               	goto	l242
  7862  177C                     u5020:
  7863  177C                     l3334:
  7864  177C  3041               	movlw	65
  7865  177D  2FFF               	goto	l172
  7866  177E                     l241:
  7867                           
  7868                           ;./keypad.h: 40:  if (RB1 == 0) { _delay((unsigned long)((250)*(16000000/4000.0))); whil
      +                          e (RB1==0); return '3'; }
  7869  177E  1886               	btfsc	6,1	;volatile
  7870  177F  2F81               	goto	u5031
  7871  1780  2F82               	goto	u5030
  7872  1781                     u5031:
  7873  1781  2F98               	goto	l245
  7874  1782                     u5030:
  7875  1782                     l3338:
  7876  1782  3006               	movlw	6
  7877  1783  1683               	bsf	3,5	;RP0=1, select bank1
  7878  1784  1303               	bcf	3,6	;RP1=0, select bank1
  7879  1785  00A2               	movwf	(??_READ_SWITCHES^(0+128)+2)
  7880  1786  3013               	movlw	19
  7881  1787  00A1               	movwf	(??_READ_SWITCHES^(0+128)+1)
  7882  1788  30AD               	movlw	173
  7883  1789  00A0               	movwf	??_READ_SWITCHES^(0+128)
  7884  178A                     u10467:
  7885  178A  0BA0               	decfsz	??_READ_SWITCHES^(0+128),f
  7886  178B  2F8A               	goto	u10467
  7887  178C  0BA1               	decfsz	(??_READ_SWITCHES^(0+128)+1),f
  7888  178D  2F8A               	goto	u10467
  7889  178E  0BA2               	decfsz	(??_READ_SWITCHES^(0+128)+2),f
  7890  178F  2F8A               	goto	u10467
  7891  1790                     l246:
  7892  1790  1283               	bcf	3,5	;RP0=0, select bank0
  7893  1791  1303               	bcf	3,6	;RP1=0, select bank0
  7894  1792  1C86               	btfss	6,1	;volatile
  7895  1793  2F95               	goto	u5041
  7896  1794  2F96               	goto	u5040
  7897  1795                     u5041:
  7898  1795  2F90               	goto	l246
  7899  1796                     u5040:
  7900  1796                     l3340:
  7901  1796  3033               	movlw	51
  7902  1797  2FFF               	goto	l172
  7903  1798                     l245:
  7904                           
  7905                           ;./keypad.h: 41:  if (RB2 == 0) { _delay((unsigned long)((250)*(16000000/4000.0))); whil
      +                          e (RB2==0); return '2'; }
  7906  1798  1906               	btfsc	6,2	;volatile
  7907  1799  2F9B               	goto	u5051
  7908  179A  2F9C               	goto	u5050
  7909  179B                     u5051:
  7910  179B  2FB2               	goto	l249
  7911  179C                     u5050:
  7912  179C                     l3344:
  7913  179C  3006               	movlw	6
  7914  179D  1683               	bsf	3,5	;RP0=1, select bank1
  7915  179E  1303               	bcf	3,6	;RP1=0, select bank1
  7916  179F  00A2               	movwf	(??_READ_SWITCHES^(0+128)+2)
  7917  17A0  3013               	movlw	19
  7918  17A1  00A1               	movwf	(??_READ_SWITCHES^(0+128)+1)
  7919  17A2  30AD               	movlw	173
  7920  17A3  00A0               	movwf	??_READ_SWITCHES^(0+128)
  7921  17A4                     u10477:
  7922  17A4  0BA0               	decfsz	??_READ_SWITCHES^(0+128),f
  7923  17A5  2FA4               	goto	u10477
  7924  17A6  0BA1               	decfsz	(??_READ_SWITCHES^(0+128)+1),f
  7925  17A7  2FA4               	goto	u10477
  7926  17A8  0BA2               	decfsz	(??_READ_SWITCHES^(0+128)+2),f
  7927  17A9  2FA4               	goto	u10477
  7928  17AA                     l250:
  7929  17AA  1283               	bcf	3,5	;RP0=0, select bank0
  7930  17AB  1303               	bcf	3,6	;RP1=0, select bank0
  7931  17AC  1D06               	btfss	6,2	;volatile
  7932  17AD  2FAF               	goto	u5061
  7933  17AE  2FB0               	goto	u5060
  7934  17AF                     u5061:
  7935  17AF  2FAA               	goto	l250
  7936  17B0                     u5060:
  7937  17B0                     l3346:
  7938  17B0  3032               	movlw	50
  7939  17B1  2FFF               	goto	l172
  7940  17B2                     l249:
  7941                           
  7942                           ;./keypad.h: 42:  if (RB3 == 0) { _delay((unsigned long)((250)*(16000000/4000.0))); whil
      +                          e (RB3==0); return '1'; }
  7943  17B2  1986               	btfsc	6,3	;volatile
  7944  17B3  2FB5               	goto	u5071
  7945  17B4  2FB6               	goto	u5070
  7946  17B5                     u5071:
  7947  17B5  2FCC               	goto	l253
  7948  17B6                     u5070:
  7949  17B6                     l3350:
  7950  17B6  3006               	movlw	6
  7951  17B7  1683               	bsf	3,5	;RP0=1, select bank1
  7952  17B8  1303               	bcf	3,6	;RP1=0, select bank1
  7953  17B9  00A2               	movwf	(??_READ_SWITCHES^(0+128)+2)
  7954  17BA  3013               	movlw	19
  7955  17BB  00A1               	movwf	(??_READ_SWITCHES^(0+128)+1)
  7956  17BC  30AD               	movlw	173
  7957  17BD  00A0               	movwf	??_READ_SWITCHES^(0+128)
  7958  17BE                     u10487:
  7959  17BE  0BA0               	decfsz	??_READ_SWITCHES^(0+128),f
  7960  17BF  2FBE               	goto	u10487
  7961  17C0  0BA1               	decfsz	(??_READ_SWITCHES^(0+128)+1),f
  7962  17C1  2FBE               	goto	u10487
  7963  17C2  0BA2               	decfsz	(??_READ_SWITCHES^(0+128)+2),f
  7964  17C3  2FBE               	goto	u10487
  7965  17C4                     l254:
  7966  17C4  1283               	bcf	3,5	;RP0=0, select bank0
  7967  17C5  1303               	bcf	3,6	;RP1=0, select bank0
  7968  17C6  1D86               	btfss	6,3	;volatile
  7969  17C7  2FC9               	goto	u5081
  7970  17C8  2FCA               	goto	u5080
  7971  17C9                     u5081:
  7972  17C9  2FC4               	goto	l254
  7973  17CA                     u5080:
  7974  17CA                     l3352:
  7975  17CA  3031               	movlw	49
  7976  17CB  2FFF               	goto	l172
  7977  17CC                     l253:
  7978                           
  7979                           ;./keypad.h: 43:  if (RD1 == 0) { _delay((unsigned long)((250)*(16000000/4000.0))); whil
      +                          e (RD1==0); return 'p'; }
  7980  17CC  1888               	btfsc	8,1	;volatile
  7981  17CD  2FCF               	goto	u5091
  7982  17CE  2FD0               	goto	u5090
  7983  17CF                     u5091:
  7984  17CF  2FE5               	goto	l257
  7985  17D0                     u5090:
  7986  17D0                     l3356:
  7987  17D0  3006               	movlw	6
  7988  17D1  1683               	bsf	3,5	;RP0=1, select bank1
  7989  17D2  1303               	bcf	3,6	;RP1=0, select bank1
  7990  17D3  00A2               	movwf	(??_READ_SWITCHES^(0+128)+2)
  7991  17D4  3013               	movlw	19
  7992  17D5  00A1               	movwf	(??_READ_SWITCHES^(0+128)+1)
  7993  17D6  30AD               	movlw	173
  7994  17D7  00A0               	movwf	??_READ_SWITCHES^(0+128)
  7995  17D8                     u10497:
  7996  17D8  0BA0               	decfsz	??_READ_SWITCHES^(0+128),f
  7997  17D9  2FD8               	goto	u10497
  7998  17DA  0BA1               	decfsz	(??_READ_SWITCHES^(0+128)+1),f
  7999  17DB  2FD8               	goto	u10497
  8000  17DC  0BA2               	decfsz	(??_READ_SWITCHES^(0+128)+2),f
  8001  17DD  2FD8               	goto	u10497
  8002  17DE                     l258:
  8003  17DE  1283               	bcf	3,5	;RP0=0, select bank0
  8004  17DF  1303               	bcf	3,6	;RP1=0, select bank0
  8005  17E0  1C88               	btfss	8,1	;volatile
  8006  17E1  2FE3               	goto	u5101
  8007  17E2  2FE4               	goto	u5100
  8008  17E3                     u5101:
  8009  17E3  2FDE               	goto	l258
  8010  17E4                     u5100:
  8011  17E4  2E08               	goto	l3250
  8012  17E5                     l257:
  8013                           
  8014                           ;./keypad.h: 44:  if (RD0 == 0) { _delay((unsigned long)((250)*(16000000/4000.0))); whil
      +                          e (RD0==0); return 'm'; }
  8015  17E5  1808               	btfsc	8,0	;volatile
  8016  17E6  2FE8               	goto	u5111
  8017  17E7  2FE9               	goto	u5110
  8018  17E8                     u5111:
  8019  17E8  2FFE               	goto	l3368
  8020  17E9                     u5110:
  8021  17E9                     l3362:
  8022  17E9  3006               	movlw	6
  8023  17EA  1683               	bsf	3,5	;RP0=1, select bank1
  8024  17EB  1303               	bcf	3,6	;RP1=0, select bank1
  8025  17EC  00A2               	movwf	(??_READ_SWITCHES^(0+128)+2)
  8026  17ED  3013               	movlw	19
  8027  17EE  00A1               	movwf	(??_READ_SWITCHES^(0+128)+1)
  8028  17EF  30AD               	movlw	173
  8029  17F0  00A0               	movwf	??_READ_SWITCHES^(0+128)
  8030  17F1                     u10507:
  8031  17F1  0BA0               	decfsz	??_READ_SWITCHES^(0+128),f
  8032  17F2  2FF1               	goto	u10507
  8033  17F3  0BA1               	decfsz	(??_READ_SWITCHES^(0+128)+1),f
  8034  17F4  2FF1               	goto	u10507
  8035  17F5  0BA2               	decfsz	(??_READ_SWITCHES^(0+128)+2),f
  8036  17F6  2FF1               	goto	u10507
  8037  17F7                     l262:
  8038  17F7  1283               	bcf	3,5	;RP0=0, select bank0
  8039  17F8  1303               	bcf	3,6	;RP1=0, select bank0
  8040  17F9  1C08               	btfss	8,0	;volatile
  8041  17FA  2FFC               	goto	u5121
  8042  17FB  2FFD               	goto	u5120
  8043  17FC                     u5121:
  8044  17FC  2FF7               	goto	l262
  8045  17FD                     u5120:
  8046  17FD  2E22               	goto	l3256
  8047  17FE                     l3368:
  8048                           
  8049                           ;./keypad.h: 45:  return 'n';
  8050  17FE  306E               	movlw	110
  8051  17FF                     l172:
  8052  17FF  0008               	return
  8053  1800                     __end_of_READ_SWITCHES:
  8054                           
  8055                           	psect	text18
  8056  1CA4                     __ptext18:	
  8057 ;; *************** function _EEPROM_Write *****************
  8058 ;; Defined at:
  8059 ;;		line 8 in file "./eeprom.h"
  8060 ;; Parameters:    Size  Location     Type
  8061 ;;  Address         1    wreg     unsigned char 
  8062 ;;  Data            1    0[BANK1 ] unsigned char 
  8063 ;; Auto vars:     Size  Location     Type
  8064 ;;  Address         1    1[BANK1 ] unsigned char 
  8065 ;; Return value:  Size  Location     Type
  8066 ;;                  1    wreg      void 
  8067 ;; Registers used:
  8068 ;;		wreg
  8069 ;; Tracked objects:
  8070 ;;		On entry : 0/0
  8071 ;;		On exit  : 0/0
  8072 ;;		Unchanged: 0/0
  8073 ;; Data sizes:     COMMON   BANK0   BANK1   BANK3   BANK2
  8074 ;;      Params:         0       0       1       0       0
  8075 ;;      Locals:         0       0       1       0       0
  8076 ;;      Temps:          0       0       0       0       0
  8077 ;;      Totals:         0       0       2       0       0
  8078 ;;Total ram usage:        2 bytes
  8079 ;; Hardware stack levels used:    1
  8080 ;; Hardware stack levels required when called:    5
  8081 ;; This function calls:
  8082 ;;		Nothing
  8083 ;; This function is called by:
  8084 ;;		_main
  8085 ;; This function uses a non-reentrant model
  8086 ;;
  8087                           
  8088                           
  8089                           ;psect for function _EEPROM_Write
  8090  1CA4                     _EEPROM_Write:
  8091                           
  8092                           ;incstack = 0
  8093                           ; Regs used in _EEPROM_Write: [wreg]
  8094                           ;EEPROM_Write@Address stored from wreg
  8095  1CA4  1683               	bsf	3,5	;RP0=1, select bank1
  8096  1CA5  1303               	bcf	3,6	;RP1=0, select bank1
  8097  1CA6  00A1               	movwf	EEPROM_Write@Address^(0+128)
  8098  1CA7                     l3868:
  8099  1CA7                     l159:	
  8100                           ;./eeprom.h: 9:     while(WR);
  8101                           
  8102  1CA7  1683               	bsf	3,5	;RP0=1, select bank3
  8103  1CA8  1703               	bsf	3,6	;RP1=1, select bank3
  8104  1CA9  188C               	btfsc	12,1	;volsfr
  8105  1CAA  2CAC               	goto	u6261
  8106  1CAB  2CAD               	goto	u6260
  8107  1CAC                     u6261:
  8108  1CAC  2CA7               	goto	l159
  8109  1CAD                     u6260:
  8110  1CAD                     l3870:
  8111                           
  8112                           ;./eeprom.h: 10:     EEADR = Address;
  8113  1CAD  1683               	bsf	3,5	;RP0=1, select bank1
  8114  1CAE  1303               	bcf	3,6	;RP1=0, select bank1
  8115  1CAF  0821               	movf	EEPROM_Write@Address^(0+128),w
  8116  1CB0  1283               	bcf	3,5	;RP0=0, select bank2
  8117  1CB1  1703               	bsf	3,6	;RP1=1, select bank2
  8118  1CB2  008D               	movwf	13	;volatile
  8119                           
  8120                           ;./eeprom.h: 11:     EEDATA = Data;
  8121  1CB3  1683               	bsf	3,5	;RP0=1, select bank1
  8122  1CB4  1303               	bcf	3,6	;RP1=0, select bank1
  8123  1CB5  0820               	movf	EEPROM_Write@Data^(0+128),w
  8124  1CB6  1283               	bcf	3,5	;RP0=0, select bank2
  8125  1CB7  1703               	bsf	3,6	;RP1=1, select bank2
  8126  1CB8  008C               	movwf	12	;volatile
  8127  1CB9                     l3872:
  8128                           
  8129                           ;./eeprom.h: 12:     EEPGD = 0;
  8130  1CB9  1683               	bsf	3,5	;RP0=1, select bank3
  8131  1CBA  1703               	bsf	3,6	;RP1=1, select bank3
  8132  1CBB  138C               	bcf	12,7	;volsfr
  8133  1CBC                     l3874:
  8134                           
  8135                           ;./eeprom.h: 13:     EECON1bits.WREN = 1;
  8136  1CBC  150C               	bsf	12,2	;volsfr
  8137  1CBD                     l3876:
  8138                           
  8139                           ;./eeprom.h: 14:     GIE = 0;
  8140  1CBD  138B               	bcf	11,7	;volatile
  8141                           
  8142                           ;./eeprom.h: 15:     EECON2 = 0x55;
  8143  1CBE  3055               	movlw	85
  8144  1CBF  008D               	movwf	13	;volsfr
  8145                           
  8146                           ;./eeprom.h: 16:     EECON2 = 0xAA;
  8147  1CC0  30AA               	movlw	170
  8148  1CC1  008D               	movwf	13	;volsfr
  8149  1CC2                     l3878:
  8150                           
  8151                           ;./eeprom.h: 17:     EECON1bits.WR = 1;
  8152  1CC2  148C               	bsf	12,1	;volsfr
  8153  1CC3                     l3880:
  8154                           
  8155                           ;./eeprom.h: 18:     GIE = 1;
  8156  1CC3  178B               	bsf	11,7	;volatile
  8157  1CC4                     l3882:
  8158                           
  8159                           ;./eeprom.h: 19:     EECON1bits.WREN = 0;
  8160  1CC4  110C               	bcf	12,2	;volsfr
  8161  1CC5                     l3884:
  8162                           
  8163                           ;./eeprom.h: 20:     EECON1bits.WR = 0;
  8164  1CC5  108C               	bcf	12,1	;volsfr
  8165  1CC6                     l162:
  8166  1CC6  0008               	return
  8167  1CC7                     __end_of_EEPROM_Write:
  8168                           
  8169                           	psect	text19
  8170  1BF9                     __ptext19:	
  8171 ;; *************** function _EEPROM_Read *****************
  8172 ;; Defined at:
  8173 ;;		line 1 in file "./eeprom.h"
  8174 ;; Parameters:    Size  Location     Type
  8175 ;;  Address         1    wreg     unsigned char 
  8176 ;; Auto vars:     Size  Location     Type
  8177 ;;  Address         1    0[BANK1 ] unsigned char 
  8178 ;; Return value:  Size  Location     Type
  8179 ;;                  1    wreg      unsigned char 
  8180 ;; Registers used:
  8181 ;;		wreg
  8182 ;; Tracked objects:
  8183 ;;		On entry : 0/0
  8184 ;;		On exit  : 0/0
  8185 ;;		Unchanged: 0/0
  8186 ;; Data sizes:     COMMON   BANK0   BANK1   BANK3   BANK2
  8187 ;;      Params:         0       0       0       0       0
  8188 ;;      Locals:         0       0       1       0       0
  8189 ;;      Temps:          0       0       0       0       0
  8190 ;;      Totals:         0       0       1       0       0
  8191 ;;Total ram usage:        1 bytes
  8192 ;; Hardware stack levels used:    1
  8193 ;; Hardware stack levels required when called:    5
  8194 ;; This function calls:
  8195 ;;		Nothing
  8196 ;; This function is called by:
  8197 ;;		_main
  8198 ;; This function uses a non-reentrant model
  8199 ;;
  8200                           
  8201                           
  8202                           ;psect for function _EEPROM_Read
  8203  1BF9                     _EEPROM_Read:
  8204                           
  8205                           ;incstack = 0
  8206                           ; Regs used in _EEPROM_Read: [wreg]
  8207                           ;EEPROM_Read@Address stored from wreg
  8208  1BF9  1683               	bsf	3,5	;RP0=1, select bank1
  8209  1BFA  1303               	bcf	3,6	;RP1=0, select bank1
  8210  1BFB  00A0               	movwf	EEPROM_Read@Address^(0+128)
  8211  1BFC                     l3860:
  8212                           
  8213                           ;./eeprom.h: 2:     EEADR = Address;
  8214  1BFC  0820               	movf	EEPROM_Read@Address^(0+128),w
  8215  1BFD  1283               	bcf	3,5	;RP0=0, select bank2
  8216  1BFE  1703               	bsf	3,6	;RP1=1, select bank2
  8217  1BFF  008D               	movwf	13	;volatile
  8218  1C00                     l3862:
  8219                           
  8220                           ;./eeprom.h: 3:     EEPGD = 0;
  8221  1C00  1683               	bsf	3,5	;RP0=1, select bank3
  8222  1C01  1703               	bsf	3,6	;RP1=1, select bank3
  8223  1C02  138C               	bcf	12,7	;volsfr
  8224  1C03                     l3864:
  8225                           
  8226                           ;./eeprom.h: 4:     EECON1bits.RD = 1;
  8227  1C03  140C               	bsf	12,0	;volsfr
  8228                           
  8229                           ;./eeprom.h: 5:     return EEDATA;
  8230  1C04  1283               	bcf	3,5	;RP0=0, select bank2
  8231  1C05  1703               	bsf	3,6	;RP1=1, select bank2
  8232  1C06  080C               	movf	12,w	;volatile
  8233  1C07                     l156:
  8234  1C07  0008               	return
  8235  1C08                     __end_of_EEPROM_Read:
  8236                           
  8237                           	psect	text20
  8238  1276                     __ptext20:	
  8239 ;; *************** function _ISR *****************
  8240 ;; Defined at:
  8241 ;;		line 363 in file "eeprom.c"
  8242 ;; Parameters:    Size  Location     Type
  8243 ;;		None
  8244 ;; Auto vars:     Size  Location     Type
  8245 ;;		None
  8246 ;; Return value:  Size  Location     Type
  8247 ;;                  1    wreg      void 
  8248 ;; Registers used:
  8249 ;;		wreg, status,2, status,0, btemp+1, pclath, cstack
  8250 ;; Tracked objects:
  8251 ;;		On entry : 0/0
  8252 ;;		On exit  : 0/0
  8253 ;;		Unchanged: 0/0
  8254 ;; Data sizes:     COMMON   BANK0   BANK1   BANK3   BANK2
  8255 ;;      Params:         0       0       0       0       0
  8256 ;;      Locals:         0       0       0       0       0
  8257 ;;      Temps:          0       6       0       0       0
  8258 ;;      Totals:         0       6       0       0       0
  8259 ;;Total ram usage:        6 bytes
  8260 ;; Hardware stack levels used:    1
  8261 ;; Hardware stack levels required when called:    4
  8262 ;; This function calls:
  8263 ;;		_Dong
  8264 ;;		_Dung
  8265 ;;		_Mo
  8266 ;;		_nguoi
  8267 ;; This function is called by:
  8268 ;;		Interrupt level 1
  8269 ;; This function uses a non-reentrant model
  8270 ;;
  8271                           
  8272                           
  8273                           ;psect for function _ISR
  8274  1276                     _ISR:
  8275  1276                     i1l6236:
  8276                           
  8277                           ;eeprom.c: 364:         {
  8278  1276  1C0B               	btfss	11,0	;volatile
  8279  1277  2A79               	goto	u987_21
  8280  1278  2A7A               	goto	u987_20
  8281  1279                     u987_21:
  8282  1279  2B8F               	goto	i1l6336
  8283  127A                     u987_20:
  8284  127A                     i1l6238:
  8285                           
  8286                           ;eeprom.c: 365:             if(trangthai==1){tt=2;};eeprom.c: 366:             else if(t
      +                          rangthai==2){tt=1;}
  8287  127A  1E06               	btfss	6,4	;volatile
  8288  127B  2A7D               	goto	u988_21
  8289  127C  2A7E               	goto	u988_20
  8290  127D                     u988_21:
  8291  127D  2ADE               	goto	i1l362
  8292  127E                     u988_20:
  8293  127E                     i1l6240:
  8294  127E  1E86               	btfss	6,5	;volatile
  8295  127F  2A81               	goto	u989_21
  8296  1280  2A82               	goto	u989_20
  8297  1281                     u989_21:
  8298  1281  2ADE               	goto	i1l362
  8299  1282                     u989_20:
  8300  1282                     i1l6242:
  8301  1282  1F06               	btfss	6,6	;volatile
  8302  1283  2A85               	goto	u990_21
  8303  1284  2A86               	goto	u990_20
  8304  1285                     u990_21:
  8305  1285  2ADE               	goto	i1l362
  8306  1286                     u990_20:
  8307  1286                     i1l6244:
  8308  1286  1F86               	btfss	6,7	;volatile
  8309  1287  2A89               	goto	u991_21
  8310  1288  2A8A               	goto	u991_20
  8311  1289                     u991_21:
  8312  1289  2ADE               	goto	i1l362
  8313  128A                     u991_20:
  8314  128A                     i1l6246:
  8315                           
  8316                           ;eeprom.c: 367:             nguoi();;eeprom.c: 369:         else if(RB7==0 && RB6==1 && 
      +                          RB5==1)
  8317  128A  0368               	decf	_trangthai,w
  8318  128B  0469               	iorwf	_trangthai+1,w
  8319  128C  1D03               	btfss	3,2
  8320  128D  2A8F               	goto	u992_21
  8321  128E  2A90               	goto	u992_20
  8322  128F                     u992_21:
  8323  128F  2AA8               	goto	i1l6256
  8324  1290                     u992_20:
  8325  1290                     i1l6248:
  8326  1290  3002               	movlw	2
  8327  1291  1683               	bsf	3,5	;RP0=1, select bank1
  8328  1292  1303               	bcf	3,6	;RP1=0, select bank1
  8329  1293  066C               	xorwf	_tt^(0+128),w
  8330  1294  046D               	iorwf	(_tt+1)^(0+128),w
  8331  1295  1D03               	btfss	3,2
  8332  1296  2A98               	goto	u993_21
  8333  1297  2A99               	goto	u993_20
  8334  1298                     u993_21:
  8335  1298  2AA8               	goto	i1l6256
  8336  1299                     u993_20:
  8337  1299                     i1l6250:
  8338                           
  8339                           ;eeprom.c: 370:         {;eeprom.c: 371:             if(trangthai==1){tt=1;}
  8340  1299  3001               	movlw	1
  8341  129A  07EA               	addwf	_counter1^(0+128),f
  8342  129B  1803               	skipnc
  8343  129C  0AEB               	incf	(_counter1+1)^(0+128),f
  8344  129D  3000               	movlw	0
  8345  129E  07EB               	addwf	(_counter1+1)^(0+128),f
  8346  129F                     i1l6252:
  8347                           
  8348                           ;eeprom.c: 372:             else if(trangthai==2){tt=2;}
  8349  129F  1283               	bcf	3,5	;RP0=0, select bank0
  8350  12A0  1303               	bcf	3,6	;RP1=0, select bank0
  8351  12A1  01E8               	clrf	_trangthai
  8352  12A2  01E9               	clrf	_trangthai+1
  8353  12A3                     i1l6254:
  8354                           
  8355                           ;eeprom.c: 373:             nguoi();
  8356  12A3  1683               	bsf	3,5	;RP0=1, select bank1
  8357  12A4  1303               	bcf	3,6	;RP1=0, select bank1
  8358  12A5  01EC               	clrf	_tt^(0+128)
  8359  12A6  01ED               	clrf	(_tt+1)^(0+128)
  8360                           
  8361                           ;eeprom.c: 374:         }
  8362  12A7  2AC0               	goto	i1l6266
  8363  12A8                     i1l6256:
  8364  12A8  3002               	movlw	2
  8365  12A9  1283               	bcf	3,5	;RP0=0, select bank0
  8366  12AA  0668               	xorwf	_trangthai,w
  8367  12AB  0469               	iorwf	_trangthai+1,w
  8368  12AC  1D03               	btfss	3,2
  8369  12AD  2AAF               	goto	u994_21
  8370  12AE  2AB0               	goto	u994_20
  8371  12AF                     u994_21:
  8372  12AF  2AC0               	goto	i1l6266
  8373  12B0                     u994_20:
  8374  12B0                     i1l6258:
  8375  12B0  3002               	movlw	2
  8376  12B1  1683               	bsf	3,5	;RP0=1, select bank1
  8377  12B2  1303               	bcf	3,6	;RP1=0, select bank1
  8378  12B3  066C               	xorwf	_tt^(0+128),w
  8379  12B4  046D               	iorwf	(_tt+1)^(0+128),w
  8380  12B5  1D03               	btfss	3,2
  8381  12B6  2AB8               	goto	u995_21
  8382  12B7  2AB9               	goto	u995_20
  8383  12B8                     u995_21:
  8384  12B8  2AC0               	goto	i1l6266
  8385  12B9                     u995_20:
  8386  12B9                     i1l6260:
  8387                           
  8388                           ;eeprom.c: 376:     };eeprom.c: 377:     else
  8389  12B9  30FF               	movlw	255
  8390  12BA  07EA               	addwf	_counter1^(0+128),f
  8391  12BB  1803               	skipnc
  8392  12BC  0AEB               	incf	(_counter1+1)^(0+128),f
  8393  12BD  30FF               	movlw	255
  8394  12BE  07EB               	addwf	(_counter1+1)^(0+128),f
  8395  12BF  2A9F               	goto	i1l6252
  8396  12C0                     i1l6266:
  8397                           
  8398                           ;eeprom.c: 381:         nguoi();
  8399  12C0  160A  158A  2408  160A  118A  	fcall	_nguoi
  8400  12C5                     i1l6268:
  8401                           
  8402                           ;eeprom.c: 382:     }
  8403  12C5  160A  158A  241F  160A  118A  	fcall	_Dong
  8404                           
  8405                           ;eeprom.c: 383: }
  8406  12CA  3010               	movlw	16
  8407  12CB  1283               	bcf	3,5	;RP0=0, select bank0
  8408  12CC  1303               	bcf	3,6	;RP1=0, select bank0
  8409  12CD  00E4               	movwf	??_ISR+2
  8410  12CE  3039               	movlw	57
  8411  12CF  00E3               	movwf	??_ISR+1
  8412  12D0  300D               	movlw	13
  8413  12D1  00E2               	movwf	??_ISR
  8414  12D2                     u1051_27:
  8415  12D2  0BE2               	decfsz	??_ISR,f
  8416  12D3  2AD2               	goto	u1051_27
  8417  12D4  0BE3               	decfsz	??_ISR+1,f
  8418  12D5  2AD2               	goto	u1051_27
  8419  12D6  0BE4               	decfsz	??_ISR+2,f
  8420  12D7  2AD2               	goto	u1051_27
  8421  12D8                     i1l6270:
  8422                           
  8423                           ;eeprom.c: 384: void nguoi()
  8424  12D8  160A  158A  23DF  160A  118A  	fcall	_Dung
  8425                           
  8426                           ;eeprom.c: 385: {
  8427  12DD  2B8D               	goto	i1l6334
  8428  12DE                     i1l362:	
  8429                           ;eeprom.c: 386:   if(counter1>0){RA0=1;}
  8430                           
  8431  12DE  1E86               	btfss	6,5	;volatile
  8432  12DF  2AE1               	goto	u996_21
  8433  12E0  2AE2               	goto	u996_20
  8434  12E1                     u996_21:
  8435  12E1  2B09               	goto	i1l367
  8436  12E2                     u996_20:
  8437  12E2                     i1l6272:
  8438  12E2  1B06               	btfsc	6,6	;volatile
  8439  12E3  2AE5               	goto	u997_21
  8440  12E4  2AE6               	goto	u997_20
  8441  12E5                     u997_21:
  8442  12E5  2B09               	goto	i1l367
  8443  12E6                     u997_20:
  8444  12E6                     i1l6274:
  8445  12E6  1B86               	btfsc	6,7	;volatile
  8446  12E7  2AE9               	goto	u998_21
  8447  12E8  2AEA               	goto	u998_20
  8448  12E9                     u998_21:
  8449  12E9  2B09               	goto	i1l367
  8450  12EA                     u998_20:
  8451  12EA                     i1l6276:
  8452                           
  8453                           ;eeprom.c: 387:   else{RA0=0;}
  8454  12EA  160A  158A  2408  160A  118A  	fcall	_nguoi
  8455  12EF                     i1l6278:
  8456                           
  8457                           ;eeprom.c: 388: }
  8458  12EF  3001               	movlw	1
  8459  12F0  1283               	bcf	3,5	;RP0=0, select bank0
  8460  12F1  1303               	bcf	3,6	;RP1=0, select bank0
  8461  12F2  00E8               	movwf	_trangthai
  8462  12F3  3000               	movlw	0
  8463  12F4  00E9               	movwf	_trangthai+1
  8464  12F5                     i1l6280:
  8465  12F5  160A  158A  2438  160A  118A  	fcall	_Mo
  8466  12FA  3010               	movlw	16
  8467  12FB  1283               	bcf	3,5	;RP0=0, select bank0
  8468  12FC  1303               	bcf	3,6	;RP1=0, select bank0
  8469  12FD  00E4               	movwf	??_ISR+2
  8470  12FE  3039               	movlw	57
  8471  12FF  00E3               	movwf	??_ISR+1
  8472  1300  300D               	movlw	13
  8473  1301  00E2               	movwf	??_ISR
  8474  1302                     u1052_27:
  8475  1302  0BE2               	decfsz	??_ISR,f
  8476  1303  2B02               	goto	u1052_27
  8477  1304  0BE3               	decfsz	??_ISR+1,f
  8478  1305  2B02               	goto	u1052_27
  8479  1306  0BE4               	decfsz	??_ISR+2,f
  8480  1307  2B02               	goto	u1052_27
  8481  1308  2AD8               	goto	i1l6270
  8482  1309                     i1l367:
  8483  1309  1A86               	btfsc	6,5	;volatile
  8484  130A  2B0C               	goto	u999_21
  8485  130B  2B0D               	goto	u999_20
  8486  130C                     u999_21:
  8487  130C  2B21               	goto	i1l369
  8488  130D                     u999_20:
  8489  130D                     i1l6284:
  8490  130D  1B06               	btfsc	6,6	;volatile
  8491  130E  2B10               	goto	u1000_21
  8492  130F  2B11               	goto	u1000_20
  8493  1310                     u1000_21:
  8494  1310  2B21               	goto	i1l369
  8495  1311                     u1000_20:
  8496  1311                     i1l6286:
  8497  1311  1F86               	btfss	6,7	;volatile
  8498  1312  2B14               	goto	u1001_21
  8499  1313  2B15               	goto	u1001_20
  8500  1314                     u1001_21:
  8501  1314  2B21               	goto	i1l369
  8502  1315                     u1001_20:
  8503  1315                     i1l6288:
  8504  1315  160A  158A  2408  160A  118A  	fcall	_nguoi
  8505  131A                     i1l6290:
  8506  131A  3002               	movlw	2
  8507  131B  1283               	bcf	3,5	;RP0=0, select bank0
  8508  131C  1303               	bcf	3,6	;RP1=0, select bank0
  8509  131D  00E8               	movwf	_trangthai
  8510  131E  3000               	movlw	0
  8511  131F  00E9               	movwf	_trangthai+1
  8512  1320  2AF5               	goto	i1l6280
  8513  1321                     i1l369:
  8514  1321  1A86               	btfsc	6,5	;volatile
  8515  1322  2B24               	goto	u1002_21
  8516  1323  2B25               	goto	u1002_20
  8517  1324                     u1002_21:
  8518  1324  2B46               	goto	i1l371
  8519  1325                     u1002_20:
  8520  1325                     i1l6296:
  8521  1325  1B06               	btfsc	6,6	;volatile
  8522  1326  2B28               	goto	u1003_21
  8523  1327  2B29               	goto	u1003_20
  8524  1328                     u1003_21:
  8525  1328  2B46               	goto	i1l371
  8526  1329                     u1003_20:
  8527  1329                     i1l6298:
  8528  1329  1B86               	btfsc	6,7	;volatile
  8529  132A  2B2C               	goto	u1004_21
  8530  132B  2B2D               	goto	u1004_20
  8531  132C                     u1004_21:
  8532  132C  2B46               	goto	i1l371
  8533  132D                     u1004_20:
  8534  132D                     i1l6300:
  8535  132D  160A  158A  2408  160A  118A  	fcall	_nguoi
  8536  1332  160A  158A  2438  160A  118A  	fcall	_Mo
  8537  1337                     i1l6302:
  8538  1337  3010               	movlw	16
  8539  1338  1283               	bcf	3,5	;RP0=0, select bank0
  8540  1339  1303               	bcf	3,6	;RP1=0, select bank0
  8541  133A  00E4               	movwf	??_ISR+2
  8542  133B  3039               	movlw	57
  8543  133C  00E3               	movwf	??_ISR+1
  8544  133D  300D               	movlw	13
  8545  133E  00E2               	movwf	??_ISR
  8546  133F                     u1053_27:
  8547  133F  0BE2               	decfsz	??_ISR,f
  8548  1340  2B3F               	goto	u1053_27
  8549  1341  0BE3               	decfsz	??_ISR+1,f
  8550  1342  2B3F               	goto	u1053_27
  8551  1343  0BE4               	decfsz	??_ISR+2,f
  8552  1344  2B3F               	goto	u1053_27
  8553  1345  2AD8               	goto	i1l6270
  8554  1346                     i1l371:
  8555  1346  1F86               	btfss	6,7	;volatile
  8556  1347  2B49               	goto	u1005_21
  8557  1348  2B4A               	goto	u1005_20
  8558  1349                     u1005_21:
  8559  1349  2B72               	goto	i1l373
  8560  134A                     u1005_20:
  8561  134A                     i1l6306:
  8562  134A  1A86               	btfsc	6,5	;volatile
  8563  134B  2B4D               	goto	u1006_21
  8564  134C  2B4E               	goto	u1006_20
  8565  134D                     u1006_21:
  8566  134D  2B72               	goto	i1l373
  8567  134E                     u1006_20:
  8568  134E                     i1l6308:
  8569  134E  1F06               	btfss	6,6	;volatile
  8570  134F  2B51               	goto	u1007_21
  8571  1350  2B52               	goto	u1007_20
  8572  1351                     u1007_21:
  8573  1351  2B72               	goto	i1l373
  8574  1352                     u1007_20:
  8575  1352                     i1l6310:
  8576  1352  0368               	decf	_trangthai,w
  8577  1353  0469               	iorwf	_trangthai+1,w
  8578  1354  1D03               	btfss	3,2
  8579  1355  2B57               	goto	u1008_21
  8580  1356  2B58               	goto	u1008_20
  8581  1357                     u1008_21:
  8582  1357  2B5F               	goto	i1l6314
  8583  1358                     u1008_20:
  8584  1358                     i1l6312:
  8585  1358  3002               	movlw	2
  8586  1359  1683               	bsf	3,5	;RP0=1, select bank1
  8587  135A  1303               	bcf	3,6	;RP1=0, select bank1
  8588  135B  00EC               	movwf	_tt^(0+128)
  8589  135C  3000               	movlw	0
  8590  135D  00ED               	movwf	(_tt^(0+128)+1)
  8591  135E  2B6C               	goto	i1l6318
  8592  135F                     i1l6314:
  8593  135F  3002               	movlw	2
  8594  1360  0668               	xorwf	_trangthai,w
  8595  1361  0469               	iorwf	_trangthai+1,w
  8596  1362  1D03               	btfss	3,2
  8597  1363  2B65               	goto	u1009_21
  8598  1364  2B66               	goto	u1009_20
  8599  1365                     u1009_21:
  8600  1365  2B6C               	goto	i1l6318
  8601  1366                     u1009_20:
  8602  1366                     i1l6316:
  8603  1366  3001               	movlw	1
  8604  1367  1683               	bsf	3,5	;RP0=1, select bank1
  8605  1368  1303               	bcf	3,6	;RP1=0, select bank1
  8606  1369  00EC               	movwf	_tt^(0+128)
  8607  136A  3000               	movlw	0
  8608  136B  00ED               	movwf	(_tt^(0+128)+1)
  8609  136C                     i1l6318:
  8610  136C  160A  158A  2408  160A  118A  	fcall	_nguoi
  8611  1371  2B8D               	goto	i1l6334
  8612  1372                     i1l373:
  8613  1372  1B86               	btfsc	6,7	;volatile
  8614  1373  2B75               	goto	u1010_21
  8615  1374  2B76               	goto	u1010_20
  8616  1375                     u1010_21:
  8617  1375  2B8D               	goto	i1l370
  8618  1376                     u1010_20:
  8619  1376                     i1l6320:
  8620  1376  1F06               	btfss	6,6	;volatile
  8621  1377  2B79               	goto	u1011_21
  8622  1378  2B7A               	goto	u1011_20
  8623  1379                     u1011_21:
  8624  1379  2B8D               	goto	i1l370
  8625  137A                     u1011_20:
  8626  137A                     i1l6322:
  8627  137A  1E86               	btfss	6,5	;volatile
  8628  137B  2B7D               	goto	u1012_21
  8629  137C  2B7E               	goto	u1012_20
  8630  137D                     u1012_21:
  8631  137D  2B8D               	goto	i1l370
  8632  137E                     u1012_20:
  8633  137E                     i1l6324:
  8634  137E  0368               	decf	_trangthai,w
  8635  137F  0469               	iorwf	_trangthai+1,w
  8636  1380  1D03               	btfss	3,2
  8637  1381  2B83               	goto	u1013_21
  8638  1382  2B84               	goto	u1013_20
  8639  1383                     u1013_21:
  8640  1383  2B85               	goto	i1l6328
  8641  1384                     u1013_20:
  8642  1384  2B66               	goto	i1l6316
  8643  1385                     i1l6328:
  8644  1385  3002               	movlw	2
  8645  1386  0668               	xorwf	_trangthai,w
  8646  1387  0469               	iorwf	_trangthai+1,w
  8647  1388  1D03               	btfss	3,2
  8648  1389  2B8B               	goto	u1014_21
  8649  138A  2B8C               	goto	u1014_20
  8650  138B                     u1014_21:
  8651  138B  2B6C               	goto	i1l6318
  8652  138C                     u1014_20:
  8653  138C  2B58               	goto	i1l6312
  8654  138D                     i1l370:
  8655  138D                     i1l6334:
  8656  138D  100B               	bcf	11,0	;volatile
  8657  138E  2B9A               	goto	i1l383
  8658  138F                     i1l6336:
  8659  138F  160A  158A  23DF  160A  118A  	fcall	_Dung
  8660  1394                     i1l6338:
  8661  1394  100B               	bcf	11,0	;volatile
  8662  1395                     i1l6340:
  8663  1395  160A  158A  2408  160A  118A  	fcall	_nguoi
  8664  139A                     i1l383:
  8665  139A  1283               	bcf	3,5	;RP0=0, select bank0
  8666  139B  1303               	bcf	3,6	;RP1=0, select bank0
  8667  139C  0867               	movf	??_ISR+5,w
  8668  139D  00FF               	movwf	btemp+1
  8669  139E  0866               	movf	??_ISR+4,w
  8670  139F  008A               	movwf	10
  8671  13A0  0E65               	swapf	??_ISR+3,w
  8672  13A1  0083               	movwf	3
  8673  13A2  0EFE               	swapf	btemp,f
  8674  13A3  0E7E               	swapf	btemp,w
  8675  13A4  0009               	retfie
  8676  13A5                     __end_of_ISR:
  8677                           
  8678                           	psect	intentry
  8679  0004                     __pintentry:	
  8680                           ;incstack = 0
  8681                           ; Regs used in _ISR: [wreg+status,2+status,0+btemp+1+pclath+cstack]
  8682                           
  8683  0004                     interrupt_function:
  8684  007E                     saved_w	set	btemp
  8685  0004  00FE               	movwf	btemp
  8686  0005  0E03               	swapf	3,w
  8687  0006  1283               	bcf	3,5	;RP0=0, select bank0
  8688  0007  1303               	bcf	3,6	;RP1=0, select bank0
  8689  0008  00E5               	movwf	??_ISR+3
  8690  0009  080A               	movf	10,w
  8691  000A  00E6               	movwf	??_ISR+4
  8692  000B  087F               	movf	btemp+1,w
  8693  000C  00E7               	movwf	??_ISR+5
  8694  000D  160A  118A  2A76   	ljmp	_ISR
  8695                           
  8696                           	psect	text21
  8697  1C08                     __ptext21:	
  8698 ;; *************** function _nguoi *****************
  8699 ;; Defined at:
  8700 ;;		line 426 in file "eeprom.c"
  8701 ;; Parameters:    Size  Location     Type
  8702 ;;		None
  8703 ;; Auto vars:     Size  Location     Type
  8704 ;;		None
  8705 ;; Return value:  Size  Location     Type
  8706 ;;                  1    wreg      void 
  8707 ;; Registers used:
  8708 ;;		wreg, btemp+1
  8709 ;; Tracked objects:
  8710 ;;		On entry : 0/0
  8711 ;;		On exit  : 0/0
  8712 ;;		Unchanged: 0/0
  8713 ;; Data sizes:     COMMON   BANK0   BANK1   BANK3   BANK2
  8714 ;;      Params:         0       0       0       0       0
  8715 ;;      Locals:         0       0       0       0       0
  8716 ;;      Temps:          0       0       0       0       0
  8717 ;;      Totals:         0       0       0       0       0
  8718 ;;Total ram usage:        0 bytes
  8719 ;; Hardware stack levels used:    1
  8720 ;; This function calls:
  8721 ;;		Nothing
  8722 ;; This function is called by:
  8723 ;;		_ISR
  8724 ;; This function uses a non-reentrant model
  8725 ;;
  8726                           
  8727                           
  8728                           ;psect for function _nguoi
  8729  1C08                     _nguoi:
  8730  1C08                     i1l3928:	
  8731                           ;incstack = 0
  8732                           ; Regs used in _nguoi: [wreg+btemp+1]
  8733                           
  8734  1C08  1683               	bsf	3,5	;RP0=1, select bank1
  8735  1C09  1303               	bcf	3,6	;RP1=0, select bank1
  8736  1C0A  086B               	movf	(_counter1+1)^(0+128),w
  8737  1C0B  3A80               	xorlw	128
  8738  1C0C  00FF               	movwf	btemp+1
  8739  1C0D  3080               	movlw	128
  8740  1C0E  027F               	subwf	btemp+1,w
  8741  1C0F  1D03               	skipz
  8742  1C10  2C13               	goto	u628_25
  8743  1C11  3001               	movlw	1
  8744  1C12  026A               	subwf	_counter1^(0+128),w
  8745  1C13                     u628_25:
  8746  1C13  1C03               	skipc
  8747  1C14  2C16               	goto	u628_21
  8748  1C15  2C17               	goto	u628_20
  8749  1C16                     u628_21:
  8750  1C16  2C1B               	goto	i1l386
  8751  1C17                     u628_20:
  8752  1C17                     i1l3930:
  8753  1C17  1283               	bcf	3,5	;RP0=0, select bank0
  8754  1C18  1303               	bcf	3,6	;RP1=0, select bank0
  8755  1C19  1405               	bsf	5,0	;volatile
  8756  1C1A  2C1E               	goto	i1l388
  8757  1C1B                     i1l386:
  8758  1C1B  1283               	bcf	3,5	;RP0=0, select bank0
  8759  1C1C  1303               	bcf	3,6	;RP1=0, select bank0
  8760  1C1D  1005               	bcf	5,0	;volatile
  8761  1C1E                     i1l388:
  8762  1C1E  0008               	return
  8763  1C1F                     __end_of_nguoi:
  8764                           
  8765                           	psect	text22
  8766  1C38                     __ptext22:	
  8767 ;; *************** function _Mo *****************
  8768 ;; Defined at:
  8769 ;;		line 42 in file "./moto.h"
  8770 ;; Parameters:    Size  Location     Type
  8771 ;;		None
  8772 ;; Auto vars:     Size  Location     Type
  8773 ;;		None
  8774 ;; Return value:  Size  Location     Type
  8775 ;;                  1    wreg      void 
  8776 ;; Registers used:
  8777 ;;		wreg, status,2, status,0, btemp+1, pclath, cstack
  8778 ;; Tracked objects:
  8779 ;;		On entry : 0/0
  8780 ;;		On exit  : 0/0
  8781 ;;		Unchanged: 0/0
  8782 ;; Data sizes:     COMMON   BANK0   BANK1   BANK3   BANK2
  8783 ;;      Params:         0       0       0       0       0
  8784 ;;      Locals:         0       0       0       0       0
  8785 ;;      Temps:          0       0       0       0       0
  8786 ;;      Totals:         0       0       0       0       0
  8787 ;;Total ram usage:        0 bytes
  8788 ;; Hardware stack levels used:    1
  8789 ;; Hardware stack levels required when called:    3
  8790 ;; This function calls:
  8791 ;;		_DC_cal
  8792 ;;		_setPWM_DutyCycle
  8793 ;; This function is called by:
  8794 ;;		_ISR
  8795 ;; This function uses a non-reentrant model
  8796 ;;
  8797                           
  8798                           
  8799                           ;psect for function _Mo
  8800  1C38                     _Mo:
  8801  1C38                     i1l3922:	
  8802                           ;incstack = 0
  8803                           ; Regs used in _Mo: [wreg+status,2+status,0+btemp+1+pclath+cstack]
  8804                           
  8805                           
  8806                           ;./moto.h: 44:             RC1=0;
  8807  1C38  1283               	bcf	3,5	;RP0=0, select bank0
  8808  1C39  1303               	bcf	3,6	;RP1=0, select bank0
  8809  1C3A  1087               	bcf	7,1	;volatile
  8810                           
  8811                           ;./moto.h: 45:             RC0=1;
  8812  1C3B  1407               	bsf	7,0	;volatile
  8813  1C3C                     i1l3924:
  8814                           
  8815                           ;./moto.h: 46:             setPWM_DutyCycle(DC_cal(100));
  8816  1C3C  3064               	movlw	100
  8817  1C3D  00D4               	movwf	DC_cal@DC
  8818  1C3E  3000               	movlw	0
  8819  1C3F  00D5               	movwf	DC_cal@DC+1
  8820  1C40  160A  158A  274D  160A  158A  	fcall	_DC_cal
  8821  1C45  1283               	bcf	3,5	;RP0=0, select bank0
  8822  1C46  1303               	bcf	3,6	;RP1=0, select bank0
  8823  1C47  0855               	movf	?_DC_cal+1,w
  8824  1C48  00DF               	movwf	setPWM_DutyCycle@DC+1
  8825  1C49  0854               	movf	?_DC_cal,w
  8826  1C4A  00DE               	movwf	setPWM_DutyCycle@DC
  8827  1C4B  160A  158A  246A  160A  158A  	fcall	_setPWM_DutyCycle
  8828  1C50                     i1l293:
  8829  1C50  0008               	return
  8830  1C51                     __end_of_Mo:
  8831                           
  8832                           	psect	text23
  8833  1BDF                     __ptext23:	
  8834 ;; *************** function _Dung *****************
  8835 ;; Defined at:
  8836 ;;		line 48 in file "./moto.h"
  8837 ;; Parameters:    Size  Location     Type
  8838 ;;		None
  8839 ;; Auto vars:     Size  Location     Type
  8840 ;;		None
  8841 ;; Return value:  Size  Location     Type
  8842 ;;                  1    wreg      void 
  8843 ;; Registers used:
  8844 ;;		None
  8845 ;; Tracked objects:
  8846 ;;		On entry : 0/0
  8847 ;;		On exit  : 0/0
  8848 ;;		Unchanged: 0/0
  8849 ;; Data sizes:     COMMON   BANK0   BANK1   BANK3   BANK2
  8850 ;;      Params:         0       0       0       0       0
  8851 ;;      Locals:         0       0       0       0       0
  8852 ;;      Temps:          0       0       0       0       0
  8853 ;;      Totals:         0       0       0       0       0
  8854 ;;Total ram usage:        0 bytes
  8855 ;; Hardware stack levels used:    1
  8856 ;; This function calls:
  8857 ;;		Nothing
  8858 ;; This function is called by:
  8859 ;;		_ISR
  8860 ;; This function uses a non-reentrant model
  8861 ;;
  8862                           
  8863                           
  8864                           ;psect for function _Dung
  8865  1BDF                     _Dung:
  8866  1BDF                     i1l3926:	
  8867                           ;incstack = 0
  8868                           ; Regs used in _Dung: []
  8869                           
  8870                           
  8871                           ;./moto.h: 50:     RC1=0;
  8872  1BDF  1283               	bcf	3,5	;RP0=0, select bank0
  8873  1BE0  1303               	bcf	3,6	;RP1=0, select bank0
  8874  1BE1  1087               	bcf	7,1	;volatile
  8875                           
  8876                           ;./moto.h: 51:     RC0=0;
  8877  1BE2  1007               	bcf	7,0	;volatile
  8878  1BE3                     i1l296:
  8879  1BE3  0008               	return
  8880  1BE4                     __end_of_Dung:
  8881                           
  8882                           	psect	text24
  8883  1C1F                     __ptext24:	
  8884 ;; *************** function _Dong *****************
  8885 ;; Defined at:
  8886 ;;		line 36 in file "./moto.h"
  8887 ;; Parameters:    Size  Location     Type
  8888 ;;		None
  8889 ;; Auto vars:     Size  Location     Type
  8890 ;;		None
  8891 ;; Return value:  Size  Location     Type
  8892 ;;                  1    wreg      void 
  8893 ;; Registers used:
  8894 ;;		wreg, status,2, status,0, btemp+1, pclath, cstack
  8895 ;; Tracked objects:
  8896 ;;		On entry : 0/0
  8897 ;;		On exit  : 0/0
  8898 ;;		Unchanged: 0/0
  8899 ;; Data sizes:     COMMON   BANK0   BANK1   BANK3   BANK2
  8900 ;;      Params:         0       0       0       0       0
  8901 ;;      Locals:         0       0       0       0       0
  8902 ;;      Temps:          0       0       0       0       0
  8903 ;;      Totals:         0       0       0       0       0
  8904 ;;Total ram usage:        0 bytes
  8905 ;; Hardware stack levels used:    1
  8906 ;; Hardware stack levels required when called:    3
  8907 ;; This function calls:
  8908 ;;		_DC_cal
  8909 ;;		_setPWM_DutyCycle
  8910 ;; This function is called by:
  8911 ;;		_ISR
  8912 ;; This function uses a non-reentrant model
  8913 ;;
  8914                           
  8915                           
  8916                           ;psect for function _Dong
  8917  1C1F                     _Dong:
  8918  1C1F                     i1l3918:	
  8919                           ;incstack = 0
  8920                           ; Regs used in _Dong: [wreg+status,2+status,0+btemp+1+pclath+cstack]
  8921                           
  8922                           
  8923                           ;./moto.h: 38:             RC1=1;
  8924  1C1F  1283               	bcf	3,5	;RP0=0, select bank0
  8925  1C20  1303               	bcf	3,6	;RP1=0, select bank0
  8926  1C21  1487               	bsf	7,1	;volatile
  8927                           
  8928                           ;./moto.h: 39:             RC0=0;
  8929  1C22  1007               	bcf	7,0	;volatile
  8930  1C23                     i1l3920:
  8931                           
  8932                           ;./moto.h: 40:             setPWM_DutyCycle(DC_cal(100));
  8933  1C23  3064               	movlw	100
  8934  1C24  00D4               	movwf	DC_cal@DC
  8935  1C25  3000               	movlw	0
  8936  1C26  00D5               	movwf	DC_cal@DC+1
  8937  1C27  160A  158A  274D  160A  158A  	fcall	_DC_cal
  8938  1C2C  1283               	bcf	3,5	;RP0=0, select bank0
  8939  1C2D  1303               	bcf	3,6	;RP1=0, select bank0
  8940  1C2E  0855               	movf	?_DC_cal+1,w
  8941  1C2F  00DF               	movwf	setPWM_DutyCycle@DC+1
  8942  1C30  0854               	movf	?_DC_cal,w
  8943  1C31  00DE               	movwf	setPWM_DutyCycle@DC
  8944  1C32  160A  158A  246A  160A  158A  	fcall	_setPWM_DutyCycle
  8945  1C37                     i1l290:
  8946  1C37  0008               	return
  8947  1C38                     __end_of_Dong:
  8948                           
  8949                           	psect	text25
  8950  1C6A                     __ptext25:	
  8951 ;; *************** function _setPWM_DutyCycle *****************
  8952 ;; Defined at:
  8953 ;;		line 28 in file "./moto.h"
  8954 ;; Parameters:    Size  Location     Type
  8955 ;;  DC              2   62[BANK0 ] unsigned int 
  8956 ;; Auto vars:     Size  Location     Type
  8957 ;;		None
  8958 ;; Return value:  Size  Location     Type
  8959 ;;                  1    wreg      void 
  8960 ;; Registers used:
  8961 ;;		wreg, status,2, status,0
  8962 ;; Tracked objects:
  8963 ;;		On entry : 0/0
  8964 ;;		On exit  : 0/0
  8965 ;;		Unchanged: 0/0
  8966 ;; Data sizes:     COMMON   BANK0   BANK1   BANK3   BANK2
  8967 ;;      Params:         0       2       0       0       0
  8968 ;;      Locals:         0       0       0       0       0
  8969 ;;      Temps:          0       2       0       0       0
  8970 ;;      Totals:         0       4       0       0       0
  8971 ;;Total ram usage:        4 bytes
  8972 ;; Hardware stack levels used:    1
  8973 ;; This function calls:
  8974 ;;		Nothing
  8975 ;; This function is called by:
  8976 ;;		_Dong
  8977 ;;		_Mo
  8978 ;; This function uses a non-reentrant model
  8979 ;;
  8980                           
  8981                           
  8982                           ;psect for function _setPWM_DutyCycle
  8983  1C6A                     _setPWM_DutyCycle:
  8984  1C6A                     i1l3376:	
  8985                           ;incstack = 0
  8986                           ; Regs used in _setPWM_DutyCycle: [wreg+status,2+status,0]
  8987                           
  8988                           
  8989                           ;./moto.h: 30:     CCP1Y = DC & (1<<0);
  8990  1C6A  1283               	bcf	3,5	;RP0=0, select bank0
  8991  1C6B  1303               	bcf	3,6	;RP1=0, select bank0
  8992  1C6C  185E               	btfsc	setPWM_DutyCycle@DC,0
  8993  1C6D  2C6F               	goto	u513_21
  8994  1C6E  2C73               	goto	u513_20
  8995  1C6F                     u513_21:
  8996  1C6F  1283               	bcf	3,5	;RP0=0, select bank0
  8997  1C70  1303               	bcf	3,6	;RP1=0, select bank0
  8998  1C71  1617               	bsf	23,4	;volatile
  8999  1C72  2C76               	goto	u514_24
  9000  1C73                     u513_20:
  9001  1C73  1283               	bcf	3,5	;RP0=0, select bank0
  9002  1C74  1303               	bcf	3,6	;RP1=0, select bank0
  9003  1C75  1217               	bcf	23,4	;volatile
  9004  1C76                     u514_24:
  9005                           
  9006                           ;./moto.h: 31:     CCP1X = DC & (1<<1);
  9007  1C76  1297               	bcf	23,5	;volatile
  9008  1C77                     i1l3378:
  9009                           
  9010                           ;./moto.h: 33:     CCPR1L = DC >> 2;
  9011  1C77  085F               	movf	setPWM_DutyCycle@DC+1,w
  9012  1C78  00E1               	movwf	??_setPWM_DutyCycle+1
  9013  1C79  085E               	movf	setPWM_DutyCycle@DC,w
  9014  1C7A  00E0               	movwf	??_setPWM_DutyCycle
  9015  1C7B  1003               	clrc
  9016  1C7C  0CE1               	rrf	??_setPWM_DutyCycle+1,f
  9017  1C7D  0CE0               	rrf	??_setPWM_DutyCycle,f
  9018  1C7E  1003               	clrc
  9019  1C7F  0CE1               	rrf	??_setPWM_DutyCycle+1,f
  9020  1C80  0CE0               	rrf	??_setPWM_DutyCycle,f
  9021  1C81  0860               	movf	??_setPWM_DutyCycle,w
  9022  1C82  0095               	movwf	21	;volatile
  9023  1C83                     i1l287:
  9024  1C83  0008               	return
  9025  1C84                     __end_of_setPWM_DutyCycle:
  9026                           
  9027                           	psect	text26
  9028  1F4D                     __ptext26:	
  9029 ;; *************** function _DC_cal *****************
  9030 ;; Defined at:
  9031 ;;		line 24 in file "./moto.h"
  9032 ;; Parameters:    Size  Location     Type
  9033 ;;  DC              2   52[BANK0 ] unsigned int 
  9034 ;; Auto vars:     Size  Location     Type
  9035 ;;		None
  9036 ;; Return value:  Size  Location     Type
  9037 ;;                  2   52[BANK0 ] unsigned int 
  9038 ;; Registers used:
  9039 ;;		wreg, status,2, status,0, btemp+1, pclath, cstack
  9040 ;; Tracked objects:
  9041 ;;		On entry : 0/0
  9042 ;;		On exit  : 0/0
  9043 ;;		Unchanged: 0/0
  9044 ;; Data sizes:     COMMON   BANK0   BANK1   BANK3   BANK2
  9045 ;;      Params:         0       2       0       0       0
  9046 ;;      Locals:         0       4       0       0       0
  9047 ;;      Temps:          0       4       0       0       0
  9048 ;;      Totals:         0      10       0       0       0
  9049 ;;Total ram usage:       10 bytes
  9050 ;; Hardware stack levels used:    1
  9051 ;; Hardware stack levels required when called:    2
  9052 ;; This function calls:
  9053 ;;		___flmul
  9054 ;;		i1___fldiv
  9055 ;;		i1___fltol
  9056 ;;		i1___xxtofl
  9057 ;; This function is called by:
  9058 ;;		_Dong
  9059 ;;		_Mo
  9060 ;; This function uses a non-reentrant model
  9061 ;;
  9062                           
  9063                           
  9064                           ;psect for function _DC_cal
  9065  1F4D                     _DC_cal:
  9066  1F4D                     i1l3372:	
  9067                           ;incstack = 0
  9068                           ; Regs used in _DC_cal: [wreg+status,2+status,0+btemp+1+pclath+cstack]
  9069                           
  9070                           
  9071                           ;./moto.h: 25:     return ((float)16000000/(float)Fpwm)*((float)DC/(float)100)/ps;
  9072  1F4D  304B               	movlw	75
  9073  1F4E  1283               	bcf	3,5	;RP0=0, select bank0
  9074  1F4F  1303               	bcf	3,6	;RP1=0, select bank0
  9075  1F50  00A7               	movwf	i1___fldiv@b+3
  9076  1F51  3074               	movlw	116
  9077  1F52  00A6               	movwf	i1___fldiv@b+2
  9078  1F53  3024               	movlw	36
  9079  1F54  00A5               	movwf	i1___fldiv@b+1
  9080  1F55  3000               	movlw	0
  9081  1F56  00A4               	movwf	i1___fldiv@b
  9082  1F57  1683               	bsf	3,5	;RP0=1, select bank3
  9083  1F58  1703               	bsf	3,6	;RP1=1, select bank3
  9084  1F59  0848               	movf	(_Fpwm+3)^(0+384),w
  9085  1F5A  00F3               	movwf	i1___xxtofl@val+3
  9086  1F5B  0847               	movf	(_Fpwm+2)^(0+384),w
  9087  1F5C  00F2               	movwf	i1___xxtofl@val+2
  9088  1F5D  0846               	movf	(_Fpwm+1)^(0+384),w
  9089  1F5E  00F1               	movwf	i1___xxtofl@val+1
  9090  1F5F  0845               	movf	_Fpwm^(0+384),w
  9091  1F60  00F0               	movwf	i1___xxtofl@val
  9092  1F61  3000               	movlw	0
  9093  1F62  160A  118A  202C  160A  158A  	fcall	i1___xxtofl
  9094  1F67  0873               	movf	?i1___xxtofl+3,w
  9095  1F68  1283               	bcf	3,5	;RP0=0, select bank0
  9096  1F69  1303               	bcf	3,6	;RP1=0, select bank0
  9097  1F6A  00A3               	movwf	i1___fldiv@a+3
  9098  1F6B  0872               	movf	?i1___xxtofl+2,w
  9099  1F6C  00A2               	movwf	i1___fldiv@a+2
  9100  1F6D  0871               	movf	?i1___xxtofl+1,w
  9101  1F6E  00A1               	movwf	i1___fldiv@a+1
  9102  1F6F  0870               	movf	?i1___xxtofl,w
  9103  1F70  00A0               	movwf	i1___fldiv@a
  9104  1F71  160A  118A  23A5  160A  158A  	fcall	i1___fldiv
  9105  1F76  1283               	bcf	3,5	;RP0=0, select bank0
  9106  1F77  1303               	bcf	3,6	;RP1=0, select bank0
  9107  1F78  0823               	movf	?i1___fldiv+3,w
  9108  1F79  00C1               	movwf	___flmul@a+3
  9109  1F7A  0822               	movf	?i1___fldiv+2,w
  9110  1F7B  00C0               	movwf	___flmul@a+2
  9111  1F7C  0821               	movf	?i1___fldiv+1,w
  9112  1F7D  00BF               	movwf	___flmul@a+1
  9113  1F7E  0820               	movf	?i1___fldiv,w
  9114  1F7F  00BE               	movwf	___flmul@a
  9115  1F80  0854               	movf	DC_cal@DC,w
  9116  1F81  00F0               	movwf	i1___xxtofl@val
  9117  1F82  0855               	movf	DC_cal@DC+1,w
  9118  1F83  00F1               	movwf	i1___xxtofl@val+1
  9119  1F84  01F2               	clrf	i1___xxtofl@val+2
  9120  1F85  01F3               	clrf	i1___xxtofl@val+3
  9121  1F86  3000               	movlw	0
  9122  1F87  160A  118A  202C  160A  158A  	fcall	i1___xxtofl
  9123  1F8C  0873               	movf	?i1___xxtofl+3,w
  9124  1F8D  1283               	bcf	3,5	;RP0=0, select bank0
  9125  1F8E  1303               	bcf	3,6	;RP1=0, select bank0
  9126  1F8F  00A7               	movwf	i1___fldiv@b+3
  9127  1F90  0872               	movf	?i1___xxtofl+2,w
  9128  1F91  00A6               	movwf	i1___fldiv@b+2
  9129  1F92  0871               	movf	?i1___xxtofl+1,w
  9130  1F93  00A5               	movwf	i1___fldiv@b+1
  9131  1F94  0870               	movf	?i1___xxtofl,w
  9132  1F95  00A4               	movwf	i1___fldiv@b
  9133  1F96  3042               	movlw	66
  9134  1F97  00A3               	movwf	i1___fldiv@a+3
  9135  1F98  30C8               	movlw	200
  9136  1F99  00A2               	movwf	i1___fldiv@a+2
  9137  1F9A  3000               	movlw	0
  9138  1F9B  00A1               	movwf	i1___fldiv@a+1
  9139  1F9C  3000               	movlw	0
  9140  1F9D  00A0               	movwf	i1___fldiv@a
  9141  1F9E  160A  118A  23A5  160A  158A  	fcall	i1___fldiv
  9142  1FA3  1283               	bcf	3,5	;RP0=0, select bank0
  9143  1FA4  1303               	bcf	3,6	;RP1=0, select bank0
  9144  1FA5  0823               	movf	?i1___fldiv+3,w
  9145  1FA6  00BD               	movwf	___flmul@b+3
  9146  1FA7  0822               	movf	?i1___fldiv+2,w
  9147  1FA8  00BC               	movwf	___flmul@b+2
  9148  1FA9  0821               	movf	?i1___fldiv+1,w
  9149  1FAA  00BB               	movwf	___flmul@b+1
  9150  1FAB  0820               	movf	?i1___fldiv,w
  9151  1FAC  00BA               	movwf	___flmul@b
  9152  1FAD  120A  158A  249F  160A  158A  	fcall	___flmul
  9153  1FB2  1283               	bcf	3,5	;RP0=0, select bank0
  9154  1FB3  1303               	bcf	3,6	;RP1=0, select bank0
  9155  1FB4  083D               	movf	?___flmul+3,w
  9156  1FB5  00DD               	movwf	_DC_cal$915+3
  9157  1FB6  083C               	movf	?___flmul+2,w
  9158  1FB7  00DC               	movwf	_DC_cal$915+2
  9159  1FB8  083B               	movf	?___flmul+1,w
  9160  1FB9  00DB               	movwf	_DC_cal$915+1
  9161  1FBA  083A               	movf	?___flmul,w
  9162  1FBB  00DA               	movwf	_DC_cal$915
  9163                           
  9164                           ;./moto.h: 25:     return ((float)16000000/(float)Fpwm)*((float)DC/(float)100)/ps;
  9165  1FBC  085D               	movf	_DC_cal$915+3,w
  9166  1FBD  00A7               	movwf	i1___fldiv@b+3
  9167  1FBE  085C               	movf	_DC_cal$915+2,w
  9168  1FBF  00A6               	movwf	i1___fldiv@b+2
  9169  1FC0  085B               	movf	_DC_cal$915+1,w
  9170  1FC1  00A5               	movwf	i1___fldiv@b+1
  9171  1FC2  085A               	movf	_DC_cal$915,w
  9172  1FC3  00A4               	movwf	i1___fldiv@b
  9173  1FC4  1683               	bsf	3,5	;RP0=1, select bank1
  9174  1FC5  1303               	bcf	3,6	;RP1=0, select bank1
  9175  1FC6  086E               	movf	_ps^(0+128),w
  9176  1FC7  1283               	bcf	3,5	;RP0=0, select bank0
  9177  1FC8  1303               	bcf	3,6	;RP1=0, select bank0
  9178  1FC9  00D6               	movwf	??_DC_cal
  9179  1FCA  01D7               	clrf	??_DC_cal+1
  9180  1FCB  01D8               	clrf	??_DC_cal+2
  9181  1FCC  01D9               	clrf	??_DC_cal+3
  9182  1FCD  0859               	movf	??_DC_cal+3,w
  9183  1FCE  00F3               	movwf	i1___xxtofl@val+3
  9184  1FCF  0858               	movf	??_DC_cal+2,w
  9185  1FD0  00F2               	movwf	i1___xxtofl@val+2
  9186  1FD1  0857               	movf	??_DC_cal+1,w
  9187  1FD2  00F1               	movwf	i1___xxtofl@val+1
  9188  1FD3  0856               	movf	??_DC_cal,w
  9189  1FD4  00F0               	movwf	i1___xxtofl@val
  9190  1FD5  3001               	movlw	1
  9191  1FD6  160A  118A  202C  160A  158A  	fcall	i1___xxtofl
  9192  1FDB  0873               	movf	?i1___xxtofl+3,w
  9193  1FDC  1283               	bcf	3,5	;RP0=0, select bank0
  9194  1FDD  1303               	bcf	3,6	;RP1=0, select bank0
  9195  1FDE  00A3               	movwf	i1___fldiv@a+3
  9196  1FDF  0872               	movf	?i1___xxtofl+2,w
  9197  1FE0  00A2               	movwf	i1___fldiv@a+2
  9198  1FE1  0871               	movf	?i1___xxtofl+1,w
  9199  1FE2  00A1               	movwf	i1___fldiv@a+1
  9200  1FE3  0870               	movf	?i1___xxtofl,w
  9201  1FE4  00A0               	movwf	i1___fldiv@a
  9202  1FE5  160A  118A  23A5  160A  158A  	fcall	i1___fldiv
  9203  1FEA  1283               	bcf	3,5	;RP0=0, select bank0
  9204  1FEB  1303               	bcf	3,6	;RP1=0, select bank0
  9205  1FEC  0823               	movf	?i1___fldiv+3,w
  9206  1FED  00BD               	movwf	i1___fltol@f1+3
  9207  1FEE  0822               	movf	?i1___fldiv+2,w
  9208  1FEF  00BC               	movwf	i1___fltol@f1+2
  9209  1FF0  0821               	movf	?i1___fldiv+1,w
  9210  1FF1  00BB               	movwf	i1___fltol@f1+1
  9211  1FF2  0820               	movf	?i1___fldiv,w
  9212  1FF3  00BA               	movwf	i1___fltol@f1
  9213  1FF4  160A  158A  2655  160A  158A  	fcall	i1___fltol
  9214  1FF9  1283               	bcf	3,5	;RP0=0, select bank0
  9215  1FFA  1303               	bcf	3,6	;RP1=0, select bank0
  9216  1FFB  083B               	movf	?i1___fltol+1,w
  9217  1FFC  00D5               	movwf	?_DC_cal+1
  9218  1FFD  083A               	movf	?i1___fltol,w
  9219  1FFE  00D4               	movwf	?_DC_cal
  9220  1FFF                     i1l284:
  9221  1FFF  0008               	return
  9222  2000                     __end_of_DC_cal:
  9223                           
  9224                           	psect	text27
  9225  102C                     __ptext27:	
  9226 ;; *************** function i1___xxtofl *****************
  9227 ;; Defined at:
  9228 ;;		line 10 in file "C:\Program Files\Microchip\xc8\v2.30\pic\sources\c90\common\xxtofl.c"
  9229 ;; Parameters:    Size  Location     Type
  9230 ;;  sign            1    wreg     unsigned char 
  9231 ;;  val             4    0[COMMON] long 
  9232 ;; Auto vars:     Size  Location     Type
  9233 ;;  sign            1    8[COMMON] unsigned char 
  9234 ;;  arg             4   10[COMMON] unsigned long 
  9235 ;;  exp             1    9[COMMON] unsigned char 
  9236 ;; Return value:  Size  Location     Type
  9237 ;;                  4    0[COMMON] unsigned char 
  9238 ;; Registers used:
  9239 ;;		wreg, status,2, status,0
  9240 ;; Tracked objects:
  9241 ;;		On entry : 0/0
  9242 ;;		On exit  : 0/0
  9243 ;;		Unchanged: 0/0
  9244 ;; Data sizes:     COMMON   BANK0   BANK1   BANK3   BANK2
  9245 ;;      Params:         4       0       0       0       0
  9246 ;;      Locals:         6       0       0       0       0
  9247 ;;      Temps:          4       0       0       0       0
  9248 ;;      Totals:        14       0       0       0       0
  9249 ;;Total ram usage:       14 bytes
  9250 ;; Hardware stack levels used:    1
  9251 ;; This function calls:
  9252 ;;		Nothing
  9253 ;; This function is called by:
  9254 ;;		_DC_cal
  9255 ;; This function uses a non-reentrant model
  9256 ;;
  9257                           
  9258                           
  9259                           ;psect for function i1___xxtofl
  9260  102C                     i1___xxtofl:
  9261                           
  9262                           ;incstack = 0
  9263                           ; Regs used in i1___xxtofl: [wreg+status,2+status,0]
  9264                           ;i1___xxtofl@sign stored from wreg
  9265  102C  00F8               	movwf	i1___xxtofl@sign
  9266  102D                     i1l3148:
  9267  102D  0878               	movf	i1___xxtofl@sign,w
  9268  102E  1903               	btfsc	3,2
  9269  102F  2831               	goto	u450_21
  9270  1030  2832               	goto	u450_20
  9271  1031                     u450_21:
  9272  1031  2846               	goto	i1l3154
  9273  1032                     u450_20:
  9274  1032                     i1l3150:
  9275  1032  1FF3               	btfss	i1___xxtofl@val+3,7
  9276  1033  2835               	goto	u451_21
  9277  1034  2836               	goto	u451_20
  9278  1035                     u451_21:
  9279  1035  2846               	goto	i1l3154
  9280  1036                     u451_20:
  9281  1036                     i1l3152:
  9282  1036  0970               	comf	i1___xxtofl@val,w
  9283  1037  00FA               	movwf	i1___xxtofl@arg
  9284  1038  0971               	comf	i1___xxtofl@val+1,w
  9285  1039  00FB               	movwf	i1___xxtofl@arg+1
  9286  103A  0972               	comf	i1___xxtofl@val+2,w
  9287  103B  00FC               	movwf	i1___xxtofl@arg+2
  9288  103C  0973               	comf	i1___xxtofl@val+3,w
  9289  103D  00FD               	movwf	i1___xxtofl@arg+3
  9290  103E  0AFA               	incf	i1___xxtofl@arg,f
  9291  103F  1903               	skipnz
  9292  1040  0AFB               	incf	i1___xxtofl@arg+1,f
  9293  1041  1903               	skipnz
  9294  1042  0AFC               	incf	i1___xxtofl@arg+2,f
  9295  1043  1903               	skipnz
  9296  1044  0AFD               	incf	i1___xxtofl@arg+3,f
  9297  1045  284E               	goto	i1l907
  9298  1046                     i1l3154:
  9299  1046  0873               	movf	i1___xxtofl@val+3,w
  9300  1047  00FD               	movwf	i1___xxtofl@arg+3
  9301  1048  0872               	movf	i1___xxtofl@val+2,w
  9302  1049  00FC               	movwf	i1___xxtofl@arg+2
  9303  104A  0871               	movf	i1___xxtofl@val+1,w
  9304  104B  00FB               	movwf	i1___xxtofl@arg+1
  9305  104C  0870               	movf	i1___xxtofl@val,w
  9306  104D  00FA               	movwf	i1___xxtofl@arg
  9307  104E                     i1l907:
  9308  104E  0873               	movf	i1___xxtofl@val+3,w
  9309  104F  0472               	iorwf	i1___xxtofl@val+2,w
  9310  1050  0471               	iorwf	i1___xxtofl@val+1,w
  9311  1051  0470               	iorwf	i1___xxtofl@val,w
  9312  1052  1D03               	skipz
  9313  1053  2855               	goto	u452_21
  9314  1054  2856               	goto	u452_20
  9315  1055                     u452_21:
  9316  1055  285F               	goto	i1l3160
  9317  1056                     u452_20:
  9318  1056                     i1l3156:
  9319  1056  3000               	movlw	0
  9320  1057  00F3               	movwf	?i1___xxtofl+3
  9321  1058  3000               	movlw	0
  9322  1059  00F2               	movwf	?i1___xxtofl+2
  9323  105A  3000               	movlw	0
  9324  105B  00F1               	movwf	?i1___xxtofl+1
  9325  105C  3000               	movlw	0
  9326  105D  00F0               	movwf	?i1___xxtofl
  9327  105E  28E5               	goto	i1l909
  9328  105F                     i1l3160:
  9329  105F  3096               	movlw	150
  9330  1060  00F4               	movwf	??i1___xxtofl
  9331  1061  0874               	movf	??i1___xxtofl,w
  9332  1062  00F9               	movwf	i1___xxtofl@exp
  9333  1063  2871               	goto	i1l3164
  9334  1064                     i1l3162:
  9335  1064  3001               	movlw	1
  9336  1065  00F4               	movwf	??i1___xxtofl
  9337  1066  0874               	movf	??i1___xxtofl,w
  9338  1067  07F9               	addwf	i1___xxtofl@exp,f
  9339  1068  3001               	movlw	1
  9340  1069                     u453_25:
  9341  1069  1003               	clrc
  9342  106A  0CFD               	rrf	i1___xxtofl@arg+3,f
  9343  106B  0CFC               	rrf	i1___xxtofl@arg+2,f
  9344  106C  0CFB               	rrf	i1___xxtofl@arg+1,f
  9345  106D  0CFA               	rrf	i1___xxtofl@arg,f
  9346  106E  3EFF               	addlw	-1
  9347  106F  1D03               	skipz
  9348  1070  2869               	goto	u453_25
  9349  1071                     i1l3164:
  9350  1071  30FE               	movlw	254
  9351  1072  057D               	andwf	i1___xxtofl@arg+3,w
  9352  1073  1D03               	btfss	3,2
  9353  1074  2876               	goto	u454_21
  9354  1075  2877               	goto	u454_20
  9355  1076                     u454_21:
  9356  1076  2864               	goto	i1l3162
  9357  1077                     u454_20:
  9358  1077  2893               	goto	i1l913
  9359  1078                     i1l3166:
  9360  1078  3001               	movlw	1
  9361  1079  00F4               	movwf	??i1___xxtofl
  9362  107A  0874               	movf	??i1___xxtofl,w
  9363  107B  07F9               	addwf	i1___xxtofl@exp,f
  9364  107C                     i1l3168:
  9365  107C  3001               	movlw	1
  9366  107D  07FA               	addwf	i1___xxtofl@arg,f
  9367  107E  3000               	movlw	0
  9368  107F  1803               	skipnc
  9369  1080  3001               	movlw	1
  9370  1081  07FB               	addwf	i1___xxtofl@arg+1,f
  9371  1082  3000               	movlw	0
  9372  1083  1803               	skipnc
  9373  1084  3001               	movlw	1
  9374  1085  07FC               	addwf	i1___xxtofl@arg+2,f
  9375  1086  3000               	movlw	0
  9376  1087  1803               	skipnc
  9377  1088  3001               	movlw	1
  9378  1089  07FD               	addwf	i1___xxtofl@arg+3,f
  9379  108A                     i1l3170:
  9380  108A  3001               	movlw	1
  9381  108B                     u455_25:
  9382  108B  1003               	clrc
  9383  108C  0CFD               	rrf	i1___xxtofl@arg+3,f
  9384  108D  0CFC               	rrf	i1___xxtofl@arg+2,f
  9385  108E  0CFB               	rrf	i1___xxtofl@arg+1,f
  9386  108F  0CFA               	rrf	i1___xxtofl@arg,f
  9387  1090  3EFF               	addlw	-1
  9388  1091  1D03               	skipz
  9389  1092  288B               	goto	u455_25
  9390  1093                     i1l913:
  9391  1093  30FF               	movlw	255
  9392  1094  057D               	andwf	i1___xxtofl@arg+3,w
  9393  1095  1D03               	btfss	3,2
  9394  1096  2898               	goto	u456_21
  9395  1097  2899               	goto	u456_20
  9396  1098                     u456_21:
  9397  1098  2878               	goto	i1l3166
  9398  1099                     u456_20:
  9399  1099  28A5               	goto	i1l3174
  9400  109A                     i1l3172:
  9401  109A  3001               	movlw	1
  9402  109B  02F9               	subwf	i1___xxtofl@exp,f
  9403  109C  3001               	movlw	1
  9404  109D  00F4               	movwf	??i1___xxtofl
  9405  109E                     u457_25:
  9406  109E  1003               	clrc
  9407  109F  0DFA               	rlf	i1___xxtofl@arg,f
  9408  10A0  0DFB               	rlf	i1___xxtofl@arg+1,f
  9409  10A1  0DFC               	rlf	i1___xxtofl@arg+2,f
  9410  10A2  0DFD               	rlf	i1___xxtofl@arg+3,f
  9411  10A3  0BF4               	decfsz	??i1___xxtofl,f
  9412  10A4  289E               	goto	u457_25
  9413  10A5                     i1l3174:
  9414  10A5  1BFC               	btfsc	i1___xxtofl@arg+2,7
  9415  10A6  28A8               	goto	u458_21
  9416  10A7  28A9               	goto	u458_20
  9417  10A8                     u458_21:
  9418  10A8  28AF               	goto	i1l920
  9419  10A9                     u458_20:
  9420  10A9                     i1l3176:
  9421  10A9  3002               	movlw	2
  9422  10AA  0279               	subwf	i1___xxtofl@exp,w
  9423  10AB  1803               	skipnc
  9424  10AC  28AE               	goto	u459_21
  9425  10AD  28AF               	goto	u459_20
  9426  10AE                     u459_21:
  9427  10AE  289A               	goto	i1l3172
  9428  10AF                     u459_20:
  9429  10AF                     i1l920:
  9430  10AF  1879               	btfsc	i1___xxtofl@exp,0
  9431  10B0  28B2               	goto	u460_21
  9432  10B1  28B3               	goto	u460_20
  9433  10B2                     u460_21:
  9434  10B2  28BB               	goto	i1l921
  9435  10B3                     u460_20:
  9436  10B3                     i1l3178:
  9437  10B3  30FF               	movlw	255
  9438  10B4  05FA               	andwf	i1___xxtofl@arg,f
  9439  10B5  30FF               	movlw	255
  9440  10B6  05FB               	andwf	i1___xxtofl@arg+1,f
  9441  10B7  307F               	movlw	127
  9442  10B8  05FC               	andwf	i1___xxtofl@arg+2,f
  9443  10B9  30FF               	movlw	255
  9444  10BA  05FD               	andwf	i1___xxtofl@arg+3,f
  9445  10BB                     i1l921:
  9446  10BB  1003               	clrc
  9447  10BC  0CF9               	rrf	i1___xxtofl@exp,f
  9448  10BD                     i1l3180:
  9449  10BD  0879               	movf	i1___xxtofl@exp,w
  9450  10BE  00F4               	movwf	??i1___xxtofl
  9451  10BF  01F5               	clrf	??i1___xxtofl+1
  9452  10C0  01F6               	clrf	??i1___xxtofl+2
  9453  10C1  01F7               	clrf	??i1___xxtofl+3
  9454  10C2  3018               	movlw	24
  9455  10C3                     u461_25:
  9456  10C3  1003               	clrc
  9457  10C4  0DF4               	rlf	??i1___xxtofl,f
  9458  10C5  0DF5               	rlf	??i1___xxtofl+1,f
  9459  10C6  0DF6               	rlf	??i1___xxtofl+2,f
  9460  10C7  0DF7               	rlf	??i1___xxtofl+3,f
  9461  10C8                     u461_20:
  9462  10C8  3EFF               	addlw	-1
  9463  10C9  1D03               	skipz
  9464  10CA  28C3               	goto	u461_25
  9465  10CB  0874               	movf	??i1___xxtofl,w
  9466  10CC  04FA               	iorwf	i1___xxtofl@arg,f
  9467  10CD  0875               	movf	??i1___xxtofl+1,w
  9468  10CE  04FB               	iorwf	i1___xxtofl@arg+1,f
  9469  10CF  0876               	movf	??i1___xxtofl+2,w
  9470  10D0  04FC               	iorwf	i1___xxtofl@arg+2,f
  9471  10D1  0877               	movf	??i1___xxtofl+3,w
  9472  10D2  04FD               	iorwf	i1___xxtofl@arg+3,f
  9473  10D3                     i1l3182:
  9474  10D3  0878               	movf	i1___xxtofl@sign,w
  9475  10D4  1903               	btfsc	3,2
  9476  10D5  28D7               	goto	u462_21
  9477  10D6  28D8               	goto	u462_20
  9478  10D7                     u462_21:
  9479  10D7  28DD               	goto	i1l3188
  9480  10D8                     u462_20:
  9481  10D8                     i1l3184:
  9482  10D8  1FF3               	btfss	i1___xxtofl@val+3,7
  9483  10D9  28DB               	goto	u463_21
  9484  10DA  28DC               	goto	u463_20
  9485  10DB                     u463_21:
  9486  10DB  28DD               	goto	i1l3188
  9487  10DC                     u463_20:
  9488  10DC                     i1l3186:
  9489  10DC  17FD               	bsf	i1___xxtofl@arg+3,7
  9490  10DD                     i1l3188:
  9491  10DD  087D               	movf	i1___xxtofl@arg+3,w
  9492  10DE  00F3               	movwf	?i1___xxtofl+3
  9493  10DF  087C               	movf	i1___xxtofl@arg+2,w
  9494  10E0  00F2               	movwf	?i1___xxtofl+2
  9495  10E1  087B               	movf	i1___xxtofl@arg+1,w
  9496  10E2  00F1               	movwf	?i1___xxtofl+1
  9497  10E3  087A               	movf	i1___xxtofl@arg,w
  9498  10E4  00F0               	movwf	?i1___xxtofl
  9499  10E5                     i1l909:
  9500  10E5  0008               	return
  9501  10E6                     __end_ofi1___xxtofl:
  9502                           
  9503                           	psect	text28
  9504  1E55                     __ptext28:	
  9505 ;; *************** function i1___fltol *****************
  9506 ;; Defined at:
  9507 ;;		line 43 in file "C:\Program Files\Microchip\xc8\v2.30\pic\sources\c90\common\fltol.c"
  9508 ;; Parameters:    Size  Location     Type
  9509 ;;  f1              4   26[BANK0 ] unsigned char 
  9510 ;; Auto vars:     Size  Location     Type
  9511 ;;  exp1            1   36[BANK0 ] unsigned char 
  9512 ;;  sign1           1   35[BANK0 ] unsigned char 
  9513 ;; Return value:  Size  Location     Type
  9514 ;;                  4   26[BANK0 ] long 
  9515 ;; Registers used:
  9516 ;;		wreg, status,2, status,0
  9517 ;; Tracked objects:
  9518 ;;		On entry : 0/0
  9519 ;;		On exit  : 0/0
  9520 ;;		Unchanged: 0/0
  9521 ;; Data sizes:     COMMON   BANK0   BANK1   BANK3   BANK2
  9522 ;;      Params:         0       4       0       0       0
  9523 ;;      Locals:         0       2       0       0       0
  9524 ;;      Temps:          0       5       0       0       0
  9525 ;;      Totals:         0      11       0       0       0
  9526 ;;Total ram usage:       11 bytes
  9527 ;; Hardware stack levels used:    1
  9528 ;; This function calls:
  9529 ;;		Nothing
  9530 ;; This function is called by:
  9531 ;;		_DC_cal
  9532 ;; This function uses a non-reentrant model
  9533 ;;
  9534                           
  9535                           
  9536                           ;psect for function i1___fltol
  9537  1E55                     i1___fltol:
  9538  1E55                     i1l2970:	
  9539                           ;incstack = 0
  9540                           ; Regs used in i1___fltol: [wreg+status,2+status,0]
  9541                           
  9542  1E55  1003               	clrc
  9543  1E56  1283               	bcf	3,5	;RP0=0, select bank0
  9544  1E57  1303               	bcf	3,6	;RP1=0, select bank0
  9545  1E58  0D3C               	rlf	i1___fltol@f1+2,w
  9546  1E59  0D3D               	rlf	i1___fltol@f1+3,w
  9547  1E5A  00BE               	movwf	??i1___fltol
  9548  1E5B  083E               	movf	??i1___fltol,w
  9549  1E5C  00C4               	movwf	i1___fltol@exp1
  9550  1E5D  0844               	movf	i1___fltol@exp1,w
  9551  1E5E  1D03               	btfss	3,2
  9552  1E5F  2E61               	goto	u411_21
  9553  1E60  2E62               	goto	u411_20
  9554  1E61                     u411_21:
  9555  1E61  2E6B               	goto	i1l2976
  9556  1E62                     u411_20:
  9557  1E62                     i1l2972:
  9558  1E62  3000               	movlw	0
  9559  1E63  00BD               	movwf	?i1___fltol+3
  9560  1E64  3000               	movlw	0
  9561  1E65  00BC               	movwf	?i1___fltol+2
  9562  1E66  3000               	movlw	0
  9563  1E67  00BB               	movwf	?i1___fltol+1
  9564  1E68  3000               	movlw	0
  9565  1E69  00BA               	movwf	?i1___fltol
  9566  1E6A  2ED0               	goto	i1l660
  9567  1E6B                     i1l2976:
  9568  1E6B  083A               	movf	i1___fltol@f1,w
  9569  1E6C  00BE               	movwf	??i1___fltol
  9570  1E6D  083B               	movf	i1___fltol@f1+1,w
  9571  1E6E  00BF               	movwf	??i1___fltol+1
  9572  1E6F  083C               	movf	i1___fltol@f1+2,w
  9573  1E70  00C0               	movwf	??i1___fltol+2
  9574  1E71  083D               	movf	i1___fltol@f1+3,w
  9575  1E72  00C1               	movwf	??i1___fltol+3
  9576  1E73  301F               	movlw	31
  9577  1E74                     u412_25:
  9578  1E74  1003               	clrc
  9579  1E75  0CC1               	rrf	??i1___fltol+3,f
  9580  1E76  0CC0               	rrf	??i1___fltol+2,f
  9581  1E77  0CBF               	rrf	??i1___fltol+1,f
  9582  1E78  0CBE               	rrf	??i1___fltol,f
  9583  1E79                     u412_20:
  9584  1E79  3EFF               	addlw	-1
  9585  1E7A  1D03               	skipz
  9586  1E7B  2E74               	goto	u412_25
  9587  1E7C  083E               	movf	??i1___fltol,w
  9588  1E7D  00C2               	movwf	??i1___fltol+4
  9589  1E7E  0842               	movf	??i1___fltol+4,w
  9590  1E7F  00C3               	movwf	i1___fltol@sign1
  9591  1E80                     i1l2978:
  9592  1E80  17BC               	bsf	i1___fltol@f1+2,7
  9593  1E81                     i1l2980:
  9594  1E81  30FF               	movlw	255
  9595  1E82  05BA               	andwf	i1___fltol@f1,f
  9596  1E83  30FF               	movlw	255
  9597  1E84  05BB               	andwf	i1___fltol@f1+1,f
  9598  1E85  30FF               	movlw	255
  9599  1E86  05BC               	andwf	i1___fltol@f1+2,f
  9600  1E87  3000               	movlw	0
  9601  1E88  05BD               	andwf	i1___fltol@f1+3,f
  9602  1E89                     i1l2982:
  9603  1E89  3096               	movlw	150
  9604  1E8A  02C4               	subwf	i1___fltol@exp1,f
  9605  1E8B                     i1l2984:
  9606  1E8B  1FC4               	btfss	i1___fltol@exp1,7
  9607  1E8C  2E8E               	goto	u413_21
  9608  1E8D  2E8F               	goto	u413_20
  9609  1E8E                     u413_21:
  9610  1E8E  2EA9               	goto	i1l2994
  9611  1E8F                     u413_20:
  9612  1E8F                     i1l2986:
  9613  1E8F  0844               	movf	i1___fltol@exp1,w
  9614  1E90  3A80               	xorlw	128
  9615  1E91  3E97               	addlw	151
  9616  1E92  1803               	skipnc
  9617  1E93  2E95               	goto	u414_21
  9618  1E94  2E96               	goto	u414_20
  9619  1E95                     u414_21:
  9620  1E95  2E97               	goto	i1l2992
  9621  1E96                     u414_20:
  9622  1E96  2E62               	goto	i1l2972
  9623  1E97                     i1l2992:
  9624  1E97  3001               	movlw	1
  9625  1E98                     u415_25:
  9626  1E98  1003               	clrc
  9627  1E99  0CBD               	rrf	i1___fltol@f1+3,f
  9628  1E9A  0CBC               	rrf	i1___fltol@f1+2,f
  9629  1E9B  0CBB               	rrf	i1___fltol@f1+1,f
  9630  1E9C  0CBA               	rrf	i1___fltol@f1,f
  9631  1E9D  3EFF               	addlw	-1
  9632  1E9E  1D03               	skipz
  9633  1E9F  2E98               	goto	u415_25
  9634  1EA0  3001               	movlw	1
  9635  1EA1  00BE               	movwf	??i1___fltol
  9636  1EA2  083E               	movf	??i1___fltol,w
  9637  1EA3  07C4               	addwf	i1___fltol@exp1,f
  9638  1EA4  1D03               	btfss	3,2
  9639  1EA5  2EA7               	goto	u416_21
  9640  1EA6  2EA8               	goto	u416_20
  9641  1EA7                     u416_21:
  9642  1EA7  2E97               	goto	i1l2992
  9643  1EA8                     u416_20:
  9644  1EA8  2EC0               	goto	i1l3002
  9645  1EA9                     i1l2994:
  9646  1EA9  3020               	movlw	32
  9647  1EAA  0244               	subwf	i1___fltol@exp1,w
  9648  1EAB  1C03               	skipc
  9649  1EAC  2EAE               	goto	u417_21
  9650  1EAD  2EAF               	goto	u417_20
  9651  1EAE                     u417_21:
  9652  1EAE  2EBB               	goto	i1l667
  9653  1EAF                     u417_20:
  9654  1EAF  2E62               	goto	i1l2972
  9655  1EB0                     i1l3000:
  9656  1EB0  3001               	movlw	1
  9657  1EB1  00BE               	movwf	??i1___fltol
  9658  1EB2                     u418_25:
  9659  1EB2  1003               	clrc
  9660  1EB3  0DBA               	rlf	i1___fltol@f1,f
  9661  1EB4  0DBB               	rlf	i1___fltol@f1+1,f
  9662  1EB5  0DBC               	rlf	i1___fltol@f1+2,f
  9663  1EB6  0DBD               	rlf	i1___fltol@f1+3,f
  9664  1EB7  0BBE               	decfsz	??i1___fltol,f
  9665  1EB8  2EB2               	goto	u418_25
  9666  1EB9  3001               	movlw	1
  9667  1EBA  02C4               	subwf	i1___fltol@exp1,f
  9668  1EBB                     i1l667:
  9669  1EBB  0844               	movf	i1___fltol@exp1,w
  9670  1EBC  1D03               	btfss	3,2
  9671  1EBD  2EBF               	goto	u419_21
  9672  1EBE  2EC0               	goto	u419_20
  9673  1EBF                     u419_21:
  9674  1EBF  2EB0               	goto	i1l3000
  9675  1EC0                     u419_20:
  9676  1EC0                     i1l3002:
  9677  1EC0  0843               	movf	i1___fltol@sign1,w
  9678  1EC1  1903               	btfsc	3,2
  9679  1EC2  2EC4               	goto	u420_21
  9680  1EC3  2EC5               	goto	u420_20
  9681  1EC4                     u420_21:
  9682  1EC4  2ED0               	goto	i1l670
  9683  1EC5                     u420_20:
  9684  1EC5                     i1l3004:
  9685  1EC5  09BA               	comf	i1___fltol@f1,f
  9686  1EC6  09BB               	comf	i1___fltol@f1+1,f
  9687  1EC7  09BC               	comf	i1___fltol@f1+2,f
  9688  1EC8  09BD               	comf	i1___fltol@f1+3,f
  9689  1EC9  0ABA               	incf	i1___fltol@f1,f
  9690  1ECA  1903               	skipnz
  9691  1ECB  0ABB               	incf	i1___fltol@f1+1,f
  9692  1ECC  1903               	skipnz
  9693  1ECD  0ABC               	incf	i1___fltol@f1+2,f
  9694  1ECE  1903               	skipnz
  9695  1ECF  0ABD               	incf	i1___fltol@f1+3,f
  9696  1ED0                     i1l670:
  9697  1ED0                     i1l660:
  9698  1ED0  0008               	return
  9699  1ED1                     __end_ofi1___fltol:
  9700                           
  9701                           	psect	text29
  9702  13A5                     __ptext29:	
  9703 ;; *************** function i1___fldiv *****************
  9704 ;; Defined at:
  9705 ;;		line 8 in file "C:\Program Files\Microchip\xc8\v2.30\pic\sources\c90\common\sprcdiv.c"
  9706 ;; Parameters:    Size  Location     Type
  9707 ;;  a               4    0[BANK0 ] long 
  9708 ;;  b               4    4[BANK0 ] long 
  9709 ;; Auto vars:     Size  Location     Type
  9710 ;;  grs             4   20[BANK0 ] unsigned long 
  9711 ;;  rem             4   13[BANK0 ] unsigned long 
  9712 ;;  new_exp         2   18[BANK0 ] int 
  9713 ;;  aexp            1   25[BANK0 ] unsigned char 
  9714 ;;  bexp            1   24[BANK0 ] unsigned char 
  9715 ;;  sign            1   17[BANK0 ] unsigned char 
  9716 ;; Return value:  Size  Location     Type
  9717 ;;                  4    0[BANK0 ] unsigned char 
  9718 ;; Registers used:
  9719 ;;		wreg, status,2, status,0, btemp+1
  9720 ;; Tracked objects:
  9721 ;;		On entry : 0/0
  9722 ;;		On exit  : 0/0
  9723 ;;		Unchanged: 0/0
  9724 ;; Data sizes:     COMMON   BANK0   BANK1   BANK3   BANK2
  9725 ;;      Params:         0       8       0       0       0
  9726 ;;      Locals:         0      13       0       0       0
  9727 ;;      Temps:          0       5       0       0       0
  9728 ;;      Totals:         0      26       0       0       0
  9729 ;;Total ram usage:       26 bytes
  9730 ;; Hardware stack levels used:    1
  9731 ;; This function calls:
  9732 ;;		Nothing
  9733 ;; This function is called by:
  9734 ;;		_DC_cal
  9735 ;; This function uses a non-reentrant model
  9736 ;;
  9737                           
  9738                           
  9739                           ;psect for function i1___fldiv
  9740  13A5                     i1___fldiv:
  9741  13A5                     i1l3006:	
  9742                           ;incstack = 0
  9743                           ; Regs used in i1___fldiv: [wreg+status,2+status,0+btemp+1]
  9744                           
  9745  13A5  1283               	bcf	3,5	;RP0=0, select bank0
  9746  13A6  1303               	bcf	3,6	;RP1=0, select bank0
  9747  13A7  0827               	movf	i1___fldiv@b+3,w
  9748  13A8  3980               	andlw	128
  9749  13A9  00A8               	movwf	??i1___fldiv
  9750  13AA  0828               	movf	??i1___fldiv,w
  9751  13AB  00B1               	movwf	i1___fldiv@sign
  9752  13AC                     i1l3008:
  9753  13AC  0827               	movf	i1___fldiv@b+3,w
  9754  13AD  00A8               	movwf	??i1___fldiv
  9755  13AE  0728               	addwf	??i1___fldiv,w
  9756  13AF  00A9               	movwf	??i1___fldiv+1
  9757  13B0  0829               	movf	??i1___fldiv+1,w
  9758  13B1  00B8               	movwf	i1___fldiv@bexp
  9759  13B2                     i1l3010:
  9760  13B2  1FA6               	btfss	i1___fldiv@b+2,7
  9761  13B3  2BB5               	goto	u421_21
  9762  13B4  2BB6               	goto	u421_20
  9763  13B5                     u421_21:
  9764  13B5  2BB7               	goto	i1l3014
  9765  13B6                     u421_20:
  9766  13B6                     i1l3012:
  9767  13B6  1438               	bsf	i1___fldiv@bexp,0
  9768  13B7                     i1l3014:
  9769  13B7  0838               	movf	i1___fldiv@bexp,w
  9770  13B8  1903               	btfsc	3,2
  9771  13B9  2BBB               	goto	u422_21
  9772  13BA  2BBC               	goto	u422_20
  9773  13BB                     u422_21:
  9774  13BB  2BCC               	goto	i1l3024
  9775  13BC                     u422_20:
  9776  13BC                     i1l3016:
  9777  13BC  0A38               	incf	i1___fldiv@bexp,w
  9778  13BD  1D03               	btfss	3,2
  9779  13BE  2BC0               	goto	u423_21
  9780  13BF  2BC1               	goto	u423_20
  9781  13C0                     u423_21:
  9782  13C0  2BC9               	goto	i1l3020
  9783  13C1                     u423_20:
  9784  13C1                     i1l3018:
  9785  13C1  3000               	movlw	0
  9786  13C2  00A7               	movwf	i1___fldiv@b+3
  9787  13C3  3000               	movlw	0
  9788  13C4  00A6               	movwf	i1___fldiv@b+2
  9789  13C5  3000               	movlw	0
  9790  13C6  00A5               	movwf	i1___fldiv@b+1
  9791  13C7  3000               	movlw	0
  9792  13C8  00A4               	movwf	i1___fldiv@b
  9793  13C9                     i1l3020:
  9794  13C9  17A6               	bsf	i1___fldiv@b+2,7
  9795  13CA                     i1l3022:
  9796  13CA  01A7               	clrf	i1___fldiv@b+3
  9797  13CB  2BD4               	goto	i1l3026
  9798  13CC                     i1l3024:
  9799  13CC  3000               	movlw	0
  9800  13CD  00A7               	movwf	i1___fldiv@b+3
  9801  13CE  3000               	movlw	0
  9802  13CF  00A6               	movwf	i1___fldiv@b+2
  9803  13D0  3000               	movlw	0
  9804  13D1  00A5               	movwf	i1___fldiv@b+1
  9805  13D2  3000               	movlw	0
  9806  13D3  00A4               	movwf	i1___fldiv@b
  9807  13D4                     i1l3026:
  9808  13D4  0823               	movf	i1___fldiv@a+3,w
  9809  13D5  3980               	andlw	128
  9810  13D6  00A8               	movwf	??i1___fldiv
  9811  13D7  0828               	movf	??i1___fldiv,w
  9812  13D8  06B1               	xorwf	i1___fldiv@sign,f
  9813  13D9                     i1l3028:
  9814  13D9  0823               	movf	i1___fldiv@a+3,w
  9815  13DA  00A8               	movwf	??i1___fldiv
  9816  13DB  0728               	addwf	??i1___fldiv,w
  9817  13DC  00A9               	movwf	??i1___fldiv+1
  9818  13DD  0829               	movf	??i1___fldiv+1,w
  9819  13DE  00B9               	movwf	i1___fldiv@aexp
  9820  13DF                     i1l3030:
  9821  13DF  1FA2               	btfss	i1___fldiv@a+2,7
  9822  13E0  2BE2               	goto	u424_21
  9823  13E1  2BE3               	goto	u424_20
  9824  13E2                     u424_21:
  9825  13E2  2BE4               	goto	i1l3034
  9826  13E3                     u424_20:
  9827  13E3                     i1l3032:
  9828  13E3  1439               	bsf	i1___fldiv@aexp,0
  9829  13E4                     i1l3034:
  9830  13E4  0839               	movf	i1___fldiv@aexp,w
  9831  13E5  1903               	btfsc	3,2
  9832  13E6  2BE8               	goto	u425_21
  9833  13E7  2BE9               	goto	u425_20
  9834  13E8                     u425_21:
  9835  13E8  2BF9               	goto	i1l3044
  9836  13E9                     u425_20:
  9837  13E9                     i1l3036:
  9838  13E9  0A39               	incf	i1___fldiv@aexp,w
  9839  13EA  1D03               	btfss	3,2
  9840  13EB  2BED               	goto	u426_21
  9841  13EC  2BEE               	goto	u426_20
  9842  13ED                     u426_21:
  9843  13ED  2BF6               	goto	i1l3040
  9844  13EE                     u426_20:
  9845  13EE                     i1l3038:
  9846  13EE  3000               	movlw	0
  9847  13EF  00A3               	movwf	i1___fldiv@a+3
  9848  13F0  3000               	movlw	0
  9849  13F1  00A2               	movwf	i1___fldiv@a+2
  9850  13F2  3000               	movlw	0
  9851  13F3  00A1               	movwf	i1___fldiv@a+1
  9852  13F4  3000               	movlw	0
  9853  13F5  00A0               	movwf	i1___fldiv@a
  9854  13F6                     i1l3040:
  9855  13F6  17A2               	bsf	i1___fldiv@a+2,7
  9856  13F7                     i1l3042:
  9857  13F7  01A3               	clrf	i1___fldiv@a+3
  9858  13F8  2C01               	goto	i1l823
  9859  13F9                     i1l3044:
  9860  13F9  3000               	movlw	0
  9861  13FA  00A3               	movwf	i1___fldiv@a+3
  9862  13FB  3000               	movlw	0
  9863  13FC  00A2               	movwf	i1___fldiv@a+2
  9864  13FD  3000               	movlw	0
  9865  13FE  00A1               	movwf	i1___fldiv@a+1
  9866  13FF  3000               	movlw	0
  9867  1400  00A0               	movwf	i1___fldiv@a
  9868  1401                     i1l823:
  9869  1401  0823               	movf	i1___fldiv@a+3,w
  9870  1402  0422               	iorwf	i1___fldiv@a+2,w
  9871  1403  0421               	iorwf	i1___fldiv@a+1,w
  9872  1404  0420               	iorwf	i1___fldiv@a,w
  9873  1405  1D03               	skipz
  9874  1406  2C08               	goto	u427_21
  9875  1407  2C09               	goto	u427_20
  9876  1408                     u427_21:
  9877  1408  2C22               	goto	i1l3054
  9878  1409                     u427_20:
  9879  1409                     i1l3046:
  9880  1409  3000               	movlw	0
  9881  140A  00A7               	movwf	i1___fldiv@b+3
  9882  140B  3000               	movlw	0
  9883  140C  00A6               	movwf	i1___fldiv@b+2
  9884  140D  3000               	movlw	0
  9885  140E  00A5               	movwf	i1___fldiv@b+1
  9886  140F  3000               	movlw	0
  9887  1410  00A4               	movwf	i1___fldiv@b
  9888  1411  3080               	movlw	128
  9889  1412  04A6               	iorwf	i1___fldiv@b+2,f
  9890  1413  307F               	movlw	127
  9891  1414  04A7               	iorwf	i1___fldiv@b+3,f
  9892  1415                     i1l3048:
  9893  1415  0831               	movf	i1___fldiv@sign,w
  9894  1416  00A8               	movwf	??i1___fldiv
  9895  1417  0828               	movf	??i1___fldiv,w
  9896  1418  04A7               	iorwf	i1___fldiv@b+3,f
  9897  1419                     i1l3050:
  9898  1419  0827               	movf	i1___fldiv@b+3,w
  9899  141A  00A3               	movwf	?i1___fldiv+3
  9900  141B  0826               	movf	i1___fldiv@b+2,w
  9901  141C  00A2               	movwf	?i1___fldiv+2
  9902  141D  0825               	movf	i1___fldiv@b+1,w
  9903  141E  00A1               	movwf	?i1___fldiv+1
  9904  141F  0824               	movf	i1___fldiv@b,w
  9905  1420  00A0               	movwf	?i1___fldiv
  9906  1421  2D81               	goto	i1l825
  9907  1422                     i1l3054:
  9908  1422  0838               	movf	i1___fldiv@bexp,w
  9909  1423  1D03               	btfss	3,2
  9910  1424  2C26               	goto	u428_21
  9911  1425  2C27               	goto	u428_20
  9912  1426                     u428_21:
  9913  1426  2C30               	goto	i1l3060
  9914  1427                     u428_20:
  9915  1427                     i1l3056:
  9916  1427  3000               	movlw	0
  9917  1428  00A3               	movwf	?i1___fldiv+3
  9918  1429  3000               	movlw	0
  9919  142A  00A2               	movwf	?i1___fldiv+2
  9920  142B  3000               	movlw	0
  9921  142C  00A1               	movwf	?i1___fldiv+1
  9922  142D  3000               	movlw	0
  9923  142E  00A0               	movwf	?i1___fldiv
  9924  142F  2D81               	goto	i1l825
  9925  1430                     i1l3060:
  9926  1430  0838               	movf	i1___fldiv@bexp,w
  9927  1431  00A8               	movwf	??i1___fldiv
  9928  1432  01A9               	clrf	??i1___fldiv+1
  9929  1433  0829               	movf	??i1___fldiv+1,w
  9930  1434  00AB               	movwf	??i1___fldiv+3
  9931  1435  0839               	movf	i1___fldiv@aexp,w
  9932  1436  0228               	subwf	??i1___fldiv,w
  9933  1437  00AA               	movwf	??i1___fldiv+2
  9934  1438  1C03               	skipc
  9935  1439  03AB               	decf	??i1___fldiv+3,f
  9936  143A  082A               	movf	??i1___fldiv+2,w
  9937  143B  3E7F               	addlw	127
  9938  143C  00B2               	movwf	i1___fldiv@new_exp
  9939  143D  082B               	movf	??i1___fldiv+3,w
  9940  143E  1803               	skipnc
  9941  143F  3E01               	addlw	1
  9942  1440  3E00               	addlw	0
  9943  1441  00B3               	movwf	i1___fldiv@new_exp+1
  9944  1442                     i1l3062:
  9945  1442  0827               	movf	i1___fldiv@b+3,w
  9946  1443  00B0               	movwf	i1___fldiv@rem+3
  9947  1444  0826               	movf	i1___fldiv@b+2,w
  9948  1445  00AF               	movwf	i1___fldiv@rem+2
  9949  1446  0825               	movf	i1___fldiv@b+1,w
  9950  1447  00AE               	movwf	i1___fldiv@rem+1
  9951  1448  0824               	movf	i1___fldiv@b,w
  9952  1449  00AD               	movwf	i1___fldiv@rem
  9953  144A                     i1l3064:
  9954  144A  3000               	movlw	0
  9955  144B  00A7               	movwf	i1___fldiv@b+3
  9956  144C  3000               	movlw	0
  9957  144D  00A6               	movwf	i1___fldiv@b+2
  9958  144E  3000               	movlw	0
  9959  144F  00A5               	movwf	i1___fldiv@b+1
  9960  1450  3000               	movlw	0
  9961  1451  00A4               	movwf	i1___fldiv@b
  9962  1452                     i1l3066:
  9963  1452  3000               	movlw	0
  9964  1453  00B7               	movwf	i1___fldiv@grs+3
  9965  1454  3000               	movlw	0
  9966  1455  00B6               	movwf	i1___fldiv@grs+2
  9967  1456  3000               	movlw	0
  9968  1457  00B5               	movwf	i1___fldiv@grs+1
  9969  1458  3000               	movlw	0
  9970  1459  00B4               	movwf	i1___fldiv@grs
  9971  145A                     i1l3068:
  9972  145A  01B9               	clrf	i1___fldiv@aexp
  9973  145B  2CA6               	goto	i1l3088
  9974  145C                     i1l3070:
  9975  145C  0839               	movf	i1___fldiv@aexp,w
  9976  145D  1903               	btfsc	3,2
  9977  145E  2C60               	goto	u429_21
  9978  145F  2C61               	goto	u429_20
  9979  1460                     u429_21:
  9980  1460  2C81               	goto	i1l3080
  9981  1461                     u429_20:
  9982  1461                     i1l3072:
  9983  1461  3001               	movlw	1
  9984  1462  00A8               	movwf	??i1___fldiv
  9985  1463                     u430_25:
  9986  1463  1003               	clrc
  9987  1464  0DAD               	rlf	i1___fldiv@rem,f
  9988  1465  0DAE               	rlf	i1___fldiv@rem+1,f
  9989  1466  0DAF               	rlf	i1___fldiv@rem+2,f
  9990  1467  0DB0               	rlf	i1___fldiv@rem+3,f
  9991  1468  0BA8               	decfsz	??i1___fldiv,f
  9992  1469  2C63               	goto	u430_25
  9993  146A  3001               	movlw	1
  9994  146B  00A8               	movwf	??i1___fldiv
  9995  146C                     u431_25:
  9996  146C  1003               	clrc
  9997  146D  0DA4               	rlf	i1___fldiv@b,f
  9998  146E  0DA5               	rlf	i1___fldiv@b+1,f
  9999  146F  0DA6               	rlf	i1___fldiv@b+2,f
 10000  1470  0DA7               	rlf	i1___fldiv@b+3,f
 10001  1471  0BA8               	decfsz	??i1___fldiv,f
 10002  1472  2C6C               	goto	u431_25
 10003  1473                     i1l3074:
 10004  1473  1FB7               	btfss	i1___fldiv@grs+3,7
 10005  1474  2C76               	goto	u432_21
 10006  1475  2C77               	goto	u432_20
 10007  1476                     u432_21:
 10008  1476  2C78               	goto	i1l3078
 10009  1477                     u432_20:
 10010  1477                     i1l3076:
 10011  1477  1424               	bsf	i1___fldiv@b,0
 10012  1478                     i1l3078:
 10013  1478  3001               	movlw	1
 10014  1479  00A8               	movwf	??i1___fldiv
 10015  147A                     u433_25:
 10016  147A  1003               	clrc
 10017  147B  0DB4               	rlf	i1___fldiv@grs,f
 10018  147C  0DB5               	rlf	i1___fldiv@grs+1,f
 10019  147D  0DB6               	rlf	i1___fldiv@grs+2,f
 10020  147E  0DB7               	rlf	i1___fldiv@grs+3,f
 10021  147F  0BA8               	decfsz	??i1___fldiv,f
 10022  1480  2C7A               	goto	u433_25
 10023  1481                     i1l3080:
 10024  1481  0823               	movf	i1___fldiv@a+3,w
 10025  1482  0230               	subwf	i1___fldiv@rem+3,w
 10026  1483  1D03               	skipz
 10027  1484  2C8F               	goto	u434_25
 10028  1485  0822               	movf	i1___fldiv@a+2,w
 10029  1486  022F               	subwf	i1___fldiv@rem+2,w
 10030  1487  1D03               	skipz
 10031  1488  2C8F               	goto	u434_25
 10032  1489  0821               	movf	i1___fldiv@a+1,w
 10033  148A  022E               	subwf	i1___fldiv@rem+1,w
 10034  148B  1D03               	skipz
 10035  148C  2C8F               	goto	u434_25
 10036  148D  0820               	movf	i1___fldiv@a,w
 10037  148E  022D               	subwf	i1___fldiv@rem,w
 10038  148F                     u434_25:
 10039  148F  1C03               	skipc
 10040  1490  2C92               	goto	u434_21
 10041  1491  2C93               	goto	u434_20
 10042  1492                     u434_21:
 10043  1492  2CA2               	goto	i1l3086
 10044  1493                     u434_20:
 10045  1493                     i1l3082:
 10046  1493  1737               	bsf	i1___fldiv@grs+3,6
 10047  1494                     i1l3084:
 10048  1494  0820               	movf	i1___fldiv@a,w
 10049  1495  02AD               	subwf	i1___fldiv@rem,f
 10050  1496  0821               	movf	i1___fldiv@a+1,w
 10051  1497  1C03               	skipc
 10052  1498  0F21               	incfsz	i1___fldiv@a+1,w
 10053  1499  02AE               	subwf	i1___fldiv@rem+1,f
 10054  149A  0822               	movf	i1___fldiv@a+2,w
 10055  149B  1C03               	skipc
 10056  149C  0F22               	incfsz	i1___fldiv@a+2,w
 10057  149D  02AF               	subwf	i1___fldiv@rem+2,f
 10058  149E  0823               	movf	i1___fldiv@a+3,w
 10059  149F  1C03               	skipc
 10060  14A0  0F23               	incfsz	i1___fldiv@a+3,w
 10061  14A1  02B0               	subwf	i1___fldiv@rem+3,f
 10062  14A2                     i1l3086:
 10063  14A2  3001               	movlw	1
 10064  14A3  00A8               	movwf	??i1___fldiv
 10065  14A4  0828               	movf	??i1___fldiv,w
 10066  14A5  07B9               	addwf	i1___fldiv@aexp,f
 10067  14A6                     i1l3088:
 10068  14A6  301A               	movlw	26
 10069  14A7  0239               	subwf	i1___fldiv@aexp,w
 10070  14A8  1C03               	skipc
 10071  14A9  2CAB               	goto	u435_21
 10072  14AA  2CAC               	goto	u435_20
 10073  14AB                     u435_21:
 10074  14AB  2C5C               	goto	i1l3070
 10075  14AC                     u435_20:
 10076  14AC                     i1l3090:
 10077  14AC  0830               	movf	i1___fldiv@rem+3,w
 10078  14AD  042F               	iorwf	i1___fldiv@rem+2,w
 10079  14AE  042E               	iorwf	i1___fldiv@rem+1,w
 10080  14AF  042D               	iorwf	i1___fldiv@rem,w
 10081  14B0  1903               	skipnz
 10082  14B1  2CB3               	goto	u436_21
 10083  14B2  2CB4               	goto	u436_20
 10084  14B3                     u436_21:
 10085  14B3  2CD3               	goto	i1l3104
 10086  14B4                     u436_20:
 10087  14B4                     i1l3092:
 10088  14B4  1434               	bsf	i1___fldiv@grs,0
 10089  14B5  2CD3               	goto	i1l3104
 10090  14B6                     i1l3094:
 10091  14B6  3001               	movlw	1
 10092  14B7  00A8               	movwf	??i1___fldiv
 10093  14B8                     u437_25:
 10094  14B8  1003               	clrc
 10095  14B9  0DA4               	rlf	i1___fldiv@b,f
 10096  14BA  0DA5               	rlf	i1___fldiv@b+1,f
 10097  14BB  0DA6               	rlf	i1___fldiv@b+2,f
 10098  14BC  0DA7               	rlf	i1___fldiv@b+3,f
 10099  14BD  0BA8               	decfsz	??i1___fldiv,f
 10100  14BE  2CB8               	goto	u437_25
 10101  14BF                     i1l3096:
 10102  14BF  1FB7               	btfss	i1___fldiv@grs+3,7
 10103  14C0  2CC2               	goto	u438_21
 10104  14C1  2CC3               	goto	u438_20
 10105  14C2                     u438_21:
 10106  14C2  2CC4               	goto	i1l3100
 10107  14C3                     u438_20:
 10108  14C3                     i1l3098:
 10109  14C3  1424               	bsf	i1___fldiv@b,0
 10110  14C4                     i1l3100:
 10111  14C4  3001               	movlw	1
 10112  14C5  00A8               	movwf	??i1___fldiv
 10113  14C6                     u439_25:
 10114  14C6  1003               	clrc
 10115  14C7  0DB4               	rlf	i1___fldiv@grs,f
 10116  14C8  0DB5               	rlf	i1___fldiv@grs+1,f
 10117  14C9  0DB6               	rlf	i1___fldiv@grs+2,f
 10118  14CA  0DB7               	rlf	i1___fldiv@grs+3,f
 10119  14CB  0BA8               	decfsz	??i1___fldiv,f
 10120  14CC  2CC6               	goto	u439_25
 10121  14CD                     i1l3102:
 10122  14CD  30FF               	movlw	255
 10123  14CE  07B2               	addwf	i1___fldiv@new_exp,f
 10124  14CF  1803               	skipnc
 10125  14D0  0AB3               	incf	i1___fldiv@new_exp+1,f
 10126  14D1  30FF               	movlw	255
 10127  14D2  07B3               	addwf	i1___fldiv@new_exp+1,f
 10128  14D3                     i1l3104:
 10129  14D3  1FA6               	btfss	i1___fldiv@b+2,7
 10130  14D4  2CD6               	goto	u440_21
 10131  14D5  2CD7               	goto	u440_20
 10132  14D6                     u440_21:
 10133  14D6  2CB6               	goto	i1l3094
 10134  14D7                     u440_20:
 10135  14D7                     i1l3106:
 10136  14D7  01B9               	clrf	i1___fldiv@aexp
 10137  14D8                     i1l3108:
 10138  14D8  1FB7               	btfss	i1___fldiv@grs+3,7
 10139  14D9  2CDB               	goto	u441_21
 10140  14DA  2CDC               	goto	u441_20
 10141  14DB                     u441_21:
 10142  14DB  2CF8               	goto	i1l3116
 10143  14DC                     u441_20:
 10144  14DC                     i1l3110:
 10145  14DC  30FF               	movlw	255
 10146  14DD  0534               	andwf	i1___fldiv@grs,w
 10147  14DE  00A8               	movwf	??i1___fldiv
 10148  14DF  30FF               	movlw	255
 10149  14E0  0535               	andwf	i1___fldiv@grs+1,w
 10150  14E1  00A9               	movwf	??i1___fldiv+1
 10151  14E2  30FF               	movlw	255
 10152  14E3  0536               	andwf	i1___fldiv@grs+2,w
 10153  14E4  00AA               	movwf	??i1___fldiv+2
 10154  14E5  307F               	movlw	127
 10155  14E6  0537               	andwf	i1___fldiv@grs+3,w
 10156  14E7  00AB               	movwf	??i1___fldiv+3
 10157  14E8  082B               	movf	??i1___fldiv+3,w
 10158  14E9  042A               	iorwf	??i1___fldiv+2,w
 10159  14EA  0429               	iorwf	??i1___fldiv+1,w
 10160  14EB  0428               	iorwf	??i1___fldiv,w
 10161  14EC  1903               	skipnz
 10162  14ED  2CEF               	goto	u442_21
 10163  14EE  2CF0               	goto	u442_20
 10164  14EF                     u442_21:
 10165  14EF  2CF3               	goto	i1l839
 10166  14F0                     u442_20:
 10167  14F0                     i1l3112:
 10168  14F0  01B9               	clrf	i1___fldiv@aexp
 10169  14F1  0AB9               	incf	i1___fldiv@aexp,f
 10170  14F2  2CF8               	goto	i1l3116
 10171  14F3                     i1l839:
 10172  14F3  1C24               	btfss	i1___fldiv@b,0
 10173  14F4  2CF6               	goto	u443_21
 10174  14F5  2CF7               	goto	u443_20
 10175  14F6                     u443_21:
 10176  14F6  2CF8               	goto	i1l3116
 10177  14F7                     u443_20:
 10178  14F7  2CF0               	goto	i1l3112
 10179  14F8                     i1l3116:
 10180  14F8  0839               	movf	i1___fldiv@aexp,w
 10181  14F9  1903               	btfsc	3,2
 10182  14FA  2CFC               	goto	u444_21
 10183  14FB  2CFD               	goto	u444_20
 10184  14FC                     u444_21:
 10185  14FC  2D2E               	goto	i1l3126
 10186  14FD                     u444_20:
 10187  14FD                     i1l3118:
 10188  14FD  3001               	movlw	1
 10189  14FE  07A4               	addwf	i1___fldiv@b,f
 10190  14FF  3000               	movlw	0
 10191  1500  1803               	skipnc
 10192  1501  3001               	movlw	1
 10193  1502  07A5               	addwf	i1___fldiv@b+1,f
 10194  1503  3000               	movlw	0
 10195  1504  1803               	skipnc
 10196  1505  3001               	movlw	1
 10197  1506  07A6               	addwf	i1___fldiv@b+2,f
 10198  1507  3000               	movlw	0
 10199  1508  1803               	skipnc
 10200  1509  3001               	movlw	1
 10201  150A  07A7               	addwf	i1___fldiv@b+3,f
 10202  150B                     i1l3120:
 10203  150B  1C27               	btfss	i1___fldiv@b+3,0
 10204  150C  2D0E               	goto	u445_21
 10205  150D  2D0F               	goto	u445_20
 10206  150E                     u445_21:
 10207  150E  2D2E               	goto	i1l3126
 10208  150F                     u445_20:
 10209  150F                     i1l3122:
 10210  150F  0824               	movf	i1___fldiv@b,w
 10211  1510  00A8               	movwf	??i1___fldiv
 10212  1511  0825               	movf	i1___fldiv@b+1,w
 10213  1512  00A9               	movwf	??i1___fldiv+1
 10214  1513  0826               	movf	i1___fldiv@b+2,w
 10215  1514  00AA               	movwf	??i1___fldiv+2
 10216  1515  0827               	movf	i1___fldiv@b+3,w
 10217  1516  00AB               	movwf	??i1___fldiv+3
 10218  1517  3001               	movlw	1
 10219  1518  00AC               	movwf	??i1___fldiv+4
 10220  1519                     u446_25:
 10221  1519  0D2B               	rlf	??i1___fldiv+3,w
 10222  151A  0CAB               	rrf	??i1___fldiv+3,f
 10223  151B  0CAA               	rrf	??i1___fldiv+2,f
 10224  151C  0CA9               	rrf	??i1___fldiv+1,f
 10225  151D  0CA8               	rrf	??i1___fldiv,f
 10226  151E                     u446_20:
 10227  151E  0BAC               	decfsz	??i1___fldiv+4,f
 10228  151F  2D19               	goto	u446_25
 10229  1520  082B               	movf	??i1___fldiv+3,w
 10230  1521  00A7               	movwf	i1___fldiv@b+3
 10231  1522  082A               	movf	??i1___fldiv+2,w
 10232  1523  00A6               	movwf	i1___fldiv@b+2
 10233  1524  0829               	movf	??i1___fldiv+1,w
 10234  1525  00A5               	movwf	i1___fldiv@b+1
 10235  1526  0828               	movf	??i1___fldiv,w
 10236  1527  00A4               	movwf	i1___fldiv@b
 10237  1528                     i1l3124:
 10238  1528  3001               	movlw	1
 10239  1529  07B2               	addwf	i1___fldiv@new_exp,f
 10240  152A  1803               	skipnc
 10241  152B  0AB3               	incf	i1___fldiv@new_exp+1,f
 10242  152C  3000               	movlw	0
 10243  152D  07B3               	addwf	i1___fldiv@new_exp+1,f
 10244  152E                     i1l3126:
 10245  152E  0833               	movf	i1___fldiv@new_exp+1,w
 10246  152F  3A80               	xorlw	128
 10247  1530  00FF               	movwf	btemp+1
 10248  1531  3080               	movlw	128
 10249  1532  027F               	subwf	btemp+1,w
 10250  1533  1D03               	skipz
 10251  1534  2D37               	goto	u447_25
 10252  1535  30FF               	movlw	255
 10253  1536  0232               	subwf	i1___fldiv@new_exp,w
 10254  1537                     u447_25:
 10255  1537  1C03               	skipc
 10256  1538  2D3A               	goto	u447_21
 10257  1539  2D3B               	goto	u447_20
 10258  153A                     u447_21:
 10259  153A  2D49               	goto	i1l3130
 10260  153B                     u447_20:
 10261  153B                     i1l3128:
 10262  153B  30FF               	movlw	255
 10263  153C  1283               	bcf	3,5	;RP0=0, select bank0
 10264  153D  1303               	bcf	3,6	;RP1=0, select bank0
 10265  153E  00B2               	movwf	i1___fldiv@new_exp
 10266  153F  3000               	movlw	0
 10267  1540  00B3               	movwf	i1___fldiv@new_exp+1
 10268  1541  3000               	movlw	0
 10269  1542  00A7               	movwf	i1___fldiv@b+3
 10270  1543  3000               	movlw	0
 10271  1544  00A6               	movwf	i1___fldiv@b+2
 10272  1545  3000               	movlw	0
 10273  1546  00A5               	movwf	i1___fldiv@b+1
 10274  1547  3000               	movlw	0
 10275  1548  00A4               	movwf	i1___fldiv@b
 10276  1549                     i1l3130:
 10277  1549  1283               	bcf	3,5	;RP0=0, select bank0
 10278  154A  1303               	bcf	3,6	;RP1=0, select bank0
 10279  154B  0833               	movf	i1___fldiv@new_exp+1,w
 10280  154C  3A80               	xorlw	128
 10281  154D  00FF               	movwf	btemp+1
 10282  154E  3080               	movlw	128
 10283  154F  027F               	subwf	btemp+1,w
 10284  1550  1D03               	skipz
 10285  1551  2D54               	goto	u448_25
 10286  1552  3001               	movlw	1
 10287  1553  0232               	subwf	i1___fldiv@new_exp,w
 10288  1554                     u448_25:
 10289  1554  1803               	skipnc
 10290  1555  2D57               	goto	u448_21
 10291  1556  2D58               	goto	u448_20
 10292  1557                     u448_21:
 10293  1557  2D65               	goto	i1l845
 10294  1558                     u448_20:
 10295  1558                     i1l3132:
 10296  1558  1283               	bcf	3,5	;RP0=0, select bank0
 10297  1559  1303               	bcf	3,6	;RP1=0, select bank0
 10298  155A  01B2               	clrf	i1___fldiv@new_exp
 10299  155B  01B3               	clrf	i1___fldiv@new_exp+1
 10300  155C                     i1l3134:
 10301  155C  3000               	movlw	0
 10302  155D  00A7               	movwf	i1___fldiv@b+3
 10303  155E  3000               	movlw	0
 10304  155F  00A6               	movwf	i1___fldiv@b+2
 10305  1560  3000               	movlw	0
 10306  1561  00A5               	movwf	i1___fldiv@b+1
 10307  1562  3000               	movlw	0
 10308  1563  00A4               	movwf	i1___fldiv@b
 10309  1564                     i1l3136:
 10310  1564  01B1               	clrf	i1___fldiv@sign
 10311  1565                     i1l845:
 10312  1565  1283               	bcf	3,5	;RP0=0, select bank0
 10313  1566  1303               	bcf	3,6	;RP1=0, select bank0
 10314  1567  0832               	movf	i1___fldiv@new_exp,w
 10315  1568  00A8               	movwf	??i1___fldiv
 10316  1569  0828               	movf	??i1___fldiv,w
 10317  156A  00B8               	movwf	i1___fldiv@bexp
 10318  156B                     i1l3138:
 10319  156B  1C38               	btfss	i1___fldiv@bexp,0
 10320  156C  2D6E               	goto	u449_21
 10321  156D  2D6F               	goto	u449_20
 10322  156E                     u449_21:
 10323  156E  2D71               	goto	i1l3142
 10324  156F                     u449_20:
 10325  156F                     i1l3140:
 10326  156F  17A6               	bsf	i1___fldiv@b+2,7
 10327  1570  2D75               	goto	i1l847
 10328  1571                     i1l3142:
 10329  1571  307F               	movlw	127
 10330  1572  00A8               	movwf	??i1___fldiv
 10331  1573  0828               	movf	??i1___fldiv,w
 10332  1574  05A6               	andwf	i1___fldiv@b+2,f
 10333  1575                     i1l847:
 10334  1575  0838               	movf	i1___fldiv@bexp,w
 10335  1576  00A8               	movwf	??i1___fldiv
 10336  1577  1003               	clrc
 10337  1578  0C28               	rrf	??i1___fldiv,w
 10338  1579  00A9               	movwf	??i1___fldiv+1
 10339  157A  0829               	movf	??i1___fldiv+1,w
 10340  157B  00A7               	movwf	i1___fldiv@b+3
 10341  157C  0831               	movf	i1___fldiv@sign,w
 10342  157D  00A8               	movwf	??i1___fldiv
 10343  157E  0828               	movf	??i1___fldiv,w
 10344  157F  04A7               	iorwf	i1___fldiv@b+3,f
 10345  1580  2C19               	goto	i1l3050
 10346  1581                     i1l825:
 10347  1581  0008               	return
 10348  1582                     __end_ofi1___fldiv:
 10349                           
 10350                           	psect	text30
 10351  0C9F                     __ptext30:	
 10352 ;; *************** function ___flmul *****************
 10353 ;; Defined at:
 10354 ;;		line 8 in file "C:\Program Files\Microchip\xc8\v2.30\pic\sources\c90\common\sprcmul.c"
 10355 ;; Parameters:    Size  Location     Type
 10356 ;;  b               4   26[BANK0 ] unsigned char 
 10357 ;;  a               4   30[BANK0 ] unsigned char 
 10358 ;; Auto vars:     Size  Location     Type
 10359 ;;  prod            4   46[BANK0 ] struct .
 10360 ;;  grs             4   40[BANK0 ] unsigned long 
 10361 ;;  temp            2   50[BANK0 ] struct .
 10362 ;;  bexp            1   45[BANK0 ] unsigned char 
 10363 ;;  aexp            1   44[BANK0 ] unsigned char 
 10364 ;;  sign            1   39[BANK0 ] unsigned char 
 10365 ;; Return value:  Size  Location     Type
 10366 ;;                  4   26[BANK0 ] unsigned char 
 10367 ;; Registers used:
 10368 ;;		wreg, status,2, status,0, btemp+1, pclath, cstack
 10369 ;; Tracked objects:
 10370 ;;		On entry : 0/0
 10371 ;;		On exit  : 0/0
 10372 ;;		Unchanged: 0/0
 10373 ;; Data sizes:     COMMON   BANK0   BANK1   BANK3   BANK2
 10374 ;;      Params:         0       8       0       0       0
 10375 ;;      Locals:         0      13       0       0       0
 10376 ;;      Temps:          0       5       0       0       0
 10377 ;;      Totals:         0      26       0       0       0
 10378 ;;Total ram usage:       26 bytes
 10379 ;; Hardware stack levels used:    1
 10380 ;; Hardware stack levels required when called:    1
 10381 ;; This function calls:
 10382 ;;		__Umul8_16
 10383 ;; This function is called by:
 10384 ;;		_DC_cal
 10385 ;; This function uses a non-reentrant model
 10386 ;;
 10387                           
 10388                           
 10389                           ;psect for function ___flmul
 10390  0C9F                     ___flmul:
 10391  0C9F                     i1l2830:	
 10392                           ;incstack = 0
 10393                           ; Regs used in ___flmul: [wreg+status,2+status,0+btemp+1+pclath+cstack]
 10394                           
 10395  0C9F  1283               	bcf	3,5	;RP0=0, select bank0
 10396  0CA0  1303               	bcf	3,6	;RP1=0, select bank0
 10397  0CA1  083D               	movf	___flmul@b+3,w
 10398  0CA2  3980               	andlw	128
 10399  0CA3  00C2               	movwf	??___flmul
 10400  0CA4  0842               	movf	??___flmul,w
 10401  0CA5  00C7               	movwf	___flmul@sign
 10402  0CA6                     i1l2832:
 10403  0CA6  083D               	movf	___flmul@b+3,w
 10404  0CA7  00C2               	movwf	??___flmul
 10405  0CA8  0742               	addwf	??___flmul,w
 10406  0CA9  00C3               	movwf	??___flmul+1
 10407  0CAA  0843               	movf	??___flmul+1,w
 10408  0CAB  00CD               	movwf	___flmul@bexp
 10409  0CAC                     i1l2834:
 10410  0CAC  1FBC               	btfss	___flmul@b+2,7
 10411  0CAD  2CAF               	goto	u374_21
 10412  0CAE  2CB0               	goto	u374_20
 10413  0CAF                     u374_21:
 10414  0CAF  2CB1               	goto	i1l2838
 10415  0CB0                     u374_20:
 10416  0CB0                     i1l2836:
 10417  0CB0  144D               	bsf	___flmul@bexp,0
 10418  0CB1                     i1l2838:
 10419  0CB1  084D               	movf	___flmul@bexp,w
 10420  0CB2  1903               	btfsc	3,2
 10421  0CB3  2CB5               	goto	u375_21
 10422  0CB4  2CB6               	goto	u375_20
 10423  0CB5                     u375_21:
 10424  0CB5  2CC5               	goto	i1l2846
 10425  0CB6                     u375_20:
 10426  0CB6                     i1l2840:
 10427  0CB6  0A4D               	incf	___flmul@bexp,w
 10428  0CB7  1D03               	btfss	3,2
 10429  0CB8  2CBA               	goto	u376_21
 10430  0CB9  2CBB               	goto	u376_20
 10431  0CBA                     u376_21:
 10432  0CBA  2CC3               	goto	i1l2844
 10433  0CBB                     u376_20:
 10434  0CBB                     i1l2842:
 10435  0CBB  3000               	movlw	0
 10436  0CBC  00BD               	movwf	___flmul@b+3
 10437  0CBD  3000               	movlw	0
 10438  0CBE  00BC               	movwf	___flmul@b+2
 10439  0CBF  3000               	movlw	0
 10440  0CC0  00BB               	movwf	___flmul@b+1
 10441  0CC1  3000               	movlw	0
 10442  0CC2  00BA               	movwf	___flmul@b
 10443  0CC3                     i1l2844:
 10444  0CC3  17BC               	bsf	___flmul@b+2,7
 10445  0CC4  2CCD               	goto	i1l2848
 10446  0CC5                     i1l2846:
 10447  0CC5  3000               	movlw	0
 10448  0CC6  00BD               	movwf	___flmul@b+3
 10449  0CC7  3000               	movlw	0
 10450  0CC8  00BC               	movwf	___flmul@b+2
 10451  0CC9  3000               	movlw	0
 10452  0CCA  00BB               	movwf	___flmul@b+1
 10453  0CCB  3000               	movlw	0
 10454  0CCC  00BA               	movwf	___flmul@b
 10455  0CCD                     i1l2848:
 10456  0CCD  0841               	movf	___flmul@a+3,w
 10457  0CCE  3980               	andlw	128
 10458  0CCF  00C2               	movwf	??___flmul
 10459  0CD0  0842               	movf	??___flmul,w
 10460  0CD1  06C7               	xorwf	___flmul@sign,f
 10461  0CD2                     i1l2850:
 10462  0CD2  0841               	movf	___flmul@a+3,w
 10463  0CD3  00C2               	movwf	??___flmul
 10464  0CD4  0742               	addwf	??___flmul,w
 10465  0CD5  00C3               	movwf	??___flmul+1
 10466  0CD6  0843               	movf	??___flmul+1,w
 10467  0CD7  00CC               	movwf	___flmul@aexp
 10468  0CD8                     i1l2852:
 10469  0CD8  1FC0               	btfss	___flmul@a+2,7
 10470  0CD9  2CDB               	goto	u377_21
 10471  0CDA  2CDC               	goto	u377_20
 10472  0CDB                     u377_21:
 10473  0CDB  2CDD               	goto	i1l2856
 10474  0CDC                     u377_20:
 10475  0CDC                     i1l2854:
 10476  0CDC  144C               	bsf	___flmul@aexp,0
 10477  0CDD                     i1l2856:
 10478  0CDD  084C               	movf	___flmul@aexp,w
 10479  0CDE  1903               	btfsc	3,2
 10480  0CDF  2CE1               	goto	u378_21
 10481  0CE0  2CE2               	goto	u378_20
 10482  0CE1                     u378_21:
 10483  0CE1  2CF1               	goto	i1l2864
 10484  0CE2                     u378_20:
 10485  0CE2                     i1l2858:
 10486  0CE2  0A4C               	incf	___flmul@aexp,w
 10487  0CE3  1D03               	btfss	3,2
 10488  0CE4  2CE6               	goto	u379_21
 10489  0CE5  2CE7               	goto	u379_20
 10490  0CE6                     u379_21:
 10491  0CE6  2CEF               	goto	i1l2862
 10492  0CE7                     u379_20:
 10493  0CE7                     i1l2860:
 10494  0CE7  3000               	movlw	0
 10495  0CE8  00C1               	movwf	___flmul@a+3
 10496  0CE9  3000               	movlw	0
 10497  0CEA  00C0               	movwf	___flmul@a+2
 10498  0CEB  3000               	movlw	0
 10499  0CEC  00BF               	movwf	___flmul@a+1
 10500  0CED  3000               	movlw	0
 10501  0CEE  00BE               	movwf	___flmul@a
 10502  0CEF                     i1l2862:
 10503  0CEF  17C0               	bsf	___flmul@a+2,7
 10504  0CF0  2CF9               	goto	i1l2866
 10505  0CF1                     i1l2864:
 10506  0CF1  3000               	movlw	0
 10507  0CF2  00C1               	movwf	___flmul@a+3
 10508  0CF3  3000               	movlw	0
 10509  0CF4  00C0               	movwf	___flmul@a+2
 10510  0CF5  3000               	movlw	0
 10511  0CF6  00BF               	movwf	___flmul@a+1
 10512  0CF7  3000               	movlw	0
 10513  0CF8  00BE               	movwf	___flmul@a
 10514  0CF9                     i1l2866:
 10515  0CF9  084C               	movf	___flmul@aexp,w
 10516  0CFA  1903               	btfsc	3,2
 10517  0CFB  2CFD               	goto	u380_21
 10518  0CFC  2CFE               	goto	u380_20
 10519  0CFD                     u380_21:
 10520  0CFD  2D03               	goto	i1l2870
 10521  0CFE                     u380_20:
 10522  0CFE                     i1l2868:
 10523  0CFE  084D               	movf	___flmul@bexp,w
 10524  0CFF  1D03               	btfss	3,2
 10525  0D00  2D02               	goto	u381_21
 10526  0D01  2D03               	goto	u381_20
 10527  0D02                     u381_21:
 10528  0D02  2D0C               	goto	i1l2874
 10529  0D03                     u381_20:
 10530  0D03                     i1l2870:
 10531  0D03  3000               	movlw	0
 10532  0D04  00BD               	movwf	?___flmul+3
 10533  0D05  3000               	movlw	0
 10534  0D06  00BC               	movwf	?___flmul+2
 10535  0D07  3000               	movlw	0
 10536  0D08  00BB               	movwf	?___flmul+1
 10537  0D09  3000               	movlw	0
 10538  0D0A  00BA               	movwf	?___flmul
 10539  0D0B  2FFF               	goto	i1l863
 10540  0D0C                     i1l2874:
 10541  0D0C  083A               	movf	___flmul@b,w
 10542  0D0D  00C2               	movwf	??___flmul
 10543  0D0E  0842               	movf	??___flmul,w
 10544  0D0F  00F0               	movwf	__Umul8_16@multiplicand
 10545  0D10  0840               	movf	___flmul@a+2,w
 10546  0D11  160A  158A  24C7  120A  158A  	fcall	__Umul8_16
 10547  0D16  0871               	movf	?__Umul8_16+1,w
 10548  0D17  1283               	bcf	3,5	;RP0=0, select bank0
 10549  0D18  1303               	bcf	3,6	;RP1=0, select bank0
 10550  0D19  00D3               	movwf	___flmul@temp+1
 10551  0D1A  0870               	movf	?__Umul8_16,w
 10552  0D1B  00D2               	movwf	___flmul@temp
 10553  0D1C                     i1l2876:
 10554  0D1C  0852               	movf	___flmul@temp,w
 10555  0D1D  00C2               	movwf	??___flmul
 10556  0D1E  01C3               	clrf	??___flmul+1
 10557  0D1F  01C4               	clrf	??___flmul+2
 10558  0D20  01C5               	clrf	??___flmul+3
 10559  0D21  0845               	movf	??___flmul+3,w
 10560  0D22  00CB               	movwf	___flmul@grs+3
 10561  0D23  0844               	movf	??___flmul+2,w
 10562  0D24  00CA               	movwf	___flmul@grs+2
 10563  0D25  0843               	movf	??___flmul+1,w
 10564  0D26  00C9               	movwf	___flmul@grs+1
 10565  0D27  0842               	movf	??___flmul,w
 10566  0D28  00C8               	movwf	___flmul@grs
 10567  0D29                     i1l2878:
 10568  0D29  0853               	movf	___flmul@temp+1,w
 10569  0D2A  00C2               	movwf	??___flmul
 10570  0D2B  01C3               	clrf	??___flmul+1
 10571  0D2C  01C4               	clrf	??___flmul+2
 10572  0D2D  01C5               	clrf	??___flmul+3
 10573  0D2E  0845               	movf	??___flmul+3,w
 10574  0D2F  00D1               	movwf	___flmul@prod+3
 10575  0D30  0844               	movf	??___flmul+2,w
 10576  0D31  00D0               	movwf	___flmul@prod+2
 10577  0D32  0843               	movf	??___flmul+1,w
 10578  0D33  00CF               	movwf	___flmul@prod+1
 10579  0D34  0842               	movf	??___flmul,w
 10580  0D35  00CE               	movwf	___flmul@prod
 10581  0D36  083B               	movf	___flmul@b+1,w
 10582  0D37  00C2               	movwf	??___flmul
 10583  0D38  0842               	movf	??___flmul,w
 10584  0D39  00F0               	movwf	__Umul8_16@multiplicand
 10585  0D3A  083F               	movf	___flmul@a+1,w
 10586  0D3B  160A  158A  24C7  120A  158A  	fcall	__Umul8_16
 10587  0D40  0871               	movf	?__Umul8_16+1,w
 10588  0D41  1283               	bcf	3,5	;RP0=0, select bank0
 10589  0D42  1303               	bcf	3,6	;RP1=0, select bank0
 10590  0D43  00D3               	movwf	___flmul@temp+1
 10591  0D44  0870               	movf	?__Umul8_16,w
 10592  0D45  00D2               	movwf	___flmul@temp
 10593  0D46                     i1l2880:
 10594  0D46  0852               	movf	___flmul@temp,w
 10595  0D47  00C2               	movwf	??___flmul
 10596  0D48  01C3               	clrf	??___flmul+1
 10597  0D49  01C4               	clrf	??___flmul+2
 10598  0D4A  01C5               	clrf	??___flmul+3
 10599  0D4B  0842               	movf	??___flmul,w
 10600  0D4C  07C8               	addwf	___flmul@grs,f
 10601  0D4D  0843               	movf	??___flmul+1,w
 10602  0D4E  1103               	clrz
 10603  0D4F  1803               	skipnc
 10604  0D50  3E01               	addlw	1
 10605  0D51  1903               	skipnz
 10606  0D52  2D54               	goto	u382_21
 10607  0D53  07C9               	addwf	___flmul@grs+1,f
 10608  0D54                     u382_21:
 10609  0D54  0844               	movf	??___flmul+2,w
 10610  0D55  1103               	clrz
 10611  0D56  1803               	skipnc
 10612  0D57  3E01               	addlw	1
 10613  0D58  1903               	skipnz
 10614  0D59  2D5B               	goto	u382_22
 10615  0D5A  07CA               	addwf	___flmul@grs+2,f
 10616  0D5B                     u382_22:
 10617  0D5B  0845               	movf	??___flmul+3,w
 10618  0D5C  1103               	clrz
 10619  0D5D  1803               	skipnc
 10620  0D5E  3E01               	addlw	1
 10621  0D5F  1903               	skipnz
 10622  0D60  2D62               	goto	u382_23
 10623  0D61  07CB               	addwf	___flmul@grs+3,f
 10624  0D62                     u382_23:
 10625  0D62                     i1l2882:
 10626  0D62  0853               	movf	___flmul@temp+1,w
 10627  0D63  00C2               	movwf	??___flmul
 10628  0D64  01C3               	clrf	??___flmul+1
 10629  0D65  01C4               	clrf	??___flmul+2
 10630  0D66  01C5               	clrf	??___flmul+3
 10631  0D67  0842               	movf	??___flmul,w
 10632  0D68  07CE               	addwf	___flmul@prod,f
 10633  0D69  0843               	movf	??___flmul+1,w
 10634  0D6A  1103               	clrz
 10635  0D6B  1803               	skipnc
 10636  0D6C  3E01               	addlw	1
 10637  0D6D  1903               	skipnz
 10638  0D6E  2D70               	goto	u383_21
 10639  0D6F  07CF               	addwf	___flmul@prod+1,f
 10640  0D70                     u383_21:
 10641  0D70  0844               	movf	??___flmul+2,w
 10642  0D71  1103               	clrz
 10643  0D72  1803               	skipnc
 10644  0D73  3E01               	addlw	1
 10645  0D74  1903               	skipnz
 10646  0D75  2D77               	goto	u383_22
 10647  0D76  07D0               	addwf	___flmul@prod+2,f
 10648  0D77                     u383_22:
 10649  0D77  0845               	movf	??___flmul+3,w
 10650  0D78  1103               	clrz
 10651  0D79  1803               	skipnc
 10652  0D7A  3E01               	addlw	1
 10653  0D7B  1903               	skipnz
 10654  0D7C  2D7E               	goto	u383_23
 10655  0D7D  07D1               	addwf	___flmul@prod+3,f
 10656  0D7E                     u383_23:
 10657  0D7E  083C               	movf	___flmul@b+2,w
 10658  0D7F  00C2               	movwf	??___flmul
 10659  0D80  0842               	movf	??___flmul,w
 10660  0D81  00F0               	movwf	__Umul8_16@multiplicand
 10661  0D82  083E               	movf	___flmul@a,w
 10662  0D83  160A  158A  24C7  120A  158A  	fcall	__Umul8_16
 10663  0D88  0871               	movf	?__Umul8_16+1,w
 10664  0D89  1283               	bcf	3,5	;RP0=0, select bank0
 10665  0D8A  1303               	bcf	3,6	;RP1=0, select bank0
 10666  0D8B  00D3               	movwf	___flmul@temp+1
 10667  0D8C  0870               	movf	?__Umul8_16,w
 10668  0D8D  00D2               	movwf	___flmul@temp
 10669  0D8E                     i1l2884:
 10670  0D8E  0852               	movf	___flmul@temp,w
 10671  0D8F  00C2               	movwf	??___flmul
 10672  0D90  01C3               	clrf	??___flmul+1
 10673  0D91  01C4               	clrf	??___flmul+2
 10674  0D92  01C5               	clrf	??___flmul+3
 10675  0D93  0842               	movf	??___flmul,w
 10676  0D94  07C8               	addwf	___flmul@grs,f
 10677  0D95  0843               	movf	??___flmul+1,w
 10678  0D96  1103               	clrz
 10679  0D97  1803               	skipnc
 10680  0D98  3E01               	addlw	1
 10681  0D99  1903               	skipnz
 10682  0D9A  2D9C               	goto	u384_21
 10683  0D9B  07C9               	addwf	___flmul@grs+1,f
 10684  0D9C                     u384_21:
 10685  0D9C  0844               	movf	??___flmul+2,w
 10686  0D9D  1103               	clrz
 10687  0D9E  1803               	skipnc
 10688  0D9F  3E01               	addlw	1
 10689  0DA0  1903               	skipnz
 10690  0DA1  2DA3               	goto	u384_22
 10691  0DA2  07CA               	addwf	___flmul@grs+2,f
 10692  0DA3                     u384_22:
 10693  0DA3  0845               	movf	??___flmul+3,w
 10694  0DA4  1103               	clrz
 10695  0DA5  1803               	skipnc
 10696  0DA6  3E01               	addlw	1
 10697  0DA7  1903               	skipnz
 10698  0DA8  2DAA               	goto	u384_23
 10699  0DA9  07CB               	addwf	___flmul@grs+3,f
 10700  0DAA                     u384_23:
 10701  0DAA                     i1l2886:
 10702  0DAA  0853               	movf	___flmul@temp+1,w
 10703  0DAB  00C2               	movwf	??___flmul
 10704  0DAC  01C3               	clrf	??___flmul+1
 10705  0DAD  01C4               	clrf	??___flmul+2
 10706  0DAE  01C5               	clrf	??___flmul+3
 10707  0DAF  0842               	movf	??___flmul,w
 10708  0DB0  07CE               	addwf	___flmul@prod,f
 10709  0DB1  0843               	movf	??___flmul+1,w
 10710  0DB2  1103               	clrz
 10711  0DB3  1803               	skipnc
 10712  0DB4  3E01               	addlw	1
 10713  0DB5  1903               	skipnz
 10714  0DB6  2DB8               	goto	u385_21
 10715  0DB7  07CF               	addwf	___flmul@prod+1,f
 10716  0DB8                     u385_21:
 10717  0DB8  0844               	movf	??___flmul+2,w
 10718  0DB9  1103               	clrz
 10719  0DBA  1803               	skipnc
 10720  0DBB  3E01               	addlw	1
 10721  0DBC  1903               	skipnz
 10722  0DBD  2DBF               	goto	u385_22
 10723  0DBE  07D0               	addwf	___flmul@prod+2,f
 10724  0DBF                     u385_22:
 10725  0DBF  0845               	movf	??___flmul+3,w
 10726  0DC0  1103               	clrz
 10727  0DC1  1803               	skipnc
 10728  0DC2  3E01               	addlw	1
 10729  0DC3  1903               	skipnz
 10730  0DC4  2DC6               	goto	u385_23
 10731  0DC5  07D1               	addwf	___flmul@prod+3,f
 10732  0DC6                     u385_23:
 10733  0DC6                     i1l2888:
 10734  0DC6  3008               	movlw	8
 10735  0DC7  00C2               	movwf	??___flmul
 10736  0DC8                     u386_25:
 10737  0DC8  1003               	clrc
 10738  0DC9  0DC8               	rlf	___flmul@grs,f
 10739  0DCA  0DC9               	rlf	___flmul@grs+1,f
 10740  0DCB  0DCA               	rlf	___flmul@grs+2,f
 10741  0DCC  0DCB               	rlf	___flmul@grs+3,f
 10742  0DCD  0BC2               	decfsz	??___flmul,f
 10743  0DCE  2DC8               	goto	u386_25
 10744  0DCF                     i1l2890:
 10745  0DCF  083B               	movf	___flmul@b+1,w
 10746  0DD0  00C2               	movwf	??___flmul
 10747  0DD1  0842               	movf	??___flmul,w
 10748  0DD2  00F0               	movwf	__Umul8_16@multiplicand
 10749  0DD3  083E               	movf	___flmul@a,w
 10750  0DD4  160A  158A  24C7  120A  158A  	fcall	__Umul8_16
 10751  0DD9  0871               	movf	?__Umul8_16+1,w
 10752  0DDA  1283               	bcf	3,5	;RP0=0, select bank0
 10753  0DDB  1303               	bcf	3,6	;RP1=0, select bank0
 10754  0DDC  00D3               	movwf	___flmul@temp+1
 10755  0DDD  0870               	movf	?__Umul8_16,w
 10756  0DDE  00D2               	movwf	___flmul@temp
 10757  0DDF                     i1l2892:
 10758  0DDF  0852               	movf	___flmul@temp,w
 10759  0DE0  00C2               	movwf	??___flmul
 10760  0DE1  0853               	movf	___flmul@temp+1,w
 10761  0DE2  00C3               	movwf	??___flmul+1
 10762  0DE3  01C4               	clrf	??___flmul+2
 10763  0DE4  01C5               	clrf	??___flmul+3
 10764  0DE5  0842               	movf	??___flmul,w
 10765  0DE6  07C8               	addwf	___flmul@grs,f
 10766  0DE7  0843               	movf	??___flmul+1,w
 10767  0DE8  1103               	clrz
 10768  0DE9  1803               	skipnc
 10769  0DEA  3E01               	addlw	1
 10770  0DEB  1903               	skipnz
 10771  0DEC  2DEE               	goto	u387_21
 10772  0DED  07C9               	addwf	___flmul@grs+1,f
 10773  0DEE                     u387_21:
 10774  0DEE  0844               	movf	??___flmul+2,w
 10775  0DEF  1103               	clrz
 10776  0DF0  1803               	skipnc
 10777  0DF1  3E01               	addlw	1
 10778  0DF2  1903               	skipnz
 10779  0DF3  2DF5               	goto	u387_22
 10780  0DF4  07CA               	addwf	___flmul@grs+2,f
 10781  0DF5                     u387_22:
 10782  0DF5  0845               	movf	??___flmul+3,w
 10783  0DF6  1103               	clrz
 10784  0DF7  1803               	skipnc
 10785  0DF8  3E01               	addlw	1
 10786  0DF9  1903               	skipnz
 10787  0DFA  2DFC               	goto	u387_23
 10788  0DFB  07CB               	addwf	___flmul@grs+3,f
 10789  0DFC                     u387_23:
 10790  0DFC                     i1l2894:
 10791  0DFC  083A               	movf	___flmul@b,w
 10792  0DFD  00C2               	movwf	??___flmul
 10793  0DFE  0842               	movf	??___flmul,w
 10794  0DFF  00F0               	movwf	__Umul8_16@multiplicand
 10795  0E00  083F               	movf	___flmul@a+1,w
 10796  0E01  160A  158A  24C7  120A  158A  	fcall	__Umul8_16
 10797  0E06  0871               	movf	?__Umul8_16+1,w
 10798  0E07  1283               	bcf	3,5	;RP0=0, select bank0
 10799  0E08  1303               	bcf	3,6	;RP1=0, select bank0
 10800  0E09  00D3               	movwf	___flmul@temp+1
 10801  0E0A  0870               	movf	?__Umul8_16,w
 10802  0E0B  00D2               	movwf	___flmul@temp
 10803  0E0C                     i1l2896:
 10804  0E0C  0852               	movf	___flmul@temp,w
 10805  0E0D  00C2               	movwf	??___flmul
 10806  0E0E  0853               	movf	___flmul@temp+1,w
 10807  0E0F  00C3               	movwf	??___flmul+1
 10808  0E10  01C4               	clrf	??___flmul+2
 10809  0E11  01C5               	clrf	??___flmul+3
 10810  0E12  0842               	movf	??___flmul,w
 10811  0E13  07C8               	addwf	___flmul@grs,f
 10812  0E14  0843               	movf	??___flmul+1,w
 10813  0E15  1103               	clrz
 10814  0E16  1803               	skipnc
 10815  0E17  3E01               	addlw	1
 10816  0E18  1903               	skipnz
 10817  0E19  2E1B               	goto	u388_21
 10818  0E1A  07C9               	addwf	___flmul@grs+1,f
 10819  0E1B                     u388_21:
 10820  0E1B  0844               	movf	??___flmul+2,w
 10821  0E1C  1103               	clrz
 10822  0E1D  1803               	skipnc
 10823  0E1E  3E01               	addlw	1
 10824  0E1F  1903               	skipnz
 10825  0E20  2E22               	goto	u388_22
 10826  0E21  07CA               	addwf	___flmul@grs+2,f
 10827  0E22                     u388_22:
 10828  0E22  0845               	movf	??___flmul+3,w
 10829  0E23  1103               	clrz
 10830  0E24  1803               	skipnc
 10831  0E25  3E01               	addlw	1
 10832  0E26  1903               	skipnz
 10833  0E27  2E29               	goto	u388_23
 10834  0E28  07CB               	addwf	___flmul@grs+3,f
 10835  0E29                     u388_23:
 10836  0E29                     i1l2898:
 10837  0E29  3008               	movlw	8
 10838  0E2A  00C2               	movwf	??___flmul
 10839  0E2B                     u389_25:
 10840  0E2B  1003               	clrc
 10841  0E2C  0DC8               	rlf	___flmul@grs,f
 10842  0E2D  0DC9               	rlf	___flmul@grs+1,f
 10843  0E2E  0DCA               	rlf	___flmul@grs+2,f
 10844  0E2F  0DCB               	rlf	___flmul@grs+3,f
 10845  0E30  0BC2               	decfsz	??___flmul,f
 10846  0E31  2E2B               	goto	u389_25
 10847  0E32  083A               	movf	___flmul@b,w
 10848  0E33  00C2               	movwf	??___flmul
 10849  0E34  0842               	movf	??___flmul,w
 10850  0E35  00F0               	movwf	__Umul8_16@multiplicand
 10851  0E36  083E               	movf	___flmul@a,w
 10852  0E37  160A  158A  24C7  120A  158A  	fcall	__Umul8_16
 10853  0E3C  0871               	movf	?__Umul8_16+1,w
 10854  0E3D  1283               	bcf	3,5	;RP0=0, select bank0
 10855  0E3E  1303               	bcf	3,6	;RP1=0, select bank0
 10856  0E3F  00D3               	movwf	___flmul@temp+1
 10857  0E40  0870               	movf	?__Umul8_16,w
 10858  0E41  00D2               	movwf	___flmul@temp
 10859  0E42                     i1l2900:
 10860  0E42  0852               	movf	___flmul@temp,w
 10861  0E43  00C2               	movwf	??___flmul
 10862  0E44  0853               	movf	___flmul@temp+1,w
 10863  0E45  00C3               	movwf	??___flmul+1
 10864  0E46  01C4               	clrf	??___flmul+2
 10865  0E47  01C5               	clrf	??___flmul+3
 10866  0E48  0842               	movf	??___flmul,w
 10867  0E49  07C8               	addwf	___flmul@grs,f
 10868  0E4A  0843               	movf	??___flmul+1,w
 10869  0E4B  1103               	clrz
 10870  0E4C  1803               	skipnc
 10871  0E4D  3E01               	addlw	1
 10872  0E4E  1903               	skipnz
 10873  0E4F  2E51               	goto	u390_21
 10874  0E50  07C9               	addwf	___flmul@grs+1,f
 10875  0E51                     u390_21:
 10876  0E51  0844               	movf	??___flmul+2,w
 10877  0E52  1103               	clrz
 10878  0E53  1803               	skipnc
 10879  0E54  3E01               	addlw	1
 10880  0E55  1903               	skipnz
 10881  0E56  2E58               	goto	u390_22
 10882  0E57  07CA               	addwf	___flmul@grs+2,f
 10883  0E58                     u390_22:
 10884  0E58  0845               	movf	??___flmul+3,w
 10885  0E59  1103               	clrz
 10886  0E5A  1803               	skipnc
 10887  0E5B  3E01               	addlw	1
 10888  0E5C  1903               	skipnz
 10889  0E5D  2E5F               	goto	u390_23
 10890  0E5E  07CB               	addwf	___flmul@grs+3,f
 10891  0E5F                     u390_23:
 10892  0E5F                     i1l2902:
 10893  0E5F  083B               	movf	___flmul@b+1,w
 10894  0E60  00C2               	movwf	??___flmul
 10895  0E61  0842               	movf	??___flmul,w
 10896  0E62  00F0               	movwf	__Umul8_16@multiplicand
 10897  0E63  0840               	movf	___flmul@a+2,w
 10898  0E64  160A  158A  24C7  120A  158A  	fcall	__Umul8_16
 10899  0E69  0871               	movf	?__Umul8_16+1,w
 10900  0E6A  1283               	bcf	3,5	;RP0=0, select bank0
 10901  0E6B  1303               	bcf	3,6	;RP1=0, select bank0
 10902  0E6C  00D3               	movwf	___flmul@temp+1
 10903  0E6D  0870               	movf	?__Umul8_16,w
 10904  0E6E  00D2               	movwf	___flmul@temp
 10905  0E6F  0852               	movf	___flmul@temp,w
 10906  0E70  00C2               	movwf	??___flmul
 10907  0E71  0853               	movf	___flmul@temp+1,w
 10908  0E72  00C3               	movwf	??___flmul+1
 10909  0E73  01C4               	clrf	??___flmul+2
 10910  0E74  01C5               	clrf	??___flmul+3
 10911  0E75  0842               	movf	??___flmul,w
 10912  0E76  07CE               	addwf	___flmul@prod,f
 10913  0E77  0843               	movf	??___flmul+1,w
 10914  0E78  1103               	clrz
 10915  0E79  1803               	skipnc
 10916  0E7A  3E01               	addlw	1
 10917  0E7B  1903               	skipnz
 10918  0E7C  2E7E               	goto	u391_21
 10919  0E7D  07CF               	addwf	___flmul@prod+1,f
 10920  0E7E                     u391_21:
 10921  0E7E  0844               	movf	??___flmul+2,w
 10922  0E7F  1103               	clrz
 10923  0E80  1803               	skipnc
 10924  0E81  3E01               	addlw	1
 10925  0E82  1903               	skipnz
 10926  0E83  2E85               	goto	u391_22
 10927  0E84  07D0               	addwf	___flmul@prod+2,f
 10928  0E85                     u391_22:
 10929  0E85  0845               	movf	??___flmul+3,w
 10930  0E86  1103               	clrz
 10931  0E87  1803               	skipnc
 10932  0E88  3E01               	addlw	1
 10933  0E89  1903               	skipnz
 10934  0E8A  2E8C               	goto	u391_23
 10935  0E8B  07D1               	addwf	___flmul@prod+3,f
 10936  0E8C                     u391_23:
 10937  0E8C                     i1l2904:
 10938  0E8C  083C               	movf	___flmul@b+2,w
 10939  0E8D  00C2               	movwf	??___flmul
 10940  0E8E  0842               	movf	??___flmul,w
 10941  0E8F  00F0               	movwf	__Umul8_16@multiplicand
 10942  0E90  083F               	movf	___flmul@a+1,w
 10943  0E91  160A  158A  24C7  120A  158A  	fcall	__Umul8_16
 10944  0E96  0871               	movf	?__Umul8_16+1,w
 10945  0E97  1283               	bcf	3,5	;RP0=0, select bank0
 10946  0E98  1303               	bcf	3,6	;RP1=0, select bank0
 10947  0E99  00D3               	movwf	___flmul@temp+1
 10948  0E9A  0870               	movf	?__Umul8_16,w
 10949  0E9B  00D2               	movwf	___flmul@temp
 10950  0E9C                     i1l2906:
 10951  0E9C  0852               	movf	___flmul@temp,w
 10952  0E9D  00C2               	movwf	??___flmul
 10953  0E9E  0853               	movf	___flmul@temp+1,w
 10954  0E9F  00C3               	movwf	??___flmul+1
 10955  0EA0  01C4               	clrf	??___flmul+2
 10956  0EA1  01C5               	clrf	??___flmul+3
 10957  0EA2  0842               	movf	??___flmul,w
 10958  0EA3  07CE               	addwf	___flmul@prod,f
 10959  0EA4  0843               	movf	??___flmul+1,w
 10960  0EA5  1103               	clrz
 10961  0EA6  1803               	skipnc
 10962  0EA7  3E01               	addlw	1
 10963  0EA8  1903               	skipnz
 10964  0EA9  2EAB               	goto	u392_21
 10965  0EAA  07CF               	addwf	___flmul@prod+1,f
 10966  0EAB                     u392_21:
 10967  0EAB  0844               	movf	??___flmul+2,w
 10968  0EAC  1103               	clrz
 10969  0EAD  1803               	skipnc
 10970  0EAE  3E01               	addlw	1
 10971  0EAF  1903               	skipnz
 10972  0EB0  2EB2               	goto	u392_22
 10973  0EB1  07D0               	addwf	___flmul@prod+2,f
 10974  0EB2                     u392_22:
 10975  0EB2  0845               	movf	??___flmul+3,w
 10976  0EB3  1103               	clrz
 10977  0EB4  1803               	skipnc
 10978  0EB5  3E01               	addlw	1
 10979  0EB6  1903               	skipnz
 10980  0EB7  2EB9               	goto	u392_23
 10981  0EB8  07D1               	addwf	___flmul@prod+3,f
 10982  0EB9                     u392_23:
 10983  0EB9  083C               	movf	___flmul@b+2,w
 10984  0EBA  00C2               	movwf	??___flmul
 10985  0EBB  0842               	movf	??___flmul,w
 10986  0EBC  00F0               	movwf	__Umul8_16@multiplicand
 10987  0EBD  0840               	movf	___flmul@a+2,w
 10988  0EBE  160A  158A  24C7  120A  158A  	fcall	__Umul8_16
 10989  0EC3  0871               	movf	?__Umul8_16+1,w
 10990  0EC4  1283               	bcf	3,5	;RP0=0, select bank0
 10991  0EC5  1303               	bcf	3,6	;RP1=0, select bank0
 10992  0EC6  00D3               	movwf	___flmul@temp+1
 10993  0EC7  0870               	movf	?__Umul8_16,w
 10994  0EC8  00D2               	movwf	___flmul@temp
 10995  0EC9                     i1l2908:
 10996  0EC9  0852               	movf	___flmul@temp,w
 10997  0ECA  00C2               	movwf	??___flmul
 10998  0ECB  0853               	movf	___flmul@temp+1,w
 10999  0ECC  00C3               	movwf	??___flmul+1
 11000  0ECD  01C4               	clrf	??___flmul+2
 11001  0ECE  01C5               	clrf	??___flmul+3
 11002  0ECF  3008               	movlw	8
 11003  0ED0                     u393_25:
 11004  0ED0  1003               	clrc
 11005  0ED1  0DC2               	rlf	??___flmul,f
 11006  0ED2  0DC3               	rlf	??___flmul+1,f
 11007  0ED3  0DC4               	rlf	??___flmul+2,f
 11008  0ED4  0DC5               	rlf	??___flmul+3,f
 11009  0ED5                     u393_20:
 11010  0ED5  3EFF               	addlw	-1
 11011  0ED6  1D03               	skipz
 11012  0ED7  2ED0               	goto	u393_25
 11013  0ED8  0842               	movf	??___flmul,w
 11014  0ED9  07CE               	addwf	___flmul@prod,f
 11015  0EDA  0843               	movf	??___flmul+1,w
 11016  0EDB  1103               	clrz
 11017  0EDC  1803               	skipnc
 11018  0EDD  3E01               	addlw	1
 11019  0EDE  1903               	skipnz
 11020  0EDF  2EE1               	goto	u394_21
 11021  0EE0  07CF               	addwf	___flmul@prod+1,f
 11022  0EE1                     u394_21:
 11023  0EE1  0844               	movf	??___flmul+2,w
 11024  0EE2  1103               	clrz
 11025  0EE3  1803               	skipnc
 11026  0EE4  3E01               	addlw	1
 11027  0EE5  1903               	skipnz
 11028  0EE6  2EE8               	goto	u394_22
 11029  0EE7  07D0               	addwf	___flmul@prod+2,f
 11030  0EE8                     u394_22:
 11031  0EE8  0845               	movf	??___flmul+3,w
 11032  0EE9  1103               	clrz
 11033  0EEA  1803               	skipnc
 11034  0EEB  3E01               	addlw	1
 11035  0EEC  1903               	skipnz
 11036  0EED  2EEF               	goto	u394_23
 11037  0EEE  07D1               	addwf	___flmul@prod+3,f
 11038  0EEF                     u394_23:
 11039  0EEF                     i1l2910:
 11040  0EEF  0848               	movf	___flmul@grs,w
 11041  0EF0  00C2               	movwf	??___flmul
 11042  0EF1  0849               	movf	___flmul@grs+1,w
 11043  0EF2  00C3               	movwf	??___flmul+1
 11044  0EF3  084A               	movf	___flmul@grs+2,w
 11045  0EF4  00C4               	movwf	??___flmul+2
 11046  0EF5  084B               	movf	___flmul@grs+3,w
 11047  0EF6  00C5               	movwf	??___flmul+3
 11048  0EF7  3018               	movlw	24
 11049  0EF8                     u395_25:
 11050  0EF8  1003               	clrc
 11051  0EF9  0CC5               	rrf	??___flmul+3,f
 11052  0EFA  0CC4               	rrf	??___flmul+2,f
 11053  0EFB  0CC3               	rrf	??___flmul+1,f
 11054  0EFC  0CC2               	rrf	??___flmul,f
 11055  0EFD                     u395_20:
 11056  0EFD  3EFF               	addlw	-1
 11057  0EFE  1D03               	skipz
 11058  0EFF  2EF8               	goto	u395_25
 11059  0F00  0842               	movf	??___flmul,w
 11060  0F01  07CE               	addwf	___flmul@prod,f
 11061  0F02  0843               	movf	??___flmul+1,w
 11062  0F03  1103               	clrz
 11063  0F04  1803               	skipnc
 11064  0F05  3E01               	addlw	1
 11065  0F06  1903               	skipnz
 11066  0F07  2F09               	goto	u396_21
 11067  0F08  07CF               	addwf	___flmul@prod+1,f
 11068  0F09                     u396_21:
 11069  0F09  0844               	movf	??___flmul+2,w
 11070  0F0A  1103               	clrz
 11071  0F0B  1803               	skipnc
 11072  0F0C  3E01               	addlw	1
 11073  0F0D  1903               	skipnz
 11074  0F0E  2F10               	goto	u396_22
 11075  0F0F  07D0               	addwf	___flmul@prod+2,f
 11076  0F10                     u396_22:
 11077  0F10  0845               	movf	??___flmul+3,w
 11078  0F11  1103               	clrz
 11079  0F12  1803               	skipnc
 11080  0F13  3E01               	addlw	1
 11081  0F14  1903               	skipnz
 11082  0F15  2F17               	goto	u396_23
 11083  0F16  07D1               	addwf	___flmul@prod+3,f
 11084  0F17                     u396_23:
 11085  0F17                     i1l2912:
 11086  0F17  3008               	movlw	8
 11087  0F18  00C2               	movwf	??___flmul
 11088  0F19                     u397_25:
 11089  0F19  1003               	clrc
 11090  0F1A  0DC8               	rlf	___flmul@grs,f
 11091  0F1B  0DC9               	rlf	___flmul@grs+1,f
 11092  0F1C  0DCA               	rlf	___flmul@grs+2,f
 11093  0F1D  0DCB               	rlf	___flmul@grs+3,f
 11094  0F1E  0BC2               	decfsz	??___flmul,f
 11095  0F1F  2F19               	goto	u397_25
 11096  0F20                     i1l2914:
 11097  0F20  084D               	movf	___flmul@bexp,w
 11098  0F21  074C               	addwf	___flmul@aexp,w
 11099  0F22  00C2               	movwf	??___flmul
 11100  0F23  01C3               	clrf	??___flmul+1
 11101  0F24  0DC3               	rlf	??___flmul+1,f
 11102  0F25  0842               	movf	??___flmul,w
 11103  0F26  3E82               	addlw	130
 11104  0F27  00D2               	movwf	___flmul@temp
 11105  0F28  0843               	movf	??___flmul+1,w
 11106  0F29  1803               	skipnc
 11107  0F2A  3E01               	addlw	1
 11108  0F2B  3EFF               	addlw	255
 11109  0F2C  00D3               	movwf	___flmul@temp+1
 11110  0F2D  2F4B               	goto	i1l2926
 11111  0F2E                     i1l2916:
 11112  0F2E  3001               	movlw	1
 11113  0F2F  00C2               	movwf	??___flmul
 11114  0F30                     u398_25:
 11115  0F30  1003               	clrc
 11116  0F31  0DCE               	rlf	___flmul@prod,f
 11117  0F32  0DCF               	rlf	___flmul@prod+1,f
 11118  0F33  0DD0               	rlf	___flmul@prod+2,f
 11119  0F34  0DD1               	rlf	___flmul@prod+3,f
 11120  0F35  0BC2               	decfsz	??___flmul,f
 11121  0F36  2F30               	goto	u398_25
 11122  0F37                     i1l2918:
 11123  0F37  1FCB               	btfss	___flmul@grs+3,7
 11124  0F38  2F3A               	goto	u399_21
 11125  0F39  2F3B               	goto	u399_20
 11126  0F3A                     u399_21:
 11127  0F3A  2F3C               	goto	i1l2922
 11128  0F3B                     u399_20:
 11129  0F3B                     i1l2920:
 11130  0F3B  144E               	bsf	___flmul@prod,0
 11131  0F3C                     i1l2922:
 11132  0F3C  3001               	movlw	1
 11133  0F3D  00C2               	movwf	??___flmul
 11134  0F3E                     u400_25:
 11135  0F3E  1003               	clrc
 11136  0F3F  0DC8               	rlf	___flmul@grs,f
 11137  0F40  0DC9               	rlf	___flmul@grs+1,f
 11138  0F41  0DCA               	rlf	___flmul@grs+2,f
 11139  0F42  0DCB               	rlf	___flmul@grs+3,f
 11140  0F43  0BC2               	decfsz	??___flmul,f
 11141  0F44  2F3E               	goto	u400_25
 11142  0F45                     i1l2924:
 11143  0F45  30FF               	movlw	255
 11144  0F46  07D2               	addwf	___flmul@temp,f
 11145  0F47  1803               	skipnc
 11146  0F48  0AD3               	incf	___flmul@temp+1,f
 11147  0F49  30FF               	movlw	255
 11148  0F4A  07D3               	addwf	___flmul@temp+1,f
 11149  0F4B                     i1l2926:
 11150  0F4B  1FD0               	btfss	___flmul@prod+2,7
 11151  0F4C  2F4E               	goto	u401_21
 11152  0F4D  2F4F               	goto	u401_20
 11153  0F4E                     u401_21:
 11154  0F4E  2F2E               	goto	i1l2916
 11155  0F4F                     u401_20:
 11156  0F4F                     i1l2928:
 11157  0F4F  01CC               	clrf	___flmul@aexp
 11158  0F50                     i1l2930:
 11159  0F50  1FCB               	btfss	___flmul@grs+3,7
 11160  0F51  2F53               	goto	u402_21
 11161  0F52  2F54               	goto	u402_20
 11162  0F53                     u402_21:
 11163  0F53  2F70               	goto	i1l2938
 11164  0F54                     u402_20:
 11165  0F54                     i1l2932:
 11166  0F54  30FF               	movlw	255
 11167  0F55  0548               	andwf	___flmul@grs,w
 11168  0F56  00C2               	movwf	??___flmul
 11169  0F57  30FF               	movlw	255
 11170  0F58  0549               	andwf	___flmul@grs+1,w
 11171  0F59  00C3               	movwf	??___flmul+1
 11172  0F5A  30FF               	movlw	255
 11173  0F5B  054A               	andwf	___flmul@grs+2,w
 11174  0F5C  00C4               	movwf	??___flmul+2
 11175  0F5D  307F               	movlw	127
 11176  0F5E  054B               	andwf	___flmul@grs+3,w
 11177  0F5F  00C5               	movwf	??___flmul+3
 11178  0F60  0845               	movf	??___flmul+3,w
 11179  0F61  0444               	iorwf	??___flmul+2,w
 11180  0F62  0443               	iorwf	??___flmul+1,w
 11181  0F63  0442               	iorwf	??___flmul,w
 11182  0F64  1903               	skipnz
 11183  0F65  2F67               	goto	u403_21
 11184  0F66  2F68               	goto	u403_20
 11185  0F67                     u403_21:
 11186  0F67  2F6B               	goto	i1l869
 11187  0F68                     u403_20:
 11188  0F68                     i1l2934:
 11189  0F68  01CC               	clrf	___flmul@aexp
 11190  0F69  0ACC               	incf	___flmul@aexp,f
 11191  0F6A  2F70               	goto	i1l2938
 11192  0F6B                     i1l869:
 11193  0F6B  1C4E               	btfss	___flmul@prod,0
 11194  0F6C  2F6E               	goto	u404_21
 11195  0F6D  2F6F               	goto	u404_20
 11196  0F6E                     u404_21:
 11197  0F6E  2F70               	goto	i1l2938
 11198  0F6F                     u404_20:
 11199  0F6F  2F68               	goto	i1l2934
 11200  0F70                     i1l2938:
 11201  0F70  084C               	movf	___flmul@aexp,w
 11202  0F71  1903               	btfsc	3,2
 11203  0F72  2F74               	goto	u405_21
 11204  0F73  2F75               	goto	u405_20
 11205  0F74                     u405_21:
 11206  0F74  2FA6               	goto	i1l2948
 11207  0F75                     u405_20:
 11208  0F75                     i1l2940:
 11209  0F75  3001               	movlw	1
 11210  0F76  07CE               	addwf	___flmul@prod,f
 11211  0F77  3000               	movlw	0
 11212  0F78  1803               	skipnc
 11213  0F79  3001               	movlw	1
 11214  0F7A  07CF               	addwf	___flmul@prod+1,f
 11215  0F7B  3000               	movlw	0
 11216  0F7C  1803               	skipnc
 11217  0F7D  3001               	movlw	1
 11218  0F7E  07D0               	addwf	___flmul@prod+2,f
 11219  0F7F  3000               	movlw	0
 11220  0F80  1803               	skipnc
 11221  0F81  3001               	movlw	1
 11222  0F82  07D1               	addwf	___flmul@prod+3,f
 11223  0F83                     i1l2942:
 11224  0F83  1C51               	btfss	___flmul@prod+3,0
 11225  0F84  2F86               	goto	u406_21
 11226  0F85  2F87               	goto	u406_20
 11227  0F86                     u406_21:
 11228  0F86  2FA6               	goto	i1l2948
 11229  0F87                     u406_20:
 11230  0F87                     i1l2944:
 11231  0F87  084E               	movf	___flmul@prod,w
 11232  0F88  00C2               	movwf	??___flmul
 11233  0F89  084F               	movf	___flmul@prod+1,w
 11234  0F8A  00C3               	movwf	??___flmul+1
 11235  0F8B  0850               	movf	___flmul@prod+2,w
 11236  0F8C  00C4               	movwf	??___flmul+2
 11237  0F8D  0851               	movf	___flmul@prod+3,w
 11238  0F8E  00C5               	movwf	??___flmul+3
 11239  0F8F  3001               	movlw	1
 11240  0F90  00C6               	movwf	??___flmul+4
 11241  0F91                     u407_25:
 11242  0F91  0D45               	rlf	??___flmul+3,w
 11243  0F92  0CC5               	rrf	??___flmul+3,f
 11244  0F93  0CC4               	rrf	??___flmul+2,f
 11245  0F94  0CC3               	rrf	??___flmul+1,f
 11246  0F95  0CC2               	rrf	??___flmul,f
 11247  0F96                     u407_20:
 11248  0F96  0BC6               	decfsz	??___flmul+4,f
 11249  0F97  2F91               	goto	u407_25
 11250  0F98  0845               	movf	??___flmul+3,w
 11251  0F99  00D1               	movwf	___flmul@prod+3
 11252  0F9A  0844               	movf	??___flmul+2,w
 11253  0F9B  00D0               	movwf	___flmul@prod+2
 11254  0F9C  0843               	movf	??___flmul+1,w
 11255  0F9D  00CF               	movwf	___flmul@prod+1
 11256  0F9E  0842               	movf	??___flmul,w
 11257  0F9F  00CE               	movwf	___flmul@prod
 11258  0FA0                     i1l2946:
 11259  0FA0  3001               	movlw	1
 11260  0FA1  07D2               	addwf	___flmul@temp,f
 11261  0FA2  1803               	skipnc
 11262  0FA3  0AD3               	incf	___flmul@temp+1,f
 11263  0FA4  3000               	movlw	0
 11264  0FA5  07D3               	addwf	___flmul@temp+1,f
 11265  0FA6                     i1l2948:
 11266  0FA6  0853               	movf	___flmul@temp+1,w
 11267  0FA7  3A80               	xorlw	128
 11268  0FA8  00FF               	movwf	btemp+1
 11269  0FA9  3080               	movlw	128
 11270  0FAA  027F               	subwf	btemp+1,w
 11271  0FAB  1D03               	skipz
 11272  0FAC  2FAF               	goto	u408_25
 11273  0FAD  30FF               	movlw	255
 11274  0FAE  0252               	subwf	___flmul@temp,w
 11275  0FAF                     u408_25:
 11276  0FAF  1C03               	skipc
 11277  0FB0  2FB2               	goto	u408_21
 11278  0FB1  2FB3               	goto	u408_20
 11279  0FB2                     u408_21:
 11280  0FB2  2FBE               	goto	i1l2952
 11281  0FB3                     u408_20:
 11282  0FB3                     i1l2950:
 11283  0FB3  307F               	movlw	127
 11284  0FB4  1283               	bcf	3,5	;RP0=0, select bank0
 11285  0FB5  1303               	bcf	3,6	;RP1=0, select bank0
 11286  0FB6  00D1               	movwf	___flmul@prod+3
 11287  0FB7  3080               	movlw	128
 11288  0FB8  00D0               	movwf	___flmul@prod+2
 11289  0FB9  3000               	movlw	0
 11290  0FBA  00CF               	movwf	___flmul@prod+1
 11291  0FBB  3000               	movlw	0
 11292  0FBC  00CE               	movwf	___flmul@prod
 11293  0FBD  2FF3               	goto	i1l875
 11294  0FBE                     i1l2952:
 11295  0FBE  1283               	bcf	3,5	;RP0=0, select bank0
 11296  0FBF  1303               	bcf	3,6	;RP1=0, select bank0
 11297  0FC0  0853               	movf	___flmul@temp+1,w
 11298  0FC1  3A80               	xorlw	128
 11299  0FC2  00FF               	movwf	btemp+1
 11300  0FC3  3080               	movlw	128
 11301  0FC4  027F               	subwf	btemp+1,w
 11302  0FC5  1D03               	skipz
 11303  0FC6  2FC9               	goto	u409_25
 11304  0FC7  3001               	movlw	1
 11305  0FC8  0252               	subwf	___flmul@temp,w
 11306  0FC9                     u409_25:
 11307  0FC9  1803               	skipnc
 11308  0FCA  2FCC               	goto	u409_21
 11309  0FCB  2FCD               	goto	u409_20
 11310  0FCC                     u409_21:
 11311  0FCC  2FD9               	goto	i1l2958
 11312  0FCD                     u409_20:
 11313  0FCD                     i1l2954:
 11314  0FCD  3000               	movlw	0
 11315  0FCE  1283               	bcf	3,5	;RP0=0, select bank0
 11316  0FCF  1303               	bcf	3,6	;RP1=0, select bank0
 11317  0FD0  00D1               	movwf	___flmul@prod+3
 11318  0FD1  3000               	movlw	0
 11319  0FD2  00D0               	movwf	___flmul@prod+2
 11320  0FD3  3000               	movlw	0
 11321  0FD4  00CF               	movwf	___flmul@prod+1
 11322  0FD5  3000               	movlw	0
 11323  0FD6  00CE               	movwf	___flmul@prod
 11324  0FD7                     i1l2956:
 11325  0FD7  01C7               	clrf	___flmul@sign
 11326  0FD8  2FF3               	goto	i1l875
 11327  0FD9                     i1l2958:
 11328  0FD9  1283               	bcf	3,5	;RP0=0, select bank0
 11329  0FDA  1303               	bcf	3,6	;RP1=0, select bank0
 11330  0FDB  0852               	movf	___flmul@temp,w
 11331  0FDC  00C2               	movwf	??___flmul
 11332  0FDD  0842               	movf	??___flmul,w
 11333  0FDE  00CD               	movwf	___flmul@bexp
 11334  0FDF  30FF               	movlw	255
 11335  0FE0  05CE               	andwf	___flmul@prod,f
 11336  0FE1  30FF               	movlw	255
 11337  0FE2  05CF               	andwf	___flmul@prod+1,f
 11338  0FE3  307F               	movlw	127
 11339  0FE4  05D0               	andwf	___flmul@prod+2,f
 11340  0FE5  3000               	movlw	0
 11341  0FE6  05D1               	andwf	___flmul@prod+3,f
 11342  0FE7                     i1l2960:
 11343  0FE7  1C4D               	btfss	___flmul@bexp,0
 11344  0FE8  2FEA               	goto	u410_21
 11345  0FE9  2FEB               	goto	u410_20
 11346  0FEA                     u410_21:
 11347  0FEA  2FEC               	goto	i1l2964
 11348  0FEB                     u410_20:
 11349  0FEB                     i1l2962:
 11350  0FEB  17D0               	bsf	___flmul@prod+2,7
 11351  0FEC                     i1l2964:
 11352  0FEC  084D               	movf	___flmul@bexp,w
 11353  0FED  00C2               	movwf	??___flmul
 11354  0FEE  1003               	clrc
 11355  0FEF  0C42               	rrf	??___flmul,w
 11356  0FF0  00C3               	movwf	??___flmul+1
 11357  0FF1  0843               	movf	??___flmul+1,w
 11358  0FF2  00D1               	movwf	___flmul@prod+3
 11359  0FF3                     i1l875:
 11360  0FF3  0847               	movf	___flmul@sign,w
 11361  0FF4  00C2               	movwf	??___flmul
 11362  0FF5  0842               	movf	??___flmul,w
 11363  0FF6  04D1               	iorwf	___flmul@prod+3,f
 11364  0FF7                     i1l2966:
 11365  0FF7  0851               	movf	___flmul@prod+3,w
 11366  0FF8  00BD               	movwf	?___flmul+3
 11367  0FF9  0850               	movf	___flmul@prod+2,w
 11368  0FFA  00BC               	movwf	?___flmul+2
 11369  0FFB  084F               	movf	___flmul@prod+1,w
 11370  0FFC  00BB               	movwf	?___flmul+1
 11371  0FFD  084E               	movf	___flmul@prod,w
 11372  0FFE  00BA               	movwf	?___flmul
 11373  0FFF                     i1l863:
 11374  0FFF  0008               	return
 11375  1000                     __end_of___flmul:
 11376                           
 11377                           	psect	text31
 11378  1CC7                     __ptext31:	
 11379 ;; *************** function __Umul8_16 *****************
 11380 ;; Defined at:
 11381 ;;		line 4 in file "C:\Program Files\Microchip\xc8\v2.30\pic\sources\c90\common\Umul8_16.c"
 11382 ;; Parameters:    Size  Location     Type
 11383 ;;  multiplier      1    wreg     unsigned char 
 11384 ;;  multiplicand    1    0[COMMON] unsigned char 
 11385 ;; Auto vars:     Size  Location     Type
 11386 ;;  multiplier      1    8[COMMON] unsigned char 
 11387 ;;  word_mpld       2    6[COMMON] unsigned int 
 11388 ;;  product         2    4[COMMON] unsigned int 
 11389 ;; Return value:  Size  Location     Type
 11390 ;;                  2    0[COMMON] unsigned int 
 11391 ;; Registers used:
 11392 ;;		wreg, status,2, status,0
 11393 ;; Tracked objects:
 11394 ;;		On entry : 0/0
 11395 ;;		On exit  : 0/0
 11396 ;;		Unchanged: 0/0
 11397 ;; Data sizes:     COMMON   BANK0   BANK1   BANK3   BANK2
 11398 ;;      Params:         2       0       0       0       0
 11399 ;;      Locals:         5       0       0       0       0
 11400 ;;      Temps:          2       0       0       0       0
 11401 ;;      Totals:         9       0       0       0       0
 11402 ;;Total ram usage:        9 bytes
 11403 ;; Hardware stack levels used:    1
 11404 ;; This function calls:
 11405 ;;		Nothing
 11406 ;; This function is called by:
 11407 ;;		___flmul
 11408 ;; This function uses a non-reentrant model
 11409 ;;
 11410                           
 11411                           
 11412                           ;psect for function __Umul8_16
 11413  1CC7                     __Umul8_16:
 11414                           
 11415                           ;incstack = 0
 11416                           ; Regs used in __Umul8_16: [wreg+status,2+status,0]
 11417                           ;__Umul8_16@multiplier stored from wreg
 11418  1CC7  00F8               	movwf	__Umul8_16@multiplier
 11419  1CC8                     i1l2806:
 11420  1CC8  01F4               	clrf	__Umul8_16@product
 11421  1CC9  01F5               	clrf	__Umul8_16@product+1
 11422  1CCA                     i1l2808:
 11423  1CCA  0870               	movf	__Umul8_16@multiplicand,w
 11424  1CCB  00F2               	movwf	??__Umul8_16
 11425  1CCC  01F3               	clrf	??__Umul8_16+1
 11426  1CCD  0872               	movf	??__Umul8_16,w
 11427  1CCE  00F6               	movwf	__Umul8_16@word_mpld
 11428  1CCF  0873               	movf	??__Umul8_16+1,w
 11429  1CD0  00F7               	movwf	__Umul8_16@word_mpld+1
 11430  1CD1                     i1l2810:
 11431  1CD1  1C78               	btfss	__Umul8_16@multiplier,0
 11432  1CD2  2CD4               	goto	u367_21
 11433  1CD3  2CD5               	goto	u367_20
 11434  1CD4                     u367_21:
 11435  1CD4  2CDB               	goto	i1l882
 11436  1CD5                     u367_20:
 11437  1CD5                     i1l2812:
 11438  1CD5  0876               	movf	__Umul8_16@word_mpld,w
 11439  1CD6  07F4               	addwf	__Umul8_16@product,f
 11440  1CD7  1803               	skipnc
 11441  1CD8  0AF5               	incf	__Umul8_16@product+1,f
 11442  1CD9  0877               	movf	__Umul8_16@word_mpld+1,w
 11443  1CDA  07F5               	addwf	__Umul8_16@product+1,f
 11444  1CDB                     i1l882:
 11445  1CDB  3001               	movlw	1
 11446  1CDC                     u368_25:
 11447  1CDC  1003               	clrc
 11448  1CDD  0DF6               	rlf	__Umul8_16@word_mpld,f
 11449  1CDE  0DF7               	rlf	__Umul8_16@word_mpld+1,f
 11450  1CDF  3EFF               	addlw	-1
 11451  1CE0  1D03               	skipz
 11452  1CE1  2CDC               	goto	u368_25
 11453  1CE2  1003               	clrc
 11454  1CE3  0CF8               	rrf	__Umul8_16@multiplier,f
 11455  1CE4                     i1l2814:
 11456  1CE4  0878               	movf	__Umul8_16@multiplier,w
 11457  1CE5  1D03               	btfss	3,2
 11458  1CE6  2CE8               	goto	u369_21
 11459  1CE7  2CE9               	goto	u369_20
 11460  1CE8                     u369_21:
 11461  1CE8  2CD1               	goto	i1l2810
 11462  1CE9                     u369_20:
 11463  1CE9                     i1l2816:
 11464  1CE9  0875               	movf	__Umul8_16@product+1,w
 11465  1CEA  00F1               	movwf	?__Umul8_16+1
 11466  1CEB  0874               	movf	__Umul8_16@product,w
 11467  1CEC  00F0               	movwf	?__Umul8_16
 11468  1CED                     i1l884:
 11469  1CED  0008               	return
 11470  1CEE                     __end_of__Umul8_16:
 11471  007E                     btemp	set	126	;btemp
 11472  007E                     wtemp0	set	126
 11473                           
 11474                           	psect	config
 11475                           
 11476                           ;Config register CONFIG @ 0x2007
 11477                           ;	Oscillator Selection bits
 11478                           ;	FOSC = HS, HS oscillator
 11479                           ;	Watchdog Timer Enable bit
 11480                           ;	WDTE = OFF, WDT disabled
 11481                           ;	Power-up Timer Enable bit
 11482                           ;	PWRTE = ON, PWRT enabled
 11483                           ;	Brown-out Reset Enable bit
 11484                           ;	BOREN = ON, BOR enabled
 11485                           ;	Low-Voltage (Single-Supply) In-Circuit Serial Programming Enable bit
 11486                           ;	LVP = OFF, RB3 is digital I/O, HV on MCLR must be used for programming
 11487                           ;	Data EEPROM Memory Code Protection bit
 11488                           ;	CPD = OFF, Data EEPROM code protection off
 11489                           ;	Flash Program Memory Write Enable bits
 11490                           ;	WRT = OFF, Write protection off; all program memory may be written to by EECON control
 11491                           ;	In-Circuit Debugger Mode bit
 11492                           ;	DEBUG = 0x1, unprogrammed default
 11493                           ;	Flash Program Memory Code Protection bit
 11494                           ;	CP = OFF, Code protection off
 11495  2007                     	org	8199
 11496  2007  3F72               	dw	16242

Data Sizes:
    Strings     141
    Constant    0
    Data        5
    BSS         8
    Persistent  0
    Stack       0

Auto Spaces:
    Space          Size  Autos    Used
    COMMON           14     14      14
    BANK0            80     72      74
    BANK1            80     74      79
    BANK3            96     53      59
    BANK2            96      0       0

Pointer List with Targets:

    Lcd_Write_String@a	PTR unsigned char  size(1) Largest target is 18
		 -> STR_35(CODE[15]), STR_34(CODE[15]), STR_33(CODE[1]), STR_32(CODE[7]), 
		 -> STR_31(CODE[9]), STR_30(CODE[9]), STR_29(CODE[11]), STR_28(CODE[17]), 
		 -> STR_27(CODE[5]), STR_26(CODE[9]), STR_25(CODE[9]), STR_24(CODE[1]), 
		 -> STR_23(CODE[9]), STR_22(CODE[11]), STR_21(CODE[13]), STR_20(CODE[13]), 
		 -> STR_19(CODE[18]), STR_18(CODE[1]), STR_17(CODE[7]), STR_16(CODE[9]), 
		 -> STR_15(CODE[1]), STR_14(CODE[7]), STR_13(CODE[9]), STR_12(CODE[14]), 
		 -> STR_11(CODE[9]), STR_10(CODE[18]), STR_9(CODE[1]), STR_8(CODE[8]), 
		 -> STR_7(CODE[9]), STR_6(CODE[1]), STR_5(CODE[9]), STR_4(CODE[11]), 
		 -> STR_3(CODE[5]), STR_2(CODE[1]), STR_1(CODE[9]), 


Critical Paths under _main in COMMON

    None.

Critical Paths under _ISR in COMMON

    _DC_cal->i1___xxtofl
    i1___fltol->i1___xxtofl
    i1___fldiv->i1___xxtofl
    ___flmul->i1___xxtofl

Critical Paths under _main in BANK0

    None.

Critical Paths under _ISR in BANK0

    _Mo->_setPWM_DutyCycle
    _Dong->_setPWM_DutyCycle
    _setPWM_DutyCycle->_DC_cal
    _DC_cal->___flmul
    i1___fltol->i1___fldiv
    ___flmul->i1___fldiv

Critical Paths under _main in BANK1

    _set_Tpwm->___fladd
    ___xxtofl->___lldiv
    ___fltol->___fladd
    ___fldiv->___xxtofl
    ___fladd->___fldiv
    _Lcd_Write_String->_Lcd_Write_Char
    _Lcd_Write_Char->_Lcd_Port
    _Lcd_Set_Cursor->_Lcd_Cmd
    _Lcd_Init->_Lcd_Cmd
    _Lcd_Clear->_Lcd_Cmd
    _Lcd_Cmd->_Lcd_Port
    _GetKey->_READ_SWITCHES

Critical Paths under _ISR in BANK1

    None.

Critical Paths under _main in BANK3

    _main->_set_Tpwm
    _set_Tpwm->___fltol

Critical Paths under _ISR in BANK3

    None.

Critical Paths under _main in BANK2

    None.

Critical Paths under _ISR in BANK2

    None.

Call Graph Tables:

 ---------------------------------------------------------------------------------
 (Depth) Function   	        Calls       Base Space   Used Autos Params    Refs
 ---------------------------------------------------------------------------------
 (0) _main                                                40    40      0   18024
                                             13 BANK3     40    40      0
                        _EEPROM_Read
                       _EEPROM_Write
                             _GetKey
                         _InitKeypad
                          _Lcd_Clear
                           _Lcd_Init
                     _Lcd_Set_Cursor
                     _Lcd_Write_Char
                   _Lcd_Write_String
                           _init_PWM
                           _set_Tpwm
 ---------------------------------------------------------------------------------
 (1) _set_Tpwm                                             2     2      0    7523
                                             11 BANK3      2     2      0
                            ___fladd
                            ___fldiv
                            ___fltol
                            ___lldiv
                           ___xxtofl
 ---------------------------------------------------------------------------------
 (2) ___xxtofl                                            14    10      4     624
                                             14 BANK1     14    10      4
                            ___lldiv (ARG)
 ---------------------------------------------------------------------------------
 (2) ___lldiv                                             14     6      8     314
                                              0 BANK1     14     6      8
 ---------------------------------------------------------------------------------
 (2) ___fltol                                             11     7      4     482
                                              0 BANK3     11     7      4
                            ___fladd (ARG)
                            ___fldiv (ARG)
                            ___lldiv (ARG)
                           ___xxtofl (ARG)
 ---------------------------------------------------------------------------------
 (2) ___fldiv                                             26    18      8    1573
                                             28 BANK1     26    18      8
                            ___lldiv (ARG)
                           ___xxtofl (ARG)
 ---------------------------------------------------------------------------------
 (2) ___fladd                                             20    12      8    4530
                                             54 BANK1     20    12      8
                            ___fldiv (ARG)
                            ___lldiv (ARG)
                           ___xxtofl (ARG)
 ---------------------------------------------------------------------------------
 (1) _init_PWM                                             0     0      0       0
 ---------------------------------------------------------------------------------
 (1) _Lcd_Write_String                                     3     3      0    1423
                                              5 BANK1      3     3      0
                     _Lcd_Write_Char
 ---------------------------------------------------------------------------------
 (2) _Lcd_Write_Char                                       4     4      0     178
                                              1 BANK1      4     4      0
                           _Lcd_Port
 ---------------------------------------------------------------------------------
 (1) _Lcd_Set_Cursor                                       7     6      1    3572
                                              4 BANK1      7     6      1
                            _Lcd_Cmd
 ---------------------------------------------------------------------------------
 (1) _Lcd_Init                                             2     2      0     198
                                              4 BANK1      2     2      0
                            _Lcd_Cmd
                           _Lcd_Port
 ---------------------------------------------------------------------------------
 (1) _Lcd_Clear                                            0     0      0     110
                            _Lcd_Cmd
 ---------------------------------------------------------------------------------
 (2) _Lcd_Cmd                                              3     3      0     110
                                              1 BANK1      3     3      0
                           _Lcd_Port
 ---------------------------------------------------------------------------------
 (3) _Lcd_Port                                             1     1      0      88
                                              0 BANK1      1     1      0
 ---------------------------------------------------------------------------------
 (1) _InitKeypad                                           1     1      0       0
                                              0 BANK1      1     1      0
 ---------------------------------------------------------------------------------
 (1) _GetKey                                               2     2      0      46
                                              3 BANK1      2     2      0
                      _READ_SWITCHES
 ---------------------------------------------------------------------------------
 (2) _READ_SWITCHES                                        3     3      0       0
                                              0 BANK1      3     3      0
 ---------------------------------------------------------------------------------
 (1) _EEPROM_Write                                         2     1      1     500
                                              0 BANK1      2     1      1
 ---------------------------------------------------------------------------------
 (1) _EEPROM_Read                                          1     1      0      22
                                              0 BANK1      1     1      0
 ---------------------------------------------------------------------------------
 Estimated maximum stack depth 3
 ---------------------------------------------------------------------------------
 (Depth) Function   	        Calls       Base Space   Used Autos Params    Refs
 ---------------------------------------------------------------------------------
 (4) _ISR                                                  6     6      0    9484
                                             66 BANK0      6     6      0
                               _Dong
                               _Dung
                                 _Mo
                              _nguoi
 ---------------------------------------------------------------------------------
 (5) _nguoi                                                0     0      0       0
 ---------------------------------------------------------------------------------
 (5) _Mo                                                   0     0      0    4742
                             _DC_cal
                   _setPWM_DutyCycle
 ---------------------------------------------------------------------------------
 (5) _Dung                                                 0     0      0       0
 ---------------------------------------------------------------------------------
 (5) _Dong                                                 0     0      0    4742
                             _DC_cal
                   _setPWM_DutyCycle
 ---------------------------------------------------------------------------------
 (6) _setPWM_DutyCycle                                     4     2      2     196
                                             62 BANK0      4     2      2
                             _DC_cal (ARG)
 ---------------------------------------------------------------------------------
 (6) _DC_cal                                              10     8      2    4546
                                             52 BANK0     10     8      2
                            ___flmul
                          i1___fldiv
                          i1___fltol
                         i1___xxtofl
 ---------------------------------------------------------------------------------
 (7) i1___xxtofl                                          14    10      4     400
                                              0 COMMON    14    10      4
 ---------------------------------------------------------------------------------
 (7) i1___fltol                                           11     7      4     255
                                             26 BANK0     11     7      4
                          i1___fldiv (ARG)
                         i1___xxtofl (ARG)
 ---------------------------------------------------------------------------------
 (7) i1___fldiv                                           26    18      8    1277
                                              0 BANK0     26    18      8
                         i1___xxtofl (ARG)
 ---------------------------------------------------------------------------------
 (7) ___flmul                                             26    18      8    2417
                                             26 BANK0     26    18      8
                          __Umul8_16
                          i1___fldiv (ARG)
                         i1___xxtofl (ARG)
 ---------------------------------------------------------------------------------
 (8) __Umul8_16                                            9     7      2     799
                                              0 COMMON     9     7      2
 ---------------------------------------------------------------------------------
 Estimated maximum stack depth 8
 ---------------------------------------------------------------------------------

 Call Graph Graphs:

 _main (ROOT)
   _EEPROM_Read
   _EEPROM_Write
   _GetKey
     _READ_SWITCHES
   _InitKeypad
   _Lcd_Clear
     _Lcd_Cmd
       _Lcd_Port
   _Lcd_Init
     _Lcd_Cmd
       _Lcd_Port
     _Lcd_Port
   _Lcd_Set_Cursor
     _Lcd_Cmd
       _Lcd_Port
   _Lcd_Write_Char
     _Lcd_Port
   _Lcd_Write_String
     _Lcd_Write_Char
       _Lcd_Port
   _init_PWM
   _set_Tpwm
     ___fladd
       ___fldiv (ARG)
         ___lldiv (ARG)
         ___xxtofl (ARG)
           ___lldiv (ARG)
       ___lldiv (ARG)
       ___xxtofl (ARG)
         ___lldiv (ARG)
     ___fldiv
       ___lldiv (ARG)
       ___xxtofl (ARG)
         ___lldiv (ARG)
     ___fltol
       ___fladd (ARG)
         ___fldiv (ARG)
           ___lldiv (ARG)
           ___xxtofl (ARG)
             ___lldiv (ARG)
         ___lldiv (ARG)
         ___xxtofl (ARG)
           ___lldiv (ARG)
       ___fldiv (ARG)
         ___lldiv (ARG)
         ___xxtofl (ARG)
           ___lldiv (ARG)
       ___lldiv (ARG)
       ___xxtofl (ARG)
         ___lldiv (ARG)
     ___lldiv
     ___xxtofl
       ___lldiv (ARG)

 _ISR (ROOT)
   _Dong
     _DC_cal
       ___flmul
         __Umul8_16
         i1___fldiv (ARG)
           i1___xxtofl (ARG)
         i1___xxtofl (ARG)
       i1___fldiv
         i1___xxtofl (ARG)
       i1___fltol
         i1___fldiv (ARG)
           i1___xxtofl (ARG)
         i1___xxtofl (ARG)
       i1___xxtofl
     _setPWM_DutyCycle
       _DC_cal (ARG)
         ___flmul
           __Umul8_16
           i1___fldiv (ARG)
             i1___xxtofl (ARG)
           i1___xxtofl (ARG)
         i1___fldiv
           i1___xxtofl (ARG)
         i1___fltol
           i1___fldiv (ARG)
             i1___xxtofl (ARG)
           i1___xxtofl (ARG)
         i1___xxtofl
   _Dung
   _Mo
     _DC_cal
       ___flmul
         __Umul8_16
         i1___fldiv (ARG)
           i1___xxtofl (ARG)
         i1___xxtofl (ARG)
       i1___fldiv
         i1___xxtofl (ARG)
       i1___fltol
         i1___fldiv (ARG)
           i1___xxtofl (ARG)
         i1___xxtofl (ARG)
       i1___xxtofl
     _setPWM_DutyCycle
       _DC_cal (ARG)
         ___flmul
           __Umul8_16
           i1___fldiv (ARG)
             i1___xxtofl (ARG)
           i1___xxtofl (ARG)
         i1___fldiv
           i1___xxtofl (ARG)
         i1___fltol
           i1___fldiv (ARG)
             i1___xxtofl (ARG)
           i1___xxtofl (ARG)
         i1___xxtofl
   _nguoi

 Address spaces:
Name               Size   Autos  Total    Cost      Usage
BANK3               60     35      3B       9       61.5%
BITBANK3            60      0       0       8        0.0%
SFR3                 0      0       0       4        0.0%
BITSFR3              0      0       0       4        0.0%
BANK2               60      0       0      11        0.0%
BITBANK2            60      0       0      10        0.0%
SFR2                 0      0       0       5        0.0%
BITSFR2              0      0       0       5        0.0%
BANK1               50     4A      4F       7       98.8%
BITBANK1            50      0       0       6        0.0%
SFR1                 0      0       0       2        0.0%
BITSFR1              0      0       0       2        0.0%
BANK0               50     48      4A       5       92.5%
BITBANK0            50      0       0       4        0.0%
SFR0                 0      0       0       1        0.0%
BITSFR0              0      0       0       1        0.0%
COMMON               E      E       E       1      100.0%
BITCOMMON            E      0       0       0        0.0%
CODE                 0      0       0       0        0.0%
DATA                 0      0      E2      12        0.0%
ABS                  0      0      E2       3        0.0%
NULL                 0      0       0       0        0.0%
STACK                0      0       0       2        0.0%
EEDATA             100      0       0       0        0.0%


Microchip Technology PIC Macro Assembler V2.30 build 20200825195618 
Symbol Table                                                                                   Sat May 15 10:14:59 2021

             ___fldiv@aexp 00D5               ___fldiv@bexp 00D4                          pc 0002  
             ___fldiv@sign 00CD                i1___fldiv@a 0020                i1___fldiv@b 0024  
                       _WR 0C61                         _Mo 1C38                         _ps 00EE  
                       _tt 00EC                         fsr 0004        __Umul8_16@word_mpld 0076  
        ?_setPWM_DutyCycle 005E                 i1___xxtofl 102C                        ?_Mo 0070  
                      l120 082C                        l201 1676                        l121 0836  
                      l210 16A2                        l202 166E                        l123 0839  
                      l115 080F                        l116 0812                        l221 16FA  
                      l213 16C2                        l205 1690                        l117 081C  
                      l141 1D30                        l230 1726                        l222 16F2  
                      l214 16BB                        l206 1688                        l118 081F  
                      l126 1CA3                        l119 0829                        l135 1D88  
                      l241 177E                        l233 1747                        l225 1714  
                      l217 16E0                        l209 16A9                        l129 1BF8  
                      l162 1CC6                        l250 17AA                        l242 1776  
                      l234 1740                        l226 170C                        l218 16D8  
                      l138 1DEC                        l147 102B                        l156 1C07  
                      l172 17FF                        l253 17CC                        l245 1798  
                      l237 1760                        l229 172E                        l181 15F0  
                      l173 15BC                        l165 07FF                        l262 17F7  
                      l254 17C4                        l246 1790                        l238 1759  
                      l190 161C                        l182 15E8                        l174 15B4  
                      l270 1C69                        l510 1E54                        l159 1CA7  
                      l343 07EA                        l351 073C                        l168 15A2  
                      l280 11AD                        l257 17E5                        l249 17B2  
                      l193 1642                        l185 160A                        l177 15D6  
                      l169 159A                        l273 1BEB                        l281 1275  
                      l258 17DE                        l194 163A                        l186 1602  
                      l178 15CE                        l197 165C                        l189 1624  
                      l277 11A3                        l198 1654                        l278 11C8  
                      l279 11A8                        l801 0C70                        l810 0C9E  
                      l660 1F4C                        l670 1F4C                        l823 0896  
                      l920 116B                        l809 0C92                        l825 0A16  
                      l921 1177                        l913 114F                        l771 0B21  
                      l667 1F37                        l907 110A                        l780 0C9E  
                      l773 0AF8                        l845 09FA                        l909 11A1  
                      l767 0A7A                        l847 0A0A                        l839 0988  
                      l792 0C10                        l788 0BEC                        l798 0C32  
                      _GIE 005F                        _RA0 0028                        _RB0 0030  
                      _RB1 0031                        _RB2 0032                        _RC0 0038  
                      _RB3 0033                        _RC1 0039                        _RD0 0040  
                      _RB4 0034                        _RD1 0041                        _RB5 0035  
                      _RD2 0042                        _RC4 003C                        _RB6 0036  
                      _RD3 0043                        _RC5 003D                        _RB7 0037  
                      _RD4 0044                        _RC6 003E                        _RD5 0045  
                      _RC7 003F                        _RD6 0046                        _RD7 0047  
                      _PR2 0092                        _ISR 1276                        fsr0 0004  
                      indf 0000         ??_setPWM_DutyCycle 0060               i1___fltol@f1 003A  
             ___flmul@aexp 004C               ___flmul@bexp 004D               ___flmul@sign 0047  
             ___flmul@temp 0052               ___flmul@prod 004E                       ??_Mo 007E  
                     ?_ISR 0070              i1___fldiv@grs 0034              i1___fldiv@rem 002D  
             ___fltol@exp1 019A                       l3200 1CA0                       l3210 1D11  
                     l3202 1CF1                       l3220 1D2D                       l3212 1D18  
                     l3204 1CFB                       l3310 1712                       l3302 16E4  
                     l3230 15A6                       l3222 1582                       l3214 1D1B  
                     l3206 1CFE                       l3320 1732                       l3304 16F8  
                     l3232 15BA                       l3224 158C                       l3216 1D23  
                     l3208 1D0E                       l3400 1E4C                       l3314 1718  
                     l3250 1608                       l3242 15DA                       l3226 15A0  
                     l3218 1D26                       l3340 1796                       l3332 1768  
                     l3316 172C                       l3308 16FE                       l3260 162C  
                     l3244 15EE                       l3236 15C0                       l3350 17B6  
                     l3334 177C                       l3326 174B                       l3262 1640  
                     l3254 160E                       l3238 15D4                       l3352 17CA  
                     l3344 179C                       l3280 168E                       l3272 1660  
                     l3256 1622                       l3248 15F4                       l3192 1C87  
                     l6000 0498                       l3362 17E9                       l3346 17B0  
                     l3338 1782                       l3290 16AD                       l3274 1674  
                     l3266 1646                       l3194 1C8A                       l6010 04B5  
                     l6002 049E                       l3356 17D0                       l3284 1694  
                     l3268 165A                       l2820 0807                       l3196 1C92  
                     l3700 08F6                       l3380 1DED                       l6100 05BF  
                     l6020 04D3                       l6012 04BB                       l6004 04A4  
                     l3278 167A                       l2822 080B                       l3198 1C95  
                     l3710 0928                       l3702 0908                       l3390 1E1C  
                     l3382 1DFF                       l6110 05E8                       l6102 05C9  
                     l6030 04EC                       l6022 04D9                       l6014 04C5  
                     l6006 04A6                       l3368 17FE                       l3296 16CA  
                     l2824 0818                       l3720 0949                       l3712 0929  
                     l3704 090C                       l3640 084B                       l3392 1E2E  
                     l3384 1E02                       l3800 1156                       l6200 074A  
                     l6120 0620                       l6112 05F4                       l6104 05CF  
                     l6040 0510                       l6032 04F6                       l6024 04DF  
                     l6016 04C9                       l6008 04AB                       l3298 16DE  
                     l2826 0825                       l3730 0962                       l3722 094B  
                     l3714 0937                       l3706 090D                       l3650 085F  
                     l3642 084C                       l3634 083A                       l3394 1E3C  
                     l3386 1E0F                       l3810 118F                       l3802 1161  
                     l6210 0772                       l6202 074F                       l6130 0654  
                     l6122 0628                       l6114 0602                       l6106 05DD  
                     l6050 052D                       l6042 0516                       l6034 04FC  
                     l6026 04E5                       l6018 04CD                       l3900 1C62  
                     l2828 0832                       l3820 1BEC                       l5500 0A6F  
                     l3740 0985                       l3724 0954                       l3732 0968  
                     l3708 0916                       l3716 093B                       l3660 0878  
                     l3644 0851                       l3652 0861                       l3636 0841  
                     l3396 1E3D                       l3388 1E13                       l3812 1194  
                     l3804 1165                       l6220 07A4                       l6212 077C  
                     l6204 0759                       l6140 0664                       l6132 0656  
                     l6124 0636                       l6116 0607                       l6108 05E3  
                     l6060 0549                       l6052 0537                       l6044 0518  
                     l6036 0506                       l6028 04E7                       l3902 1C68  
                     l3830 1D55                       l3822 1D34                       l5510 0A88  
                     l5502 0A70                       l3750 09A4                       l3734 096C  
                     l3726 0958                       l3718 0941                       l3670 088C  
                     l3662 0879                       l3654 0869                       l3646 0856  
                     l3638 0847                       l3398 1E46                       l3814 1198  
                     l3806 116F                       l6230 07D3                       l6222 07AC  
                     l6214 0782                       l6206 075F                       l6150 0683  
                     l6142 066A                       l6134 065A                       l6126 064A  
                     l6118 0611                       l6070 0572                       l6062 054A  
                     l6054 053B                       l6046 051D                       l6038 050A  
                     l3840 1D80                       l3824 1D39                       l3832 1D5E  
                     l5520 0A9C                       l5512 0A8C                       l5504 0A72  
                     l3760 09ED                       l3752 09BD                       l3744 098D  
                     l3736 096D                       l3728 0959                       l3664 087E  
                     l3672 088E                       l3656 086E                       l3648 085E  
                     l4640 1EFC                       l4632 1ED1                       l3816 1199  
                     l3808 1179                       l6232 07D9                       l6224 07B6  
                     l6216 0790                       l6208 076D                       l6160 06B0  
                     l6152 068A                       l6144 0670                       l6136 065C  
                     l6128 0650                       l6080 0596                       l6072 057C  
                     l6064 0559                       l6048 0527                       l6056 053D  
                     l3850 1DB1                       l3842 1D89                       l3834 1D64  
                     l3826 1D4A                       l3906 1BE4                       l5610 0C17  
                     l5602 0C02                       l5530 0AB0                       l5522 0AA0  
                     l5514 0A90                       l5506 0A80                       l3770 0A06  
                     l3762 09F1                       l3746 0992                       l3754 09C3  
                     l3738 0971                       l3690 08D7                       l3674 089E  
                     l3682 08B7                       l3666 0883                       l3658 0874  
                     l4642 1EFD                       l4634 1EDE                       l6226 07BC  
                     l6218 0796                       l6162 06BA                       l6170 06DE  
                     l6154 0694                       l6146 0676                       l6090 05A6  
                     l6138 065E                       l6082 0598                       l6074 0582  
                     l6066 055F                       l6058 0543                       l3860 1BFC  
                     l3844 1D8F                       l3836 1D75                       l3828 1D4F  
                     l3852 1006                       l5620 0C25                       l5612 0C19  
                     l5604 0C0B                       l5532 0AB4                       l5524 0AA4  
                     l5516 0A94                       l5508 0A84                       l5540 0AC4  
                     l3764 09F9                       l3756 09D0                       l3748 09A0  
                     l3692 08DF                       l3684 08BC                       l3676 08AA  
                     l3668 088B                       l4644 1F05                       l3780 10F2  
                     l6228 07C4                       l6180 070A                       l6172 06E6  
                     l6164 06C0                       l6156 069E                       l6148 0678  
                     l6092 05AC                       l6084 059A                       l6076 058C  
                     l6068 056D                       l5700 0091                       l3862 1C00  
                     l3870 1CAD                       l3846 1D9A                       l3838 1D7A  
                     l3854 1009                       l5630 0C3C                       l5622 0C29  
                     l5614 0C1E                       l5606 0C0F                       l5550 0B07  
                     l5542 0AC5                       l5534 0AB8                       l5526 0AA8  
                     l5518 0A98                       l5470 0A29                       l5462 0A17  
                     l3766 0A00                       l3758 09DE                       l3694 08E7  
                     l3678 08AE                       l4662 1F2C                       l4654 1F13  
                     l4646 1F07                       l4638 1EE7                       l3790 1120  
                     l3782 1102                       l6190 072F                       l6182 070F  
                     l6174 06E7                       l6158 06A3                       l6166 06C4  
                     l6094 05B2                       l6086 059E                       l6078 0592  
                     l5710 00A7                       l5702 0093                       l3864 1C03  
                     l3880 1CC3                       l3872 1CB9                       l3848 1DAB  
                     l3856 1016                       l5640 0C7A                       l5632 0C4A  
                     l5624 0C2F                       l5608 0C14                       l5616 0C20  
                     l5560 0B25                       l5552 0B0B                       l5544 0ADC  
                     l5536 0ABC                       l5528 0AAC                       l5472 0A2E  
                     l5480 0A3E                       l5464 0A1E                       l3768 0A04  
                     l3696 08EF                       l3688 08C5                       l4664 1F3C  
                     l4648 1F0B                       l4656 1F25                       l3792 112D  
                     l3784 1112                       l3776 10E9                       l6192 0735  
                     l6184 0719                       l6176 06F6                       l6168 06DA  
                     l6096 05B6                       l6088 05A0                       l5800 01D2  
                     l5720 00CD                       l5712 00B1                       l5704 0095  
                     l3882 1CC4                       l3874 1CBC                       l3890 07F5  
                     l3858 101E                       l5650 0C8E                       l5642 0C82  
                     l5634 0C4E                       l5570 0B4E                       l5618 0C24  
                     l5562 0B2A                       l5554 0B0C                       l5546 0AFC  
                     l5538 0AC0                       l5490 0A58                       l5482 0A46  
                     l5474 0A33                       l5466 0A24                       l3698 08F1  
                     l4666 1F41                       l3794 1134                       l3778 10EE  
                     l6362 11BD                       l6194 073D                       l6186 071F  
                     l6178 06FC                       l6098 05BA                       l5810 01EC  
                     l5802 01D8                       l5730 00F9                       l5722 00D5  
                     l5714 00B7                       l5706 0097                       l3884 1CC5  
                     l3876 1CBD                       l3868 1CA7                       l3892 07F6  
                     l5652 0C99                       l5644 0C87                       l5636 0C6C  
                     l5628 0C37                       l5580 0B62                       l5572 0B52  
                     l5556 0B15                       l5548 0B05                       l5492 0A5C  
                     l5484 0A4B                       l5476 0A3B                       l5468 0A28  
                     l3796 1138                       l3788 111B                       l5660 11CB  
                     l6196 0743                       l6188 0729                       l5900 0346  
                     l5820 0203                       l5812 01F2                       l5804 01DC  
                     l5740 011E                       l5732 00FE                       l5724 00D6  
                     l5716 00B8                       l5708 009C                       l3878 1CC2  
                     l3894 07F9                       l3886 07EE                       l5654 0C9D  
                     l5646 0C88                       l5638 0C75                       l5590 0BCA  
                     l5582 0B6B                       l5574 0B5B                       l5566 0B33  
                     l5558 0B19                       l5494 0A5D                       l5486 0A51  
                     l5478 0A3C                       l3798 1146                       l6198 0745  
                     l5910 0366                       l5902 034C                       l5830 0227  
                     l5822 020D                       l5814 01F8                       l5806 01E0  
                     l5742 0122                       l5734 0108                       l5726 00E5  
                     l5750 012C                       l5718 00C7                       l5670 0051  
                     l3896 1C51                       l3888 07F1                       l5648 0C8C  
                     l5592 0BCF                       l5576 0B5D                       l5568 0B4A  
                     l5584 0B70                       l5496 0A62                       l5488 0A52  
                     l5656 11A2                       l5920 0386                       l5912 036C  
                     l5904 0352                       l5840 0245                       l5832 022D  
                     l5824 0213                       l5816 01FC                       l5808 01E6  
                     l5760 014A                       l5752 0132                       l5744 0124  
                     l5736 010E                       l5728 00EB                       l5680 005D  
                     l5672 0054                       l3898 1C58                       l5586 0B86  
                     l5594 0BDE                       l5578 0B61                       l5498 0A67  
                     l5658 11B1                       l5930 03A8                       l5922 038E  
                     l5914 0374                       l5906 035A                       l5850 026A  
                     l5842 024A                       l5834 0233                       l5826 021D  
                     l5818 01FE                       l5762 0150                       l5754 0138  
                     l5770 0168                       l5746 0126                       l5738 0118  
                     l5690 007F                       l5682 0060                       l5674 0055  
                     l5666 0047                       l5596 0BF4                       l5588 0BC4  
                     l5940 03C8                       l5932 03AE                       l5924 0394  
                     l5916 037A                       l5908 0360                       l5860 029D  
                     l5852 0278                       l5844 0254                       l5836 0239  
                     l5828 0221                       l5780 0189                       l5772 016E  
                     l5764 0156                       l5756 013E                       l5748 012A  
                     l5692 0085                       l5684 0065                       l5676 0057  
                     l5668 004C                       l5598 0BF9                       l5950 03E8  
                     l5942 03CE                       l5934 03B4                       l5926 039A  
                     l5918 0380                       l5870 02D1                       l5862 02A2  
                     l5854 027E                       l5846 025A                       l5838 0241  
                     l5790 01A4                       l5782 018F                       l5774 0174  
                     l5766 015C                       l5758 0144                       l5694 0085  
                     l5686 006F                       l5678 005A                       l5960 0408  
                     l5952 03EE                       l5944 03D4                       l5936 03BA  
                     l5928 03A0                       l5880 0310                       l5872 02E0  
                     l5864 02AC                       l5856 0283                       l5848 0264  
                     l5792 01AE                       l5784 0195                       l5776 017B  
                     l5768 0162                       l5696 008B                       l5688 0075  
                     l5970 0428                       l5962 0410                       l5954 03F6  
                     l5946 03DC                       l5938 03C2                       l5890 0328  
                     l5882 031A                       l5874 02E6                       l5866 02BB  
                     l5858 028F                       l5794 01B4                       l5786 019B  
                     l5778 0181                       l5698 008D                       l5980 0444  
                     l5972 042E                       l5964 0416                       l5956 03FC  
                     l5948 03E2                       l5884 0320                       l5876 02FA  
                     l5868 02C3                       l5892 032C                       l5796 01C2  
                     l5788 019F                       l5990 0474                       l5982 044A  
                     l5974 0430                       l5966 041C                       l5958 0402  
                     l5894 0332                       l5886 0324                       l5878 0308  
                     l5798 01C8                       l5992 047E                       l5984 0458  
                     l5976 0435                       l5968 0422                       l5896 0338  
                     l5888 0326                       l5986 045E                       l5978 043A  
                     l5994 0484                       l5898 0340                       l5996 048C  
                     l5988 046C                       l5998 0492                       STR_1 1869  
                     STR_2 1828                       STR_3 187F                       STR_4 185E  
                     STR_5 1869                       STR_6 1828                       STR_7 180F  
                     STR_8 1884                       STR_9 1828                       u5000 175F  
                     u5001 175E                       u5010 1768                       u5011 1767  
                     u5100 17E4                       u5020 177C                       u5101 17E3  
                     u5021 177B                       u5110 17E9                       u5030 1782  
                     u5111 17E8                       u5031 1781                       u5120 17FD  
                     u5040 1796                       u6000 098C                       u5121 17FC  
                     u5041 1795                       u6001 098B                       u5050 179C  
                     u6010 0992                       u5210 1E4C                       u5051 179B  
                     u6011 0991                       u5211 1E4B                       u5060 17B0  
                     u3700 080B                       u6020 09A4                       u5061 17AF  
                     u3701 080A                       u6021 09A3                       u5205 1E3E  
                     u5070 17B6                       u3710 0818                       u6030 09B3  
                     u5150 1DFF                       u6110 1133                       u5071 17B5  
                     u3711 0817                       u5151 1DFE                       u6111 1132  
                     u5080 17CA                       u3720 0825                       u6040 09D0  
                     u6200 1198                       u5081 17C9                       u3721 0824  
                     u6041 09CF                       u6201 1197                       u6105 1125  
                     u5090 17D0                       u3730 0832                       u6210 1D39  
                     u6050 09ED                       u5170 1E13                       u6130 1155  
                     u5091 17CF                       u3731 0831                       u6211 1D38  
                     u6051 09EC                       u6035 09AE                       u5171 1E12  
                     u6131 1154                       u4700 15D4                       u6060 0A04  
                     u4701 15D3                       u6061 0A03                       u6045 09CC  
                     u5165 1E04                       u6125 1147                       u4710 15DA  
                     u6230 1D64                       u5190 1E2E                       u6150 1165  
                     u6070 10EE                       u4711 15D9                       u6231 1D63  
                     u6055 09E9                       u5191 1E2D                       u6151 1164  
                     u6071 10ED                       _RBIE 005B                       u4800 165A  
                     u4720 15EE                       u6160 116B                       u6080 10F2  
                     _RBIF 0058                       u4801 1659                       u4721 15ED  
                     u6225 1D41                       u5185 1E15                       u6161 116A  
                     u6145 115A                       u6081 10F1                       u4810 1660  
                     u4730 15F4                       u4650 158C                       u6250 102B  
                     u6170 116F                       u6090 1112                       u4811 165F  
                     u4731 15F3                       u4651 158B                       u6251 102A  
                     u5195 1E2A                       u6171 116E                       u6091 1111  
                     u6260 1CAD                       u4900 16DE                       u4820 1674  
                     u4740 1608                       u4660 15A0                       u6180 1184  
                     u6261 1CAC                       u4901 16DD                       u4821 1673  
                     u4741 1607                       u4661 159F                       u6245 1D6C  
                     u4645 1D03                       u4910 16E4                       u4830 167A  
                     u4750 160E                       u4670 15A6                       u6270 1C68  
                     u6190 1194                       u4911 16E3                       u4831 1679  
                     u4751 160D                       u4671 15A5                       u6271 1C67  
                     u6191 1193                       u4920 16F8                       u4840 168E  
                     u4760 1622                       u4680 15BA                       u9000 0C2F  
                     u5800 0856                       u4921 16F7                       u4841 168D  
                     u4761 1621                       u4681 15B9                       u9001 0C2E  
                     u5801 0855                       u6185 117F                       u4930 16FE  
                     u4850 1694                       u4770 162C                       u4690 15C0  
                     u9010 0C36                       u5810 0878                       u7410 1F3C  
                     u7330 1EDE                       u4931 16FD                       u4851 1693  
                     u4771 162B                       u4691 15BF                       u9011 0C35  
                     u5811 0877                       u7411 1F3B                       u7331 1EDD  
                     u4940 1712                       u4860 16A8                       u4780 1640  
                     u9100 0C9D                       u9020 0C3C                       u5820 087E  
                     u7420 1F41                       u7340 1EF5                       u4941 1711  
                     u4861 16A7                       u4781 163F                       u9101 0C9C  
                     u9021 0C3B                       u5821 087D                       u7421 1F40  
                     u7405 1F2E                       u4950 1718                       u4870 16AD  
                     u4790 1646                       u9030 0C4E                       u5910 0928  
                     u5830 0883                       u7350 1F0B                       u9110 00B7  
                     u4951 1717                       u4871 16AC                       u4791 1645  
                     u9031 0C4D                       u5911 0927                       u5831 0882  
                     u7351 1F0A                       u9111 00B6                       u4960 172C  
                     u4880 16C1                       u9040 0C5D                       u5920 0941  
                     u5840 089E                       u7360 1F12                       u9200 015C  
                     u9120 00D5                       u4961 172B                       u4881 16C0  
                     u5921 0940                       u5905 090F                       u5841 089D  
                     u7361 1F11                       u7345 1EF0                       u9201 015B  
                     u9121 00D4                       u4970 1732                       u4890 16CA  
                     u9050 0C6C                       u5930 0949                       u5850 08BC  
                     u9210 0162                       u9130 0132                       u4971 1731  
                     u4891 16C9                       u9051 0C6B                       u5931 0948  
                     u5915 0924                       u5851 08BB                       u9211 0161  
                     u9131 0131                       u4980 1746                       u9060 0C75  
                     u5860 08F6                       u5780 084B                       u7380 1F24  
                     u9300 01EC                       u9220 0168                       u9140 0138  
                     u4981 1745                       u9061 0C74                       u9045 0C58  
                     u5861 08F5                       u5781 084A                       u7381 1F23  
                     u9301 01EB                       u9221 0167                       u9141 0137  
                     u4990 174B                       u9070 0C7A                       u5950 0958  
                     u5790 0851                       u7390 1F2B                       u9310 01F2  
                     u9230 016E                       u9150 013E                       u4991 174A  
                     u9071 0C79                       u5951 0957                       u5791 0850  
                     u7391 1F2A                       u7375 1F14                       u9311 01F1  
                     u9231 016D                       u9151 013D                       u9080 0C87  
                     u9400 034C                       u9320 01F8                       u9240 0174  
                     u9160 0144                       u9081 0C86                       u5945 094D  
                     u9401 034B                       u9321 01F7                       u9241 0173  
                     u9161 0143                       u9090 0C8C                       u5970 096C  
                     u5890 090C                       u9410 0352                       u9330 0227  
                     u9250 0189                       u9170 014A                       u9091 0C8B  
                     u5971 096B                       u5891 090B                       u5875 08F8  
                     u9411 0351                       u9331 0226                       u9251 0188  
                     u9171 0149                       u8700 0A62                       u5980 0971  
                     u9500 03CE                       u9420 0366                       u9340 022D  
                     u9260 018F                       u9180 0150                       u8701 0A61  
                     u5981 0970                       u5965 095B                       u5885 0901  
                     u9501 03CD                       u9421 0365                       u9341 022C  
                     u9261 018E                       u9181 014F                       u8710 0A67  
                     u5990 0985                       u9510 03D4                       u9430 036C  
                     u9350 0233                       u9270 0195                       u9190 0156  
                     u8711 0A66                       u5991 0984                       u9511 03D3  
                     u9431 036B                       u9351 0232                       u9271 0194  
                     u9191 0155                       u8800 0B21                       u8720 0A80  
                     u9600 048C                       u9520 03E8                       u9440 0380  
                     u9360 0239                       u9280 019B                       u8801 0B20  
                     u8721 0A7F                       u9601 048B                       u9521 03E7  
                     u9441 037F                       u9361 0238                       u9281 019A  
                     u8810 0B25                       u8730 0A84                       u8650 0A28  
                     u9610 0492                       u9530 03EE                       u9450 0386  
                     u9370 02D1                       u9290 01E6                       u8811 0B24  
                     u8731 0A83                       u8651 0A27                       u9611 0491  
                     u9531 03ED                       u9451 0385                       u9371 02D0  
                     u9291 01E5                       u8900 0BB1                       u8820 0B2A  
                     u8740 0ADC                       u8660 0A2E                       u9700 0516  
                     u9620 0498                       u9540 0402                       u9460 039A  
                     u9380 0332                       u8901 0BB2                       u8821 0B29  
                     u8741 0ADB                       u8661 0A2D                       u9701 0515  
                     u9621 0497                       u9541 0401                       u9461 0399  
                     u9381 0331                       u8910 0BCF                       u8902 0BB7  
                     u8750 0AE7                       u8670 0A33                       u9710 0543  
                     u9630 049E                       u9550 0408                       u9470 03A0  
                     u9390 0338                       u8911 0BCE                       u8903 0BB8  
                     u8831 0B3C                       u8751 0AE5                       u8671 0A32  
                     u9711 0542                       u9631 049D                       u9551 0407  
                     u9471 039F                       u9391 0337                       u9375 02CD  
                     u8920 0BF4                       u8840 0B4E                       u8832 0B43  
                     u8760 0AE8                       u8680 0A51                       u9800 0676  
                     u9720 0549                       u9640 04A4                       u9560 041C  
                     u9480 03B4                       u8921 0BF3                       u8841 0B4D  
                     u8833 0B4A                       u8745 0AD8                       u8681 0A50  
                     u9801 0675                       u9721 0548                       u9641 04A3  
                     u9561 041B                       u9481 03B3                       u8930 0BF9  
                     u8850 0B52                       u8770 0AFC                       u8690 0A5C  
                     u9810 0694                       u9730 05A6                       u9650 04D3  
                     u9570 0422                       u9490 03BA                       u8931 0BF8  
                     u8851 0B51                       u8771 0AFB                       u8691 0A5B  
                     u9811 0693                       u9731 05A5                       u9651 04D2  
                     u9571 0421                       u9491 03B9                       u8860 0B61  
                     u8780 0B0B                       u9820 069E                       u9740 05AC  
                     u9660 04D9                       u9580 0428                       u8861 0B60  
                     u8781 0B0A                       u9821 069D                       u9741 05AB  
                     u9661 04D8                       u9581 0427                       u8950 0C0F  
                     u9830 06BA                       u9750 05B2                       u9670 04DF  
                     u9590 042E                       u8951 0C0E                       u9831 06B9  
                     u9815 0690                       u9751 05B1                       u9671 04DE  
                     u9591 042D                       u8960 0C14                       u8880 0B86  
                     u9840 06D9                       u9760 0636                       u9680 04E5  
                     u8961 0C13                       u8945 0C04                       u8881 0B85  
                     u9841 06D8                       u9825 069A                       u9761 0635  
                     u9681 04E4                       u8970 0C1E                       u9850 06E6  
                     u9770 0664                       u9690 0510                       u8971 0C1D  
                     u8891 0B9D                       u8883 0B82                       u8875 0B64  
                     u8795 0B0E                       u9851 06E5                       u9771 0663  
                     u9691 050F                       u8980 0C24                       u8892 0B9E  
                     u9860 07C4                       u9780 066A                       u8981 0C23  
                     u8893 0BA3                       u9861 07C3                       u9845 06D5  
                     u9781 0669                       u9765 0632                       u8990 0C29  
                     u8894 0BA4                       u9790 0670                       u8991 0C28  
                     u8895 0BA9                       u9791 066F                       u8896 0BAA  
                     _Dong 1C1F                       _Dung 1BDF                       _Fpwm 01C5  
        ?_Lcd_Write_String 0070                       _main 0047                       _pass 01CB  
                     btemp 007E                       start 0010         ??_Lcd_Write_String 00A5  
          ___fldiv@new_exp 00CE            __end_of_Lcd_Cmd 1CA4                      ??_ISR 0062  
     __end_of_EEPROM_Write 1CC7     __size_of_READ_SWITCHES 027E             i1___fldiv@aexp 0039  
           i1___fldiv@bexp 0038                      ?_Dong 0070                      ?_Dung 0070  
           i1___fldiv@sign 0031              ___fltol@sign1 0199            __end_of___fladd 0C9F  
                    ?_main 0070                      _CCP1X 00BD            __end_of___fldiv 0A17  
                    _CCP1Y 00BC                      _EEADR 010D                      STR_10 1806  
                    STR_11 1872                      STR_20 1846                      STR_12 1838  
                    STR_13 180F                      STR_21 1846                      STR_22 185E  
                    STR_14 188C                      STR_30 187B                      STR_15 1828  
                    STR_31 180F                      STR_23 1869                      STR_24 1828  
                    STR_32 188C                      STR_16 180F                      STR_33 1828  
                    STR_17 188C                      STR_25 1872                      STR_18 1828  
                    STR_26 1869                      STR_34 1829                      STR_19 1806  
                    STR_27 187F                      STR_35 1829                      STR_28 1818  
                    STR_29 1853            __end_of___flmul 1000            __end_of___fltol 1F4D  
                    _EEPGD 0C67            __end_of___lldiv 1E55                      u10207 0767  
                    u10217 1D15                      u10307 15E2                      u10227 1D2A  
                    u10317 15FC                      u10237 1D95                      u10157 00F3  
                    u10407 16EC                      u10327 1616                      u10247 1DA6  
                    u10167 0272                      u10417 1706                      u10337 1634  
                    u10257 1DB7                      u10177 0567                      u10507 17F1  
                    u10427 1720                      u10347 164E                      u10267 1C9B  
                    u10187 05D7                      u10437 173A                      u10357 1668  
                    u10277 1594                      u10197 0704                      u10447 1753  
                    u10367 1682                      u10287 15AE                      u10457 1770  
                    u10377 169C                      u10297 15C8                      u10467 178A  
                    u10387 16B5                      u10477 17A4                      u10397 16D2  
                    u10487 17BE                      u10497 17D8                      i1l290 1C37  
                    i1l370 138D                      i1l362 12DE                      i1l371 1346  
                    i1l284 1FFF                      i1l293 1C50                      i1l373 1372  
                    i1l287 1C83                      i1l383 139A                      i1l367 1309  
                    i1l296 1BE3                      i1l369 1321                      i1l386 1C1B  
                    i1l660 1ED0                      i1l388 1C1E                      i1l670 1ED0  
                    i1l823 1401                      i1l920 10AF                      i1l825 1581  
                    i1l921 10BB                      i1l913 1093                      i1l667 1EBB  
                    i1l907 104E                      i1l845 1565                      i1l909 10E5  
                    i1l863 0FFF                      i1l847 1575                      i1l839 14F3  
                    i1l882 1CDB                      i1l875 0FF3                      i1l884 1CED  
                    i1l869 0F6B                      _PORTA 0005                      _PORTB 0006  
                    _PORTC 0007                      _PORTD 0008    __size_of_Lcd_Set_Cursor 0058  
                    _TRISA 0085                      _TRISB 0086                      _TRISC 0087  
                    _TRISD 0088                      _nguoi 1C08                      main@i 01B5  
                    main@x 01A7                      pclath 000A             i1___fltol@exp1 0044  
                    status 0003                      wtemp0 007E           EEPROM_Write@Data 00A0  
       __size_ofi1___fldiv 01DD         __size_ofi1___fltol 007C       __size_of_EEPROM_Read 000F  
         __end_of_Lcd_Init 1DED           __end_of_Lcd_Port 083A                 _InitKeypad 07EE  
             __end_of_Dong 1C38               __end_of_Dung 1BE4            __initialization 0013  
             __end_of_main 07EE                     ??_Dong 007E                     ??_Dung 0070  
                   ??_main 019D                ?i1___xxtofl 0070         __size_of_Lcd_Clear 000D  
            main@down1_201 01A8              main@down1_211 01A0              main@down1_226 01AD  
                   _CCP1M2 00BA                     _CCP1M3 00BB                     _EEDATA 010C  
                   _CCPR1L 0015                     _EECON2 018D                     ?_nguoi 0070  
            _READ_SWITCHES 1582                     i1l3000 1EB0                     i1l3010 13B2  
                   i1l3002 1EC0                     i1l3100 14C4                     i1l3020 13C9  
                   i1l3012 13B6                     i1l3004 1EC5                     i1l3110 14DC  
                   i1l3102 14CD                     i1l3030 13DF                     i1l3022 13CA  
                   i1l3014 13B7                     i1l3006 13A5                     i1l3120 150B  
                   i1l3112 14F0                     i1l3104 14D3                     i1l3040 13F6  
                   i1l3032 13E3                     i1l3016 13BC                     i1l3024 13CC  
                   i1l3008 13AC                     i1l3130 1549                     i1l3122 150F  
                   i1l3106 14D7                     i1l3050 1419                     i1l3042 13F7  
                   i1l3034 13E4                     i1l3026 13D4                     i1l3018 13C1  
                   i1l3140 156F                     i1l3132 1558                     i1l3124 1528  
                   i1l3116 14F8                     i1l3108 14D8                     i1l3060 1430  
                   i1l3036 13E9                     i1l3044 13F9                     i1l3028 13D9  
                   i1l3142 1571                     i1l3134 155C                     i1l3118 14FD  
                   i1l3126 152E                     i1l3070 145C                     i1l3062 1442  
                   i1l3046 1409                     i1l3054 1422                     i1l3038 13EE  
                   i1l3150 1032                     i1l3136 1564                     i1l3128 153B  
                   i1l3072 1461                     i1l3080 1481                     i1l3064 144A  
                   i1l3056 1427                     i1l3048 1415                     i1l3160 105F  
                   i1l3152 1036                     i1l3138 156B                     i1l3090 14AC  
                   i1l3082 1493                     i1l3074 1473                     i1l3066 1452  
                   i1l3170 108A                     i1l3162 1064                     i1l3154 1046  
                   i1l3092 14B4                     i1l3084 1494                     i1l3076 1477  
                   i1l3068 145A                     i1l3180 10BD                     i1l3172 109A  
                   i1l3164 1071                     i1l3156 1056                     i1l3148 102D  
                   i1l3094 14B6                     i1l3086 14A2                     i1l3078 1478  
                   i1l3182 10D3                     i1l3174 10A5                     i1l3166 1078  
                   i1l3096 14BF                     i1l3088 14A6                     i1l3184 10D8  
                   i1l3176 10A9                     i1l3168 107C                     i1l2810 1CD1  
                   i1l3098 14C3                     i1l3186 10DC                     i1l3178 10B3  
                   _DC_cal 1F4D                     i1l2812 1CD5                     i1l2900 0E42  
                   i1l3188 10DD                     i1l3372 1F4D                     i1l2814 1CE4  
                   i1l2806 1CC8                     i1l2910 0EEF                     i1l2902 0E5F  
                   i1l2830 0C9F                     i1l2816 1CE9                     i1l2808 1CCA  
                   i1l2920 0F3B                     i1l2912 0F17                     i1l2904 0E8C  
                   i1l2840 0CB6                     i1l2832 0CA6                     i1l3376 1C6A  
                   i1l2930 0F50                     i1l2922 0F3C                     i1l2914 0F20  
                   i1l2906 0E9C                     i1l2850 0CD2                     i1l2842 0CBB  
                   i1l2834 0CAC                     i1l3378 1C77                     i1l2940 0F75  
                   i1l2932 0F54                     i1l2924 0F45                     i1l2916 0F2E  
                   i1l2908 0EC9                     i1l2860 0CE7                     i1l2852 0CD8  
                   i1l2844 0CC3                     i1l2836 0CB0                     i1l6300 132D  
                   i1l2950 0FB3                     i1l2942 0F83                     i1l2934 0F68  
                   i1l2918 0F37                     i1l2926 0F4B                     i1l2870 0D03  
                   i1l2862 0CEF                     i1l2854 0CDC                     i1l2846 0CC5  
                   i1l2838 0CB1                     i1l6310 1352                     i1l6302 1337  
                   i1l2960 0FE7                     i1l2952 0FBE                     i1l2944 0F87  
                   i1l2928 0F4F                     i1l2880 0D46                     i1l2864 0CF1  
                   i1l2856 0CDD                     i1l2848 0CCD                     i1l3920 1C23  
                   i1l6320 1376                     i1l6312 1358                     i1l6240 127E  
                   i1l2962 0FEB                     i1l2954 0FCD                     i1l2946 0FA0  
                   i1l2938 0F70                     i1l2890 0DCF                     i1l2882 0D62  
                   i1l2874 0D0C                     i1l2866 0CF9                     i1l2858 0CE2  
                   i1l2970 1E55                     i1l3922 1C38                     i1l3930 1C17  
                   i1l6322 137A                     i1l6314 135F                     i1l6306 134A  
                   i1l6250 1299                     i1l6242 1282                     i1l2964 0FEC  
                   i1l2956 0FD7                     i1l2948 0FA6                     i1l2892 0DDF  
                   i1l2884 0D8E                     i1l2876 0D1C                     i1l2868 0CFE  
                   i1l2980 1E81                     i1l2972 1E62                     i1l3924 1C3C  
                   i1l6340 1395                     i1l6324 137E                     i1l6316 1366  
                   i1l6308 134E                     i1l6260 12B9                     i1l6252 129F  
                   i1l6244 1286                     i1l6236 1276                     i1l2966 0FF7  
                   i1l2958 0FD9                     i1l2894 0DFC                     i1l2886 0DAA  
                   i1l2878 0D29                     i1l2982 1E89                     i1l3918 1C1F  
                   i1l3926 1BDF                     i1l6318 136C                     i1l6334 138D  
                   i1l6270 12D8                     i1l6254 12A3                     i1l6246 128A  
                   i1l6238 127A                     i1l2896 0E0C                     i1l2888 0DC6  
                   i1l2992 1E97                     i1l2984 1E8B                     i1l2976 1E6B  
                   i1l3928 1C08                     i1l6328 1385                     i1l6280 12F5  
                   i1l6272 12E2                     i1l6248 1290                     i1l6256 12A8  
                   i1l6336 138F                     i1l2898 0E29                     i1l2986 1E8F  
                   i1l2994 1EA9                     i1l2978 1E80                     i1l6338 1394  
                   i1l6290 131A                     i1l6274 12E6                     i1l6258 12B0  
                   i1l6266 12C0                     i1l6284 130D                     i1l6276 12EA  
                   i1l6268 12C5                     i1l6286 1311                     i1l6278 12EF  
                   i1l6296 1325                     i1l6288 1315                     i1l6298 1329  
                   _INTEDG 040E                     u400_25 0F3E                     u401_20 0F4F  
                   u401_21 0F4E                     u410_20 0FEB                     u402_20 0F54  
                   u410_21 0FEA                     u402_21 0F53                     u403_20 0F68  
                   u411_20 1E62                     u403_21 0F67                     u411_21 1E61  
                   u404_20 0F6F                     u420_20 1EC5                     u412_20 1E79  
                   u404_21 0F6E                     u420_21 1EC4                     u412_25 1E74  
                   u405_20 0F75                     u421_20 13B6                     u413_20 1E8F  
                   u405_21 0F74                     u421_21 13B5                     u413_21 1E8E  
                   u406_20 0F87                     u422_20 13BC                     u414_20 1E96  
                   u406_21 0F86                     u422_21 13BB                     u414_21 1E95  
                   u430_25 1463                     u407_20 0F96                     u423_20 13C1  
                   u423_21 13C0                     u407_25 0F91                     u431_25 146C  
                   u415_25 1E98                     u408_20 0FB3                     u440_20 14D7  
                   u432_20 1477                     u424_20 13E3                     u416_20 1EA8  
                   u408_21 0FB2                     u440_21 14D6                     u432_21 1476  
                   u424_21 13E2                     u416_21 1EA7                     u408_25 0FAF  
                   u409_20 0FCD                     u441_20 14DC                     u425_20 13E9  
                   u417_20 1EAF                     u513_20 1C73                     u409_21 0FCC  
                   u441_21 14DB                     u425_21 13E8                     u417_21 1EAE  
                   u513_21 1C6F                     u409_25 0FC9                     u433_25 147A  
                   u442_20 14F0                     u434_20 1493                     u426_20 13EE  
                   u450_20 1032                     u442_21 14EF                     u434_21 1492  
                   u426_21 13ED                     u450_21 1031                     u514_24 1C76  
                   u434_25 148F                     u418_25 1EB2                     u443_20 14F7  
                   u435_20 14AC                     u427_20 1409                     u419_20 1EC0  
                   u451_20 1036                     u443_21 14F6                     u435_21 14AB  
                   u427_21 1408                     u419_21 1EBF                     u451_21 1035  
                   u380_20 0CFE                     u444_20 14FD                     u436_20 14B4  
                   u428_20 1427                     u460_20 10B3                     u452_20 1056  
                   u380_21 0CFD                     u444_21 14FC                     u436_21 14B3  
                   u428_21 1426                     u460_21 10B2                     u452_21 1055  
                   u381_20 0D03                     u445_20 150F                     u429_20 1461  
                   u461_20 10C8                     u381_21 0D02                     u445_21 150E  
                   u429_21 1460                     u437_25 14B8                     u461_25 10C3  
                   u453_25 1069                     u374_20 0CB0                     u446_20 151E  
                   u438_20 14C3                     u462_20 10D8                     u454_20 1077  
                   u390_21 0E51                     u382_21 0D54                     u374_21 0CAF  
                   u438_21 14C2                     u462_21 10D7                     u454_21 1076  
                   u390_22 0E58                     u382_22 0D5B                     u390_23 0E5F  
                   u382_23 0D62                     u446_25 1519                     u367_20 1CD5  
                   u375_20 0CB6                     u447_20 153B                     u463_20 10DC  
                   u367_21 1CD4                     u391_21 0E7E                     u383_21 0D70  
                   u375_21 0CB5                     u447_21 153A                     u463_21 10DB  
                   u391_22 0E85                     u383_22 0D77                     u391_23 0E8C  
                   u383_23 0D7E                     u447_25 1537                     u439_25 14C6  
                   u455_25 108B                     u376_20 0CBB                     u448_20 1558  
                   u456_20 1099                     u392_21 0EAB                     u384_21 0D9C  
                   u376_21 0CBA                     u448_21 1557                     u456_21 1098  
                   u392_22 0EB2                     u384_22 0DA3                     u392_23 0EB9  
                   u384_23 0DAA                     u368_25 1CDC                     u448_25 1554  
                   u369_20 1CE9                     u393_20 0ED5                     u377_20 0CDC  
                   u449_20 156F                     u369_21 1CE8                     u385_21 0DB8  
                   u377_21 0CDB                     u449_21 156E                     u385_22 0DBF  
                   u385_23 0DC6                     u393_25 0ED0                     u457_25 109E  
                   u378_20 0CE2                     u458_20 10A9                     u394_21 0EE1  
                   u378_21 0CE1                     u458_21 10A8                     u394_22 0EE8  
                   u394_23 0EEF                     u386_25 0DC8                     u395_20 0EFD  
                   u379_20 0CE7                     u459_20 10AF                     u387_21 0DEE  
                   u379_21 0CE6                     u459_21 10AE                     u387_22 0DF5  
                   u387_23 0DFC                     u395_25 0EF8                     u628_20 1C17  
                   u396_21 0F09                     u388_21 0E1B                     u628_21 1C16  
                   u396_22 0F10                     u388_22 0E22                     u396_23 0F17  
                   u388_23 0E29                     u628_25 1C13                     u397_25 0F19  
                   u389_25 0E2B                     u398_25 0F30                     u399_20 0F3B  
                   u399_21 0F3A                  ??_Lcd_Cmd 00A1                     _TMR2ON 0092  
                   u990_20 1286                     u990_21 1285                     u991_20 128A  
                   u991_21 1289                     u992_20 1290                     u992_21 128F  
                   u993_20 1299                     u993_21 1298    __size_of_Lcd_Write_Char 0043  
                   u994_20 12B0                     u994_21 12AF                     u995_20 12B9  
                   u987_20 127A                     u995_21 12B8                     u987_21 1279  
                   _TRISC2 043A                     u996_20 12E2                     u988_20 127E  
                   u996_21 12E1                     u988_21 127D                     u997_20 12E6  
                   u989_20 1282                     u997_21 12E5                     u989_21 1281  
                   u998_20 12EA                     u998_21 12E9                     u999_20 130D  
                   u999_21 130C           __end_of___xxtofl 11A2                     _GetKey 1C51  
                ??___fladd 00DE                  ??___fldiv 00C4                  ??___flmul 0042  
                ??___fltol 0194                  ??___lldiv 00A8           __end_of_init_PWM 1BEC  
                   main@c1 01A6                     main@c2 01A1                     main@x2 01B2  
        __end_ofi1___fldiv 1582          __end_ofi1___fltol 1ED1           __end_of_set_Tpwm 1276  
       __size_of__Umul8_16 0027                     saved_w 007E            i1___fltol@sign1 0043  
           ?_READ_SWITCHES 0070            Lcd_Set_Cursor@a 00A7            Lcd_Set_Cursor@b 00A4  
          Lcd_Set_Cursor@y 00A9            Lcd_Set_Cursor@z 00A8               ___xxtofl@arg 00B8  
             ___xxtofl@exp 00B7               ___xxtofl@val 00AE    __end_of__initialization 0043  
        __end_of_Lcd_Clear 1BF9        __size_ofi1___xxtofl 00BA                 ___fltol@f1 0190  
    __size_of_EEPROM_Write 0023                ?_InitKeypad 0070             __pcstackCOMMON 0070  
             __pidataBANK1 0003               __pidataBANK3 0800              __end_of_nguoi 1C1F  
               __end_of_Mo 1C51             _Lcd_Set_Cursor 1D31                  ?_Lcd_Init 0070  
                ?_Lcd_Port 0070                    ??_nguoi 0070               _EEPROM_Write 1CA4  
               __pbssBANK0 0068                 __pbssBANK1 00EA                 __pbssBANK3 01C9  
                  ?_DC_cal 0054  __size_of_setPWM_DutyCycle 001A             i1___xxtofl@arg 007A  
           i1___xxtofl@exp 0079             i1___xxtofl@val 0070                    ?_GetKey 0070  
        __end_of__Umul8_16 1CEE                 __pmaintext 0047                 __pintentry 0004  
__size_of_Lcd_Write_String 0029     __end_of_Lcd_Set_Cursor 1D89                    u1000_20 1311  
                  u1000_21 1310                    u1001_20 1315                    u1001_21 1314  
                  _T2CKPS0 0090                    _T2CKPS1 0091                    u1010_20 1376  
                  u1002_20 1325                    u1010_21 1375                    u1002_21 1324  
                  u1011_20 137A                    u1003_20 1329                    u1011_21 1379  
                  u1003_21 1328                    u1012_20 137E                    u1004_20 132D  
                  u1012_21 137D                    u1004_21 132C                    u1013_20 1384  
                  u1005_20 134A                    u1013_21 1383                    u1005_21 1349  
                  u1014_20 138C                    u1006_20 134E                    u1014_21 138B  
                  u1006_21 134D                    u1007_20 1352                    u1007_21 1351  
                  u1008_20 1358                    u1008_21 1357                    u1009_20 1366  
                  u1009_21 1365                    u1051_27 12D2                    u1052_27 1302  
                  u1053_27 133F                  ?___xxtofl 00AE            ??_READ_SWITCHES 00A0  
               ??_Lcd_Init 00A4        __size_of_InitKeypad 0012                 ??_Lcd_Port 00A0  
               __stringtab 1800            __size_of_DC_cal 00B3             _Lcd_Write_Char 1CEE  
                ?_init_PWM 0070                    _Lcd_Cmd 1C84            __size_of_GetKey 0019  
                ?_set_Tpwm 0070                    ___fladd 0A17                    ___fldiv 083A  
                  ___flmul 0C9F                    ___fltol 1ED1                    ___lldiv 1DED  
          ?_Lcd_Set_Cursor 00A4               ??i1___xxtofl 0074                    __ptext1 11A2  
                  __ptext2 10E6                    __ptext3 1DED                    __ptext4 1ED1  
                  __ptext5 083A                    __ptext6 0A17                    __ptext7 1BE4  
                  __ptext8 1003                    __ptext9 1CEE               __size_of_ISR 012F  
                  _counter 01C9                 ??___xxtofl 00B2                    main@Key 01C4  
   __end_of_Lcd_Write_Char 1D31       end_of_initialization 0043                 ??_init_PWM 00A0  
            ??_EEPROM_Read 00A0                  GetKey@key 00A4            ___lldiv@divisor 00A0  
       __end_ofi1___xxtofl 10E6            ___lldiv@counter 00AD                 ??_set_Tpwm 019B  
                Lcd_Port@a 00A0                ___fladd@grs 00E9                 main@c1_214 01A9  
               main@c2_213 01A3              ___xxtofl@sign 00B6                  i1___fldiv 13A5  
              ___fldiv@grs 00D0                  i1___fltol 1E55                ___fldiv@rem 00C9  
          ?_Lcd_Write_Char 0070          Lcd_Write_String@a 00A7          Lcd_Write_String@i 00A5  
         _setPWM_DutyCycle 1C6A                 main@check1 01BE                 main@check2 01C2  
               main@check3 01C0                 main@check4 01B4                 main@check5 01BA  
               main@check6 01B0                ___flmul@grs 0048             __end_of_DC_cal 2000  
             ??_InitKeypad 00A0             __end_of_GetKey 1C6A        __end_of_EEPROM_Read 1C08  
                _Lcd_Clear 1BEC           _Lcd_Write_String 1003        start_initialization 0013  
              __end_of_ISR 13A5                 ?i1___fldiv 0020                 ?i1___fltol 003A  
       __end_of_InitKeypad 0800          __size_of_Lcd_Init 0064                   ??_DC_cal 0056  
        __size_of_Lcd_Port 0036                   ??_GetKey 00A3                 ?_Lcd_Clear 0070  
                __Umul8_16 1CC7                __pdataBANK1 00EE                __pdataBANK3 01C5  
          Lcd_Write_Char@a 00A4            Lcd_Write_Char@y 00A3                  ___fladd@a 00DA  
                ___fladd@b 00D6                  ___fldiv@a 00BC                  ___fldiv@b 00C0  
                ___flmul@a 003E                  ___flmul@b 003A                  ___latbits 0002  
                 DC_cal@DC 0054              __pcstackBANK0 0020              __pcstackBANK1 00A0  
            __pcstackBANK3 0190          __size_of___xxtofl 00BC            i1___xxtofl@sign 0078  
                 ?_Lcd_Cmd 0070          i1___fldiv@new_exp 0032                _EEPROM_Read 1BF9  
        __size_of_init_PWM 0008           ??_Lcd_Set_Cursor 00A5                   ?___fladd 00D6  
                 ?___fldiv 00BC          __size_of_set_Tpwm 00D4                   ?___flmul 003A  
                 ?___fltol 0190                   ?___lldiv 00A0                 ?__Umul8_16 0070  
                __pstrings 1800                ??i1___fldiv 0028                ??i1___fltol 003E  
    __end_of_READ_SWITCHES 1800             __size_of_nguoi 0017                __size_of_Mo 0019  
        interrupt_function 0004                   Lcd_Cmd@a 00A3                ??_Lcd_Clear 00A4  
 __end_of_setPWM_DutyCycle 1C84                __stringbase 1805                  _trangthai 0068  
                main@i_221 01B9                  main@i_215 01B7                  main@x_216 01AA  
                main@x_219 01AB                  main@check 01AE                  main@down1 01A5  
         ??_Lcd_Write_Char 00A1         setPWM_DutyCycle@DC 005E                   _Lcd_Init 1D89  
                 _Lcd_Port 0804   __end_of_Lcd_Write_String 102C           __size_of_Lcd_Cmd 0020  
               _EECON1bits 018C                ??__Umul8_16 0072           __size_of___fladd 0288  
         __size_of___fldiv 01DD           __size_of___flmul 0361           __size_of___fltol 007C  
         __size_of___lldiv 0068         __end_of__stringtab 1806                   ___xxtofl 10E6  
                 __ptext10 1D31                   __ptext11 1D89                   __ptext20 1276  
                 __ptext12 1BEC                   __ptext21 1C08                   __ptext13 1C84  
                 __ptext30 0C9F                   __ptext22 1C38                   __ptext14 0804  
                 __ptext31 1CC7                   __ptext23 1BDF                   __ptext15 07EE  
                 __ptext24 1C1F                   __ptext16 1C51                   __ptext25 1C6A  
                 __ptext17 1582                   __ptext26 1F4D                   __ptext18 1CA4  
                 __ptext27 102C                   __ptext19 1BF9                   __ptext28 1E55  
                 __ptext29 13A5              ?_EEPROM_Write 00A0                   _counter1 00EA  
            __size_of_Dong 0019              __size_of_Dung 0005                   _init_PWM 1BE4  
            __size_of_main 07A7                   _set_Tpwm 11A2                 _DC_cal$915 005A  
                 main@data 01AC                   main@down 01BC         EEPROM_Read@Address 00A0  
           ??_EEPROM_Write 00A1         Lcd_Write_Char@temp 00A2                   intlevel1 0000  
             ?_EEPROM_Read 0070           ___lldiv@dividend 00A4                  stringcode 1800  
       Lcd_Set_Cursor@temp 00AA     __Umul8_16@multiplicand 0070                 _OPTION_REG 0081  
         ___lldiv@quotient 00A9        EEPROM_Write@Address 00A1                   stringdir 1800  
                 stringtab 1800              ___fladd@signs 00E6               ___fladd@aexp 00E7  
             ___fladd@bexp 00E8       __Umul8_16@multiplier 0078          __Umul8_16@product 0074  
